---
triple:          'arm64-apple-darwin'
binary-path:     '/Users/saadbhati/Library/Developer/Xcode/DerivedData/Runner-guydlmrdmzlwhoahfxlssqneaxss/Build/Intermediates.noindex/ArchiveIntermediates/Runner/IntermediateBuildFilesPath/UninstalledProducts/iphoneos/grpcpp.framework/grpcpp'
relocations:
  - { offsetInCU: 0x33, offset: 0x33, size: 0x8, addend: 0x0, symName: _grpcppVersionString, symObjAddr: 0x0, symBinAddr: 0x4D080, symSize: 0x0 }
  - { offsetInCU: 0x67, offset: 0x67, size: 0x8, addend: 0x0, symName: _grpcppVersionNumber, symObjAddr: 0x28, symBinAddr: 0x4D0A8, symSize: 0x0 }
  - { offsetInCU: 0x44, offset: 0xC0, size: 0x8, addend: 0x0, symName: __ZN4grpcL17g_gli_initializerE, symObjAddr: 0x62807, symBinAddr: 0x68BD8, symSize: 0x0 }
  - { offsetInCU: 0x17DC, offset: 0x1858, size: 0x8, addend: 0x0, symName: __ZN4grpc8internal22GrpcLibraryInitializerC2Ev, symObjAddr: 0x5D8, symBinAddr: 0x45D8, symSize: 0x120 }
  - { offsetInCU: 0x1803, offset: 0x187F, size: 0x8, addend: 0x0, symName: __ZZN4grpc8internal22GrpcLibraryInitializerC1EvE5g_gli, symObjAddr: 0x1150, symBinAddr: 0x68B70, symSize: 0x0 }
  - { offsetInCU: 0x1818, offset: 0x1894, size: 0x8, addend: 0x0, symName: __ZZN4grpc8internal22GrpcLibraryInitializerC1EvE14g_core_codegen, symObjAddr: 0x1160, symBinAddr: 0x68B80, symSize: 0x0 }
  - { offsetInCU: 0xDF4A, offset: 0xDFC6, size: 0x8, addend: 0x0, symName: __ZNSt3__125__throw_bad_function_callB7v160006Ev, symObjAddr: 0xD24, symBinAddr: 0x4D24, symSize: 0x34 }
  - { offsetInCU: 0x18A62, offset: 0x18ADE, size: 0x8, addend: 0x0, symName: __ZN12closure_impl15closure_wrapperEPvP10grpc_error, symObjAddr: 0xC80, symBinAddr: 0x4C80, symSize: 0x3C }
  - { offsetInCU: 0x1AD04, offset: 0x1AD80, size: 0x8, addend: 0x0, symName: __ZN4grpc5AlarmC2Ev, symObjAddr: 0x0, symBinAddr: 0x4000, symSize: 0x74 }
  - { offsetInCU: 0x1AD8C, offset: 0x1AE08, size: 0x8, addend: 0x0, symName: __ZN4grpc18GrpcLibraryCodegenC2Eb, symObjAddr: 0x74, symBinAddr: 0x4074, symSize: 0x90 }
  - { offsetInCU: 0x1ADE5, offset: 0x1AE61, size: 0x8, addend: 0x0, symName: __ZN4grpc8internal9AlarmImplC2Ev, symObjAddr: 0x720, symBinAddr: 0x4720, symSize: 0x94 }
  - { offsetInCU: 0x1AF45, offset: 0x1AFC1, size: 0x8, addend: 0x0, symName: __ZN4grpc18GrpcLibraryCodegenD2Ev, symObjAddr: 0x104, symBinAddr: 0x4104, symSize: 0x8C }
  - { offsetInCU: 0x1AF8F, offset: 0x1B00B, size: 0x8, addend: 0x0, symName: __ZN4grpc5AlarmC1Ev, symObjAddr: 0x190, symBinAddr: 0x4190, symSize: 0x4 }
  - { offsetInCU: 0x1AFBD, offset: 0x1B039, size: 0x8, addend: 0x0, symName: __ZN4grpc5AlarmC1Ev, symObjAddr: 0x190, symBinAddr: 0x4190, symSize: 0x4 }
  - { offsetInCU: 0x1AFD1, offset: 0x1B04D, size: 0x8, addend: 0x0, symName: __ZN4grpc5Alarm11SetInternalEPNS_15CompletionQueueE12gpr_timespecPv, symObjAddr: 0x194, symBinAddr: 0x4194, symSize: 0x8 }
  - { offsetInCU: 0x1B050, offset: 0x1B0CC, size: 0x8, addend: 0x0, symName: __ZN4grpc8internal9AlarmImpl3SetEPNS_15CompletionQueueE12gpr_timespecPv, symObjAddr: 0x19C, symBinAddr: 0x419C, symSize: 0x13C }
  - { offsetInCU: 0x1B4B6, offset: 0x1B532, size: 0x8, addend: 0x0, symName: __ZN9grpc_core26ApplicationCallbackExecCtx3SetEPS0_m, symObjAddr: 0x8C0, symBinAddr: 0x48C0, symSize: 0x54 }
  - { offsetInCU: 0x1B55F, offset: 0x1B5DB, size: 0x8, addend: 0x0, symName: __ZN9grpc_core7ExecCtxC2Ev, symObjAddr: 0x914, symBinAddr: 0x4914, symSize: 0x80 }
  - { offsetInCU: 0x1B684, offset: 0x1B700, size: 0x8, addend: 0x0, symName: __ZN9grpc_core7ExecCtxD2Ev, symObjAddr: 0xA2C, symBinAddr: 0x4A2C, symSize: 0x70 }
  - { offsetInCU: 0x1B725, offset: 0x1B7A1, size: 0x8, addend: 0x0, symName: __ZN9grpc_core26ApplicationCallbackExecCtxD2Ev, symObjAddr: 0xA9C, symBinAddr: 0x4A9C, symSize: 0xDC }
  - { offsetInCU: 0x1B912, offset: 0x1B98E, size: 0x8, addend: 0x0, symName: __ZN4grpc5Alarm11SetInternalE12gpr_timespecNSt3__18functionIFvbEEE, symObjAddr: 0x2D8, symBinAddr: 0x42D8, symSize: 0xE8 }
  - { offsetInCU: 0x1BB25, offset: 0x1BBA1, size: 0x8, addend: 0x0, symName: __ZNSt3__110__function12__value_funcIFvbEEC2B7v160006EOS3_, symObjAddr: 0xD70, symBinAddr: 0x4D70, symSize: 0x64 }
  - { offsetInCU: 0x1BB74, offset: 0x1BBF0, size: 0x8, addend: 0x0, symName: __ZN4grpc8internal9AlarmImpl3SetE12gpr_timespecNSt3__18functionIFvbEEE, symObjAddr: 0x3C0, symBinAddr: 0x43C0, symSize: 0xEC }
  - { offsetInCU: 0x1BE87, offset: 0x1BF03, size: 0x8, addend: 0x0, symName: __ZNSt3__110__function12__value_funcIFvbEEaSB7v160006EOS3_, symObjAddr: 0xB78, symBinAddr: 0x4B78, symSize: 0x90 }
  - { offsetInCU: 0x1BF1F, offset: 0x1BF9B, size: 0x8, addend: 0x0, symName: __ZN4grpc5AlarmD2Ev, symObjAddr: 0x4AC, symBinAddr: 0x44AC, symSize: 0x3C }
  - { offsetInCU: 0x1BF6F, offset: 0x1BFEB, size: 0x8, addend: 0x0, symName: __ZN4grpc8internal9AlarmImpl7DestroyEv, symObjAddr: 0x4E8, symBinAddr: 0x44E8, symSize: 0x48 }
  - { offsetInCU: 0x1C00C, offset: 0x1C088, size: 0x8, addend: 0x0, symName: __ZN4grpc8internal9AlarmImpl6CancelEv, symObjAddr: 0x55C, symBinAddr: 0x455C, symSize: 0x7C }
  - { offsetInCU: 0x1C1D0, offset: 0x1C24C, size: 0x8, addend: 0x0, symName: __ZN4grpc5AlarmD1Ev, symObjAddr: 0x53C, symBinAddr: 0x453C, symSize: 0x4 }
  - { offsetInCU: 0x1C1F3, offset: 0x1C26F, size: 0x8, addend: 0x0, symName: __ZN4grpc5AlarmD1Ev, symObjAddr: 0x53C, symBinAddr: 0x453C, symSize: 0x4 }
  - { offsetInCU: 0x1C228, offset: 0x1C2A4, size: 0x8, addend: 0x0, symName: __ZN4grpc5AlarmD0Ev, symObjAddr: 0x540, symBinAddr: 0x4540, symSize: 0x14 }
  - { offsetInCU: 0x1C286, offset: 0x1C302, size: 0x8, addend: 0x0, symName: __ZN4grpc5Alarm6CancelEv, symObjAddr: 0x554, symBinAddr: 0x4554, symSize: 0x8 }
  - { offsetInCU: 0x1C33D, offset: 0x1C3B9, size: 0x8, addend: 0x0, symName: __ZN4grpc8internal11GrpcLibraryD1Ev, symObjAddr: 0x6F8, symBinAddr: 0x46F8, symSize: 0x4 }
  - { offsetInCU: 0x1C368, offset: 0x1C3E4, size: 0x8, addend: 0x0, symName: __ZN4grpc8internal11GrpcLibraryD0Ev, symObjAddr: 0x6FC, symBinAddr: 0x46FC, symSize: 0x4 }
  - { offsetInCU: 0x1C393, offset: 0x1C40F, size: 0x8, addend: 0x0, symName: __ZN4grpc8internal11GrpcLibrary4initEv, symObjAddr: 0x700, symBinAddr: 0x4700, symSize: 0x4 }
  - { offsetInCU: 0x1C3BB, offset: 0x1C437, size: 0x8, addend: 0x0, symName: __ZN4grpc8internal11GrpcLibrary4initEv, symObjAddr: 0x700, symBinAddr: 0x4700, symSize: 0x4 }
  - { offsetInCU: 0x1C3CE, offset: 0x1C44A, size: 0x8, addend: 0x0, symName: __ZN4grpc8internal11GrpcLibrary8shutdownEv, symObjAddr: 0x704, symBinAddr: 0x4704, symSize: 0x4 }
  - { offsetInCU: 0x1C3F6, offset: 0x1C472, size: 0x8, addend: 0x0, symName: __ZN4grpc8internal11GrpcLibrary8shutdownEv, symObjAddr: 0x704, symBinAddr: 0x4704, symSize: 0x4 }
  - { offsetInCU: 0x1C409, offset: 0x1C485, size: 0x8, addend: 0x0, symName: __ZN4grpc18GrpcLibraryCodegenD1Ev, symObjAddr: 0x708, symBinAddr: 0x4708, symSize: 0x4 }
  - { offsetInCU: 0x1C42C, offset: 0x1C4A8, size: 0x8, addend: 0x0, symName: __ZN4grpc18GrpcLibraryCodegenD1Ev, symObjAddr: 0x708, symBinAddr: 0x4708, symSize: 0x4 }
  - { offsetInCU: 0x1C45E, offset: 0x1C4DA, size: 0x8, addend: 0x0, symName: __ZN4grpc18GrpcLibraryCodegenD0Ev, symObjAddr: 0x70C, symBinAddr: 0x470C, symSize: 0x14 }
  - { offsetInCU: 0x1C55F, offset: 0x1C5DB, size: 0x8, addend: 0x0, symName: __ZN4grpc8internal9AlarmImplD1Ev, symObjAddr: 0x7B4, symBinAddr: 0x47B4, symSize: 0x60 }
  - { offsetInCU: 0x1C645, offset: 0x1C6C1, size: 0x8, addend: 0x0, symName: __ZN4grpc8internal9AlarmImplD0Ev, symObjAddr: 0x814, symBinAddr: 0x4814, symSize: 0x60 }
  - { offsetInCU: 0x1C735, offset: 0x1C7B1, size: 0x8, addend: 0x0, symName: __ZN4grpc8internal9AlarmImpl14FinalizeResultEPPvPb, symObjAddr: 0x874, symBinAddr: 0x4874, symSize: 0x48 }
  - { offsetInCU: 0x1C7B5, offset: 0x1C831, size: 0x8, addend: 0x0, symName: __ZN9grpc_core7ExecCtxD1Ev, symObjAddr: 0x8BC, symBinAddr: 0x48BC, symSize: 0x4 }
  - { offsetInCU: 0x1C7D8, offset: 0x1C854, size: 0x8, addend: 0x0, symName: __ZN9grpc_core7ExecCtxD1Ev, symObjAddr: 0x8BC, symBinAddr: 0x48BC, symSize: 0x4 }
  - { offsetInCU: 0x1C860, offset: 0x1C8DC, size: 0x8, addend: 0x0, symName: __ZN9grpc_core7ExecCtxD0Ev, symObjAddr: 0x994, symBinAddr: 0x4994, symSize: 0x18 }
  - { offsetInCU: 0x1C8D2, offset: 0x1C94E, size: 0x8, addend: 0x0, symName: __ZN9grpc_core7ExecCtx18CheckReadyToFinishEv, symObjAddr: 0x9AC, symBinAddr: 0x49AC, symSize: 0x8 }
  - { offsetInCU: 0x1C951, offset: 0x1C9CD, size: 0x8, addend: 0x0, symName: __ZZN4grpc8internal9AlarmImpl3SetEPNS_15CompletionQueueE12gpr_timespecPvENUlS5_P10grpc_errorE_8__invokeES5_S7_, symObjAddr: 0x9B4, symBinAddr: 0x49B4, symSize: 0x74 }
  - { offsetInCU: 0x1CAC5, offset: 0x1CB41, size: 0x8, addend: 0x0, symName: __ZZZN4grpc8internal9AlarmImpl3SetEPNS_15CompletionQueueE12gpr_timespecPvENKUlS5_P10grpc_errorE_clES5_S7_ENUlS5_P18grpc_cq_completionE_8__invokeES5_SA_, symObjAddr: 0xA28, symBinAddr: 0x4A28, symSize: 0x4 }
  - { offsetInCU: 0x1CBB2, offset: 0x1CC2E, size: 0x8, addend: 0x0, symName: __ZZN4grpc8internal9AlarmImpl3SetE12gpr_timespecNSt3__18functionIFvbEEEENUlPvP10grpc_errorE_8__invokeES7_S9_, symObjAddr: 0xC08, symBinAddr: 0x4C08, symSize: 0x78 }
  - { offsetInCU: 0x1CD9A, offset: 0x1CE16, size: 0x8, addend: 0x0, symName: __ZZZN4grpc8internal9AlarmImpl3SetE12gpr_timespecNSt3__18functionIFvbEEEENKUlPvP10grpc_errorE_clES7_S9_ENUlS7_S9_E_8__invokeES7_S9_, symObjAddr: 0xCBC, symBinAddr: 0x4CBC, symSize: 0x68 }
  - { offsetInCU: 0x1CEA0, offset: 0x1CF1C, size: 0x8, addend: 0x0, symName: __ZNSt3__125__throw_bad_function_callB7v160006Ev, symObjAddr: 0xD24, symBinAddr: 0x4D24, symSize: 0x34 }
  - { offsetInCU: 0x1CF1C, offset: 0x1CF98, size: 0x8, addend: 0x0, symName: __ZNSt3__117bad_function_callD1Ev, symObjAddr: 0xD58, symBinAddr: 0x4D58, symSize: 0x4 }
  - { offsetInCU: 0x1CF3E, offset: 0x1CFBA, size: 0x8, addend: 0x0, symName: __ZNSt3__117bad_function_callD1Ev, symObjAddr: 0xD58, symBinAddr: 0x4D58, symSize: 0x4 }
  - { offsetInCU: 0x1CF71, offset: 0x1CFED, size: 0x8, addend: 0x0, symName: __ZNSt3__117bad_function_callD0Ev, symObjAddr: 0xD5C, symBinAddr: 0x4D5C, symSize: 0x14 }
  - { offsetInCU: 0x26, offset: 0x1D078, size: 0x8, addend: 0x0, symName: __ZN4grpc19AsyncGenericService11RequestCallEPNS_20GenericServerContextEPNS_23ServerAsyncReaderWriterINS_10ByteBufferES4_EEPNS_15CompletionQueueEPNS_21ServerCompletionQueueEPv, symObjAddr: 0x0, symBinAddr: 0x4DE0, symSize: 0x8 }
  - { offsetInCU: 0x2076A, offset: 0x3D7BC, size: 0x8, addend: 0x0, symName: __ZN4grpc19AsyncGenericService11RequestCallEPNS_20GenericServerContextEPNS_23ServerAsyncReaderWriterINS_10ByteBufferES4_EEPNS_15CompletionQueueEPNS_21ServerCompletionQueueEPv, symObjAddr: 0x0, symBinAddr: 0x4DE0, symSize: 0x8 }
  - { offsetInCU: 0x2080F, offset: 0x3D861, size: 0x8, addend: 0x0, symName: __ZN4grpc15ServerInterface23RequestAsyncGenericCallEPNS_20GenericServerContextEPNS_8internal29ServerAsyncStreamingInterfaceEPNS_15CompletionQueueEPNS_21ServerCompletionQueueEPv, symObjAddr: 0x8, symBinAddr: 0x4DE8, symSize: 0x88 }
  - { offsetInCU: 0x26, offset: 0x3D901, size: 0x8, addend: 0x0, symName: __ZN4grpc20AuthPropertyIteratorC2Ev, symObjAddr: 0x0, symBinAddr: 0x4E70, symSize: 0xC }
  - { offsetInCU: 0x4291, offset: 0x41B6C, size: 0x8, addend: 0x0, symName: __ZN4grpc20AuthPropertyIteratorC2Ev, symObjAddr: 0x0, symBinAddr: 0x4E70, symSize: 0xC }
  - { offsetInCU: 0x42D2, offset: 0x41BAD, size: 0x8, addend: 0x0, symName: __ZN4grpc20AuthPropertyIteratorC1Ev, symObjAddr: 0xC, symBinAddr: 0x4E7C, symSize: 0xC }
  - { offsetInCU: 0x4300, offset: 0x41BDB, size: 0x8, addend: 0x0, symName: __ZN4grpc20AuthPropertyIteratorC1Ev, symObjAddr: 0xC, symBinAddr: 0x4E7C, symSize: 0xC }
  - { offsetInCU: 0x4319, offset: 0x41BF4, size: 0x8, addend: 0x0, symName: __ZN4grpc20AuthPropertyIteratorC2EPK18grpc_auth_propertyPK27grpc_auth_property_iterator, symObjAddr: 0x18, symBinAddr: 0x4E88, symSize: 0x18 }
  - { offsetInCU: 0x437B, offset: 0x41C56, size: 0x8, addend: 0x0, symName: __ZN4grpc20AuthPropertyIteratorC1EPK18grpc_auth_propertyPK27grpc_auth_property_iterator, symObjAddr: 0x30, symBinAddr: 0x4EA0, symSize: 0x18 }
  - { offsetInCU: 0x43C5, offset: 0x41CA0, size: 0x8, addend: 0x0, symName: __ZN4grpc20AuthPropertyIteratorC1EPK18grpc_auth_propertyPK27grpc_auth_property_iterator, symObjAddr: 0x30, symBinAddr: 0x4EA0, symSize: 0x18 }
  - { offsetInCU: 0x43EC, offset: 0x41CC7, size: 0x8, addend: 0x0, symName: __ZN4grpc20AuthPropertyIteratorD2Ev, symObjAddr: 0x48, symBinAddr: 0x4EB8, symSize: 0x4 }
  - { offsetInCU: 0x4417, offset: 0x41CF2, size: 0x8, addend: 0x0, symName: __ZN4grpc20AuthPropertyIteratorD1Ev, symObjAddr: 0x4C, symBinAddr: 0x4EBC, symSize: 0x4 }
  - { offsetInCU: 0x4442, offset: 0x41D1D, size: 0x8, addend: 0x0, symName: __ZN4grpc20AuthPropertyIteratorppEv, symObjAddr: 0x50, symBinAddr: 0x4EC0, symSize: 0x54 }
  - { offsetInCU: 0x44BF, offset: 0x41D9A, size: 0x8, addend: 0x0, symName: __ZN4grpc20AuthPropertyIteratorppEi, symObjAddr: 0xA4, symBinAddr: 0x4F14, symSize: 0x58 }
  - { offsetInCU: 0x453E, offset: 0x41E19, size: 0x8, addend: 0x0, symName: __ZNK4grpc20AuthPropertyIteratoreqERKS0_, symObjAddr: 0xFC, symBinAddr: 0x4F6C, symSize: 0x28 }
  - { offsetInCU: 0x4591, offset: 0x41E6C, size: 0x8, addend: 0x0, symName: __ZNK4grpc20AuthPropertyIteratorneERKS0_, symObjAddr: 0x124, symBinAddr: 0x4F94, symSize: 0x2C }
  - { offsetInCU: 0x45CA, offset: 0x41EA5, size: 0x8, addend: 0x0, symName: __ZNK4grpc20AuthPropertyIteratorneERKS0_, symObjAddr: 0x124, symBinAddr: 0x4F94, symSize: 0x2C }
  - { offsetInCU: 0x4731, offset: 0x4200C, size: 0x8, addend: 0x0, symName: __ZN4grpc20AuthPropertyIteratordeEv, symObjAddr: 0x150, symBinAddr: 0x4FC0, symSize: 0x40 }
  - { offsetInCU: 0x22F97, offset: 0x6509F, size: 0x8, addend: 0x0, symName: __ZN9grpc_core26BinderClientChannelFactory16CreateSubchannelERK21grpc_resolved_addressPK17grpc_channel_args, symObjAddr: 0x0, symBinAddr: 0x5000, symSize: 0x10C }
  - { offsetInCU: 0x23455, offset: 0x6555D, size: 0x8, addend: 0x0, symName: __ZN9grpc_core26BinderClientChannelFactoryD1Ev, symObjAddr: 0x10C, symBinAddr: 0x510C, symSize: 0x4 }
  - { offsetInCU: 0x23480, offset: 0x65588, size: 0x8, addend: 0x0, symName: __ZN9grpc_core26BinderClientChannelFactoryD0Ev, symObjAddr: 0x110, symBinAddr: 0x5110, symSize: 0x4 }
  - { offsetInCU: 0x23512, offset: 0x6561A, size: 0x8, addend: 0x0, symName: __ZN9grpc_core19SubchannelConnector6OrphanEv, symObjAddr: 0x114, symBinAddr: 0x5114, symSize: 0xB4 }
  - { offsetInCU: 0x23641, offset: 0x65749, size: 0x8, addend: 0x0, symName: __ZN9grpc_core8RefCount5UnrefEv, symObjAddr: 0x438, symBinAddr: 0x542C, symSize: 0x74 }
  - { offsetInCU: 0x236EF, offset: 0x657F7, size: 0x8, addend: 0x0, symName: __ZN12_GLOBAL__N_115BinderConnector11OnConnectedENSt3__110unique_ptrIN11grpc_binder6BinderENS1_14default_deleteIS4_EEEE, symObjAddr: 0x4AC, symBinAddr: 0x54A0, symSize: 0x1C4 }
  - { offsetInCU: 0x237DA, offset: 0x658E2, size: 0x8, addend: 0x0, symName: __ZN12_GLOBAL__N_115BinderConnectorD1Ev, symObjAddr: 0x1C8, symBinAddr: 0x51C8, symSize: 0x3C }
  - { offsetInCU: 0x23964, offset: 0x65A6C, size: 0x8, addend: 0x0, symName: __ZN12_GLOBAL__N_115BinderConnectorD0Ev, symObjAddr: 0x204, symBinAddr: 0x5204, symSize: 0x3C }
  - { offsetInCU: 0x240A4, offset: 0x661AC, size: 0x8, addend: 0x0, symName: __ZN12_GLOBAL__N_115BinderConnector7ConnectERKN9grpc_core19SubchannelConnector4ArgsEPNS2_6ResultEP12grpc_closure, symObjAddr: 0x240, symBinAddr: 0x5240, symSize: 0x1E8 }
  - { offsetInCU: 0x247F8, offset: 0x66900, size: 0x8, addend: 0x0, symName: __ZN9grpc_core8RefCount3RefEl, symObjAddr: 0x670, symBinAddr: 0x5664, symSize: 0x5C }
  - { offsetInCU: 0x248A2, offset: 0x669AA, size: 0x8, addend: 0x0, symName: __ZN9grpc_core13RefCountedPtrINS_19SubchannelConnectorEED2Ev, symObjAddr: 0x6CC, symBinAddr: 0x56C0, symSize: 0x4C }
  - { offsetInCU: 0x24C2A, offset: 0x66D32, size: 0x8, addend: 0x0, symName: __ZN12_GLOBAL__N_115BinderConnector7ConnectERKN9grpc_core19SubchannelConnector4ArgsEPNS2_6ResultEP12grpc_closure.cold.1, symObjAddr: 0xA0C, symBinAddr: 0x4794C, symSize: 0x34 }
  - { offsetInCU: 0x24C42, offset: 0x66D4A, size: 0x8, addend: 0x0, symName: __ZN12_GLOBAL__N_115BinderConnector7ConnectERKN9grpc_core19SubchannelConnector4ArgsEPNS2_6ResultEP12grpc_closure.cold.4, symObjAddr: 0xAA8, symBinAddr: 0x479E8, symSize: 0x34 }
  - { offsetInCU: 0x24C5A, offset: 0x66D62, size: 0x8, addend: 0x0, symName: __ZN12_GLOBAL__N_115BinderConnector7ConnectERKN9grpc_core19SubchannelConnector4ArgsEPNS2_6ResultEP12grpc_closure.cold.3, symObjAddr: 0xA74, symBinAddr: 0x479B4, symSize: 0x34 }
  - { offsetInCU: 0x24C72, offset: 0x66D7A, size: 0x8, addend: 0x0, symName: __ZN12_GLOBAL__N_115BinderConnector7ConnectERKN9grpc_core19SubchannelConnector4ArgsEPNS2_6ResultEP12grpc_closure.cold.2, symObjAddr: 0xA40, symBinAddr: 0x47980, symSize: 0x34 }
  - { offsetInCU: 0x24C8A, offset: 0x66D92, size: 0x8, addend: 0x0, symName: __ZN12_GLOBAL__N_115BinderConnector8ShutdownEP10grpc_error, symObjAddr: 0x428, symBinAddr: 0x5428, symSize: 0x4 }
  - { offsetInCU: 0x24CE9, offset: 0x66DF1, size: 0x8, addend: 0x0, symName: __ZN9grpc_core8RefCount5UnrefEv.cold.1, symObjAddr: 0xADC, symBinAddr: 0x47A1C, symSize: 0x34 }
  - { offsetInCU: 0x2507D, offset: 0x67185, size: 0x8, addend: 0x0, symName: __ZN12_GLOBAL__N_115BinderConnector11OnConnectedENSt3__110unique_ptrIN11grpc_binder6BinderENS1_14default_deleteIS4_EEEE, symObjAddr: 0x4AC, symBinAddr: 0x54A0, symSize: 0x1C4 }
  - { offsetInCU: 0x258F2, offset: 0x679FA, size: 0x8, addend: 0x0, symName: __ZN12_GLOBAL__N_115BinderConnector11OnConnectedENSt3__110unique_ptrIN11grpc_binder6BinderENS1_14default_deleteIS4_EEEE.cold.1, symObjAddr: 0xB10, symBinAddr: 0x47A50, symSize: 0x34 }
  - { offsetInCU: 0x2590A, offset: 0x67A12, size: 0x8, addend: 0x0, symName: __ZN12_GLOBAL__N_115BinderConnector11OnConnectedENSt3__110unique_ptrIN11grpc_binder6BinderENS1_14default_deleteIS4_EEEE.cold.2, symObjAddr: 0xB44, symBinAddr: 0x47A84, symSize: 0x34 }
  - { offsetInCU: 0x25922, offset: 0x67A2A, size: 0x8, addend: 0x0, symName: __ZN12_GLOBAL__N_115BinderConnector11OnConnectedENSt3__110unique_ptrIN11grpc_binder6BinderENS1_14default_deleteIS4_EEEE.cold.3, symObjAddr: 0xB78, symBinAddr: 0x47AB8, symSize: 0x34 }
  - { offsetInCU: 0x2593A, offset: 0x67A42, size: 0x8, addend: 0x0, symName: __ZNSt3__110shared_ptrIN4grpc12experimental6binder14SecurityPolicyEED2B7v160006Ev, symObjAddr: 0x71C, symBinAddr: 0x570C, symSize: 0x58 }
  - { offsetInCU: 0x25A4B, offset: 0x67B53, size: 0x8, addend: 0x0, symName: __ZNSt3__110__function6__funcINS_6__bindIMN12_GLOBAL__N_115BinderConnectorEFvNS_10unique_ptrIN11grpc_binder6BinderENS_14default_deleteIS7_EEEEEJPS4_RKNS_12placeholders4__phILi1EEEEEENS_9allocatorISJ_EEFvSA_EED1Ev, symObjAddr: 0x884, symBinAddr: 0x5764, symSize: 0x4 }
  - { offsetInCU: 0x25A77, offset: 0x67B7F, size: 0x8, addend: 0x0, symName: __ZNSt3__110__function6__funcINS_6__bindIMN12_GLOBAL__N_115BinderConnectorEFvNS_10unique_ptrIN11grpc_binder6BinderENS_14default_deleteIS7_EEEEEJPS4_RKNS_12placeholders4__phILi1EEEEEENS_9allocatorISJ_EEFvSA_EED0Ev, symObjAddr: 0x888, symBinAddr: 0x5768, symSize: 0x4 }
  - { offsetInCU: 0x25C64, offset: 0x67D6C, size: 0x8, addend: 0x0, symName: __ZNKSt3__110__function6__funcINS_6__bindIMN12_GLOBAL__N_115BinderConnectorEFvNS_10unique_ptrIN11grpc_binder6BinderENS_14default_deleteIS7_EEEEEJPS4_RKNS_12placeholders4__phILi1EEEEEENS_9allocatorISJ_EEFvSA_EE7__cloneEv, symObjAddr: 0x88C, symBinAddr: 0x576C, symSize: 0x40 }
  - { offsetInCU: 0x25F9C, offset: 0x680A4, size: 0x8, addend: 0x0, symName: __ZNKSt3__110__function6__funcINS_6__bindIMN12_GLOBAL__N_115BinderConnectorEFvNS_10unique_ptrIN11grpc_binder6BinderENS_14default_deleteIS7_EEEEEJPS4_RKNS_12placeholders4__phILi1EEEEEENS_9allocatorISJ_EEFvSA_EE7__cloneEPNS0_6__baseISM_EE, symObjAddr: 0x8CC, symBinAddr: 0x57AC, symSize: 0x20 }
  - { offsetInCU: 0x25FD5, offset: 0x680DD, size: 0x8, addend: 0x0, symName: __ZNKSt3__110__function6__funcINS_6__bindIMN12_GLOBAL__N_115BinderConnectorEFvNS_10unique_ptrIN11grpc_binder6BinderENS_14default_deleteIS7_EEEEEJPS4_RKNS_12placeholders4__phILi1EEEEEENS_9allocatorISJ_EEFvSA_EE7__cloneEPNS0_6__baseISM_EE, symObjAddr: 0x8CC, symBinAddr: 0x57AC, symSize: 0x20 }
  - { offsetInCU: 0x26004, offset: 0x6810C, size: 0x8, addend: 0x0, symName: __ZNKSt3__110__function6__funcINS_6__bindIMN12_GLOBAL__N_115BinderConnectorEFvNS_10unique_ptrIN11grpc_binder6BinderENS_14default_deleteIS7_EEEEEJPS4_RKNS_12placeholders4__phILi1EEEEEENS_9allocatorISJ_EEFvSA_EE7__cloneEPNS0_6__baseISM_EE, symObjAddr: 0x8CC, symBinAddr: 0x57AC, symSize: 0x20 }
  - { offsetInCU: 0x2611B, offset: 0x68223, size: 0x8, addend: 0x0, symName: __ZNSt3__110__function6__funcINS_6__bindIMN12_GLOBAL__N_115BinderConnectorEFvNS_10unique_ptrIN11grpc_binder6BinderENS_14default_deleteIS7_EEEEEJPS4_RKNS_12placeholders4__phILi1EEEEEENS_9allocatorISJ_EEFvSA_EE7destroyEv, symObjAddr: 0x8EC, symBinAddr: 0x57CC, symSize: 0x4 }
  - { offsetInCU: 0x2616E, offset: 0x68276, size: 0x8, addend: 0x0, symName: __ZNSt3__110__function6__funcINS_6__bindIMN12_GLOBAL__N_115BinderConnectorEFvNS_10unique_ptrIN11grpc_binder6BinderENS_14default_deleteIS7_EEEEEJPS4_RKNS_12placeholders4__phILi1EEEEEENS_9allocatorISJ_EEFvSA_EE18destroy_deallocateEv, symObjAddr: 0x8F0, symBinAddr: 0x57D0, symSize: 0x4 }
  - { offsetInCU: 0x261A5, offset: 0x682AD, size: 0x8, addend: 0x0, symName: __ZNSt3__110__function6__funcINS_6__bindIMN12_GLOBAL__N_115BinderConnectorEFvNS_10unique_ptrIN11grpc_binder6BinderENS_14default_deleteIS7_EEEEEJPS4_RKNS_12placeholders4__phILi1EEEEEENS_9allocatorISJ_EEFvSA_EE18destroy_deallocateEv, symObjAddr: 0x8F0, symBinAddr: 0x57D0, symSize: 0x4 }
  - { offsetInCU: 0x261C9, offset: 0x682D1, size: 0x8, addend: 0x0, symName: __ZNSt3__110__function6__funcINS_6__bindIMN12_GLOBAL__N_115BinderConnectorEFvNS_10unique_ptrIN11grpc_binder6BinderENS_14default_deleteIS7_EEEEEJPS4_RKNS_12placeholders4__phILi1EEEEEENS_9allocatorISJ_EEFvSA_EE18destroy_deallocateEv, symObjAddr: 0x8F0, symBinAddr: 0x57D0, symSize: 0x4 }
  - { offsetInCU: 0x261F5, offset: 0x682FD, size: 0x8, addend: 0x0, symName: __ZNSt3__110__function6__funcINS_6__bindIMN12_GLOBAL__N_115BinderConnectorEFvNS_10unique_ptrIN11grpc_binder6BinderENS_14default_deleteIS7_EEEEEJPS4_RKNS_12placeholders4__phILi1EEEEEENS_9allocatorISJ_EEFvSA_EE18destroy_deallocateEv, symObjAddr: 0x8F0, symBinAddr: 0x57D0, symSize: 0x4 }
  - { offsetInCU: 0x2621C, offset: 0x68324, size: 0x8, addend: 0x0, symName: __ZNSt3__110__function6__funcINS_6__bindIMN12_GLOBAL__N_115BinderConnectorEFvNS_10unique_ptrIN11grpc_binder6BinderENS_14default_deleteIS7_EEEEEJPS4_RKNS_12placeholders4__phILi1EEEEEENS_9allocatorISJ_EEFvSA_EE18destroy_deallocateEv, symObjAddr: 0x8F0, symBinAddr: 0x57D0, symSize: 0x4 }
  - { offsetInCU: 0x262D3, offset: 0x683DB, size: 0x8, addend: 0x0, symName: __ZNSt3__110__function6__funcINS_6__bindIMN12_GLOBAL__N_115BinderConnectorEFvNS_10unique_ptrIN11grpc_binder6BinderENS_14default_deleteIS7_EEEEEJPS4_RKNS_12placeholders4__phILi1EEEEEENS_9allocatorISJ_EEFvSA_EEclEOSA_, symObjAddr: 0x8F4, symBinAddr: 0x57D4, symSize: 0x88 }
  - { offsetInCU: 0x265DD, offset: 0x686E5, size: 0x8, addend: 0x0, symName: __ZNKSt3__110__function6__funcINS_6__bindIMN12_GLOBAL__N_115BinderConnectorEFvNS_10unique_ptrIN11grpc_binder6BinderENS_14default_deleteIS7_EEEEEJPS4_RKNS_12placeholders4__phILi1EEEEEENS_9allocatorISJ_EEFvSA_EE6targetERKSt9type_info, symObjAddr: 0x97C, symBinAddr: 0x585C, symSize: 0x3C }
  - { offsetInCU: 0x2662D, offset: 0x68735, size: 0x8, addend: 0x0, symName: __ZNKSt9type_infoeqB7v160006ERKS_, symObjAddr: 0x9C4, symBinAddr: 0x58A4, symSize: 0x48 }
  - { offsetInCU: 0x266BB, offset: 0x687C3, size: 0x8, addend: 0x0, symName: __ZNKSt3__110__function6__funcINS_6__bindIMN12_GLOBAL__N_115BinderConnectorEFvNS_10unique_ptrIN11grpc_binder6BinderENS_14default_deleteIS7_EEEEEJPS4_RKNS_12placeholders4__phILi1EEEEEENS_9allocatorISJ_EEFvSA_EE11target_typeEv, symObjAddr: 0x9B8, symBinAddr: 0x5898, symSize: 0xC }
  - { offsetInCU: 0x26716, offset: 0x6881E, size: 0x8, addend: 0x0, symName: _OUTLINED_FUNCTION_0, symObjAddr: 0xBAC, symBinAddr: 0x58EC, symSize: 0x8 }
  - { offsetInCU: 0x33, offset: 0x688A3, size: 0x8, addend: 0x0, symName: _FIRST_CALL_TRANSACTION, symObjAddr: 0x0, symBinAddr: 0x4D4E4, symSize: 0x0 }
  - { offsetInCU: 0x54, offset: 0x688C4, size: 0x8, addend: 0x0, symName: _LAST_CALL_TRANSACTION, symObjAddr: 0x4, symBinAddr: 0x4D4E8, symSize: 0x0 }
  - { offsetInCU: 0x6E, offset: 0x688DE, size: 0x8, addend: 0x0, symName: __ZN11grpc_binder12kFirstCallIdE, symObjAddr: 0x8, symBinAddr: 0x4D4EC, symSize: 0x0 }
  - { offsetInCU: 0x26, offset: 0x68A45, size: 0x8, addend: 0x0, symName: __ZN4grpc12experimental6binder23UntrustedSecurityPolicyC2Ev, symObjAddr: 0x0, symBinAddr: 0x58F4, symSize: 0x10 }
  - { offsetInCU: 0x18DC, offset: 0x6A2FB, size: 0x8, addend: 0x0, symName: __ZN4grpc12experimental6binder23UntrustedSecurityPolicyC2Ev, symObjAddr: 0x0, symBinAddr: 0x58F4, symSize: 0x10 }
  - { offsetInCU: 0x191D, offset: 0x6A33C, size: 0x8, addend: 0x0, symName: __ZN4grpc12experimental6binder23UntrustedSecurityPolicyC1Ev, symObjAddr: 0x10, symBinAddr: 0x5904, symSize: 0x10 }
  - { offsetInCU: 0x194B, offset: 0x6A36A, size: 0x8, addend: 0x0, symName: __ZN4grpc12experimental6binder23UntrustedSecurityPolicyC1Ev, symObjAddr: 0x10, symBinAddr: 0x5904, symSize: 0x10 }
  - { offsetInCU: 0x1964, offset: 0x6A383, size: 0x8, addend: 0x0, symName: __ZN4grpc12experimental6binder23UntrustedSecurityPolicyD2Ev, symObjAddr: 0x20, symBinAddr: 0x5914, symSize: 0x4 }
  - { offsetInCU: 0x198F, offset: 0x6A3AE, size: 0x8, addend: 0x0, symName: __ZN4grpc12experimental6binder23UntrustedSecurityPolicyD1Ev, symObjAddr: 0x24, symBinAddr: 0x5918, symSize: 0x4 }
  - { offsetInCU: 0x19BA, offset: 0x6A3D9, size: 0x8, addend: 0x0, symName: __ZN4grpc12experimental6binder23UntrustedSecurityPolicyD0Ev, symObjAddr: 0x28, symBinAddr: 0x591C, symSize: 0x4 }
  - { offsetInCU: 0x19E5, offset: 0x6A404, size: 0x8, addend: 0x0, symName: __ZN4grpc12experimental6binder23UntrustedSecurityPolicy12IsAuthorizedEi, symObjAddr: 0x2C, symBinAddr: 0x5920, symSize: 0x8 }
  - { offsetInCU: 0x1A17, offset: 0x6A436, size: 0x8, addend: 0x0, symName: __ZN4grpc12experimental6binder26InternalOnlySecurityPolicyC2Ev, symObjAddr: 0x34, symBinAddr: 0x5928, symSize: 0x10 }
  - { offsetInCU: 0x1A58, offset: 0x6A477, size: 0x8, addend: 0x0, symName: __ZN4grpc12experimental6binder26InternalOnlySecurityPolicyC1Ev, symObjAddr: 0x44, symBinAddr: 0x5938, symSize: 0x10 }
  - { offsetInCU: 0x1A86, offset: 0x6A4A5, size: 0x8, addend: 0x0, symName: __ZN4grpc12experimental6binder26InternalOnlySecurityPolicyC1Ev, symObjAddr: 0x44, symBinAddr: 0x5938, symSize: 0x10 }
  - { offsetInCU: 0x1A9F, offset: 0x6A4BE, size: 0x8, addend: 0x0, symName: __ZN4grpc12experimental6binder26InternalOnlySecurityPolicyD2Ev, symObjAddr: 0x54, symBinAddr: 0x5948, symSize: 0x4 }
  - { offsetInCU: 0x1ACA, offset: 0x6A4E9, size: 0x8, addend: 0x0, symName: __ZN4grpc12experimental6binder26InternalOnlySecurityPolicyD1Ev, symObjAddr: 0x58, symBinAddr: 0x594C, symSize: 0x4 }
  - { offsetInCU: 0x1AF5, offset: 0x6A514, size: 0x8, addend: 0x0, symName: __ZN4grpc12experimental6binder26InternalOnlySecurityPolicyD0Ev, symObjAddr: 0x5C, symBinAddr: 0x5950, symSize: 0x4 }
  - { offsetInCU: 0x1B20, offset: 0x6A53F, size: 0x8, addend: 0x0, symName: __ZN4grpc12experimental6binder26InternalOnlySecurityPolicy12IsAuthorizedEi, symObjAddr: 0x60, symBinAddr: 0x5954, symSize: 0x8 }
  - { offsetInCU: 0x48, offset: 0x6A5B4, size: 0x8, addend: 0x0, symName: __ZN12_GLOBAL__N_118GetBinderPoolMutexEv, symObjAddr: 0x1CC, symBinAddr: 0x5B28, symSize: 0x8C }
  - { offsetInCU: 0x72, offset: 0x6A5DE, size: 0x8, addend: 0x0, symName: __ZZN12_GLOBAL__N_118GetBinderPoolMutexEvE2mu, symObjAddr: 0x115728, symBinAddr: 0x68BE8, symSize: 0x0 }
  - { offsetInCU: 0x206B, offset: 0x6C5D7, size: 0x8, addend: 0x0, symName: __ZN9grpc_core13AddBinderPortERKNSt3__112basic_stringIcNS0_11char_traitsIcEENS0_9allocatorIcEEEEP11grpc_serverNS0_8functionIFNS0_10unique_ptrIN11grpc_binder19TransactionReceiverENS0_14default_deleteISE_EEEENSB_IFN4absl12lts_202111026StatusEjPNSD_14ReadableParcelEiEEEEEENS0_10shared_ptrIN4grpc12experimental6binder14SecurityPolicyEEE, symObjAddr: 0x3AC, symBinAddr: 0x5D08, symSize: 0x328 }
  - { offsetInCU: 0x3084, offset: 0x6D5F0, size: 0x8, addend: 0x0, symName: __ZL22g_endpoint_binder_pool, symObjAddr: 0x115720, symBinAddr: 0x68BE0, symSize: 0x0 }
  - { offsetInCU: 0x4529, offset: 0x6EA95, size: 0x8, addend: 0x0, symName: __ZN4absl12lts_2021110218container_internal10DeallocateILm8ENSt3__19allocatorINS3_4pairIKNS3_12basic_stringIcNS3_11char_traitsIcEENS4_IcEEEEPvEEEEEEvPT0_SC_m, symObjAddr: 0x1EC4, symBinAddr: 0x75F8, symSize: 0x18 }
  - { offsetInCU: 0x4627, offset: 0x6EB93, size: 0x8, addend: 0x0, symName: __ZN4absl12lts_2021110218container_internal8AllocateILm8ENSt3__19allocatorINS3_4pairIKNS3_12basic_stringIcNS3_11char_traitsIcEENS4_IcEEEEPvEEEEEESC_PT0_m, symObjAddr: 0x1EDC, symBinAddr: 0x7610, symSize: 0x30 }
  - { offsetInCU: 0x476A, offset: 0x6ECD6, size: 0x8, addend: 0x0, symName: __ZN4absl12lts_2021110218container_internaleqERKNS1_12raw_hash_setINS1_17FlatHashMapPolicyINSt3__112basic_stringIcNS4_11char_traitsIcEENS4_9allocatorIcEEEEPvEENS1_10StringHashENS1_8StringEqENS8_INS4_4pairIKSA_SB_EEEEE8iteratorESM_, symObjAddr: 0x36C, symBinAddr: 0x5CC8, symSize: 0x40 }
  - { offsetInCU: 0x481A, offset: 0x6ED86, size: 0x8, addend: 0x0, symName: __ZN9grpc_core13AddBinderPortERKNSt3__112basic_stringIcNS0_11char_traitsIcEENS0_9allocatorIcEEEEP11grpc_serverNS0_8functionIFNS0_10unique_ptrIN11grpc_binder19TransactionReceiverENS0_14default_deleteISE_EEEENSB_IFN4absl12lts_202111026StatusEjPNSD_14ReadableParcelEiEEEEEENS0_10shared_ptrIN4grpc12experimental6binder14SecurityPolicyEEE, symObjAddr: 0x3AC, symBinAddr: 0x5D08, symSize: 0x328 }
  - { offsetInCU: 0x4E5D, offset: 0x6F3C9, size: 0x8, addend: 0x0, symName: __ZN4absl12lts_2021110218container_internal8AllocateILm8ENSt3__19allocatorINS3_4pairIKNS3_12basic_stringIcNS3_11char_traitsIcEENS4_IcEEEEPvEEEEEESC_PT0_m, symObjAddr: 0x1EDC, symBinAddr: 0x7610, symSize: 0x30 }
  - { offsetInCU: 0x4F36, offset: 0x6F4A2, size: 0x8, addend: 0x0, symName: __ZN4absl12lts_2021110218container_internal12raw_hash_setINS1_17FlatHashMapPolicyINSt3__112basic_stringIcNS4_11char_traitsIcEENS4_9allocatorIcEEEEPvEENS1_10StringHashENS1_8StringEqENS8_INS4_4pairIKSA_SB_EEEEE17reset_growth_leftEv, symObjAddr: 0x1F0C, symBinAddr: 0x7640, symSize: 0x48 }
  - { offsetInCU: 0x819B, offset: 0x72707, size: 0x8, addend: 0x0, symName: __ZNSt3__1L19piecewise_constructE, symObjAddr: 0x346E, symBinAddr: 0x4D70D, symSize: 0x0 }
  - { offsetInCU: 0x17D63, offset: 0x822CF, size: 0x8, addend: 0x0, symName: __ZNSt3__120__throw_length_errorB7v160006EPKc, symObjAddr: 0x11B0, symBinAddr: 0x68E4, symSize: 0x50 }
  - { offsetInCU: 0x180C1, offset: 0x8262D, size: 0x8, addend: 0x0, symName: __ZNSt3__120__throw_out_of_rangeB7v160006EPKc, symObjAddr: 0x231C, symBinAddr: 0x79F8, symSize: 0x50 }
  - { offsetInCU: 0x1AC74, offset: 0x851E0, size: 0x8, addend: 0x0, symName: __ZN4grpc12experimental6binder17GetEndpointBinderERKNSt3__112basic_stringIcNS2_11char_traitsIcEENS2_9allocatorIcEEEE, symObjAddr: 0x0, symBinAddr: 0x595C, symSize: 0x4 }
  - { offsetInCU: 0x1ACA4, offset: 0x85210, size: 0x8, addend: 0x0, symName: __ZN4grpc12experimental6binder17GetEndpointBinderERKNSt3__112basic_stringIcNS2_11char_traitsIcEENS2_9allocatorIcEEEE, symObjAddr: 0x0, symBinAddr: 0x595C, symSize: 0x4 }
  - { offsetInCU: 0x1ACB8, offset: 0x85224, size: 0x8, addend: 0x0, symName: __ZN4grpc12experimental6binder17AddEndpointBinderERKNSt3__112basic_stringIcNS2_11char_traitsIcEENS2_9allocatorIcEEEEPv, symObjAddr: 0xD0, symBinAddr: 0x5A2C, symSize: 0x4 }
  - { offsetInCU: 0x1ACF2, offset: 0x8525E, size: 0x8, addend: 0x0, symName: __ZN4grpc12experimental6binder17AddEndpointBinderERKNSt3__112basic_stringIcNS2_11char_traitsIcEENS2_9allocatorIcEEEEPv, symObjAddr: 0xD0, symBinAddr: 0x5A2C, symSize: 0x4 }
  - { offsetInCU: 0x1AD0E, offset: 0x8527A, size: 0x8, addend: 0x0, symName: __ZN4grpc12experimental6binder20RemoveEndpointBinderERKNSt3__112basic_stringIcNS2_11char_traitsIcEENS2_9allocatorIcEEEE, symObjAddr: 0x168, symBinAddr: 0x5AC4, symSize: 0x4 }
  - { offsetInCU: 0x1AD3A, offset: 0x852A6, size: 0x8, addend: 0x0, symName: __ZN4grpc12experimental6binder20RemoveEndpointBinderERKNSt3__112basic_stringIcNS2_11char_traitsIcEENS2_9allocatorIcEEEE, symObjAddr: 0x168, symBinAddr: 0x5AC4, symSize: 0x4 }
  - { offsetInCU: 0x1AD76, offset: 0x852E2, size: 0x8, addend: 0x0, symName: __ZN9grpc_core20BinderServerListener5StartEPNS_6ServerEPKNSt3__16vectorIP12grpc_pollsetNS3_9allocatorIS6_EEEE, symObjAddr: 0x70C, symBinAddr: 0x605C, symSize: 0x14C }
  - { offsetInCU: 0x1D419, offset: 0x87985, size: 0x8, addend: 0x0, symName: __Z24grpc_get_endpoint_binderRKNSt3__112basic_stringIcNS_11char_traitsIcEENS_9allocatorIcEEEE, symObjAddr: 0x4, symBinAddr: 0x5960, symSize: 0xCC }
  - { offsetInCU: 0x1D758, offset: 0x87CC4, size: 0x8, addend: 0x0, symName: __ZN4absl12lts_2021110218container_internal12raw_hash_setINS1_17FlatHashMapPolicyINSt3__112basic_stringIcNS4_11char_traitsIcEENS4_9allocatorIcEEEEPvEENS1_10StringHashENS1_8StringEqENS8_INS4_4pairIKSA_SB_EEEEE4findISA_EENSJ_8iteratorERKT_, symObjAddr: 0x2EC, symBinAddr: 0x5C48, symSize: 0x80 }
  - { offsetInCU: 0x1DAAB, offset: 0x88017, size: 0x8, addend: 0x0, symName: __Z24grpc_add_endpoint_binderRKNSt3__112basic_stringIcNS_11char_traitsIcEENS_9allocatorIcEEEEPv, symObjAddr: 0xD4, symBinAddr: 0x5A30, symSize: 0x94 }
  - { offsetInCU: 0x1DD0F, offset: 0x8827B, size: 0x8, addend: 0x0, symName: __ZN4absl12lts_2021110218container_internal12raw_hash_mapINS1_17FlatHashMapPolicyINSt3__112basic_stringIcNS4_11char_traitsIcEENS4_9allocatorIcEEEEPvEENS1_10StringHashENS1_8StringEqENS8_INS4_4pairIKSA_SB_EEEEEixISA_SC_EEDTclsrT0_5valueclL_ZNS4_9addressofB7v160006ISH_EEPT_RSN_EclL_ZNS4_7declvalIRSH_EEDTclsr3stdE9__declvalISN_ELi0EEEvEEEEERKSN_, symObjAddr: 0x258, symBinAddr: 0x5BB4, symSize: 0x3C }
  - { offsetInCU: 0x1DDF3, offset: 0x8835F, size: 0x8, addend: 0x0, symName: __ZN4absl12lts_2021110218container_internal12raw_hash_setINS1_17FlatHashMapPolicyINSt3__112basic_stringIcNS4_11char_traitsIcEENS4_9allocatorIcEEEEPvEENS1_10StringHashENS1_8StringEqENS8_INS4_4pairIKSA_SB_EEEEE5eraseISA_EEmRKT_, symObjAddr: 0x294, symBinAddr: 0x5BF0, symSize: 0x58 }
  - { offsetInCU: 0x1DE10, offset: 0x8837C, size: 0x8, addend: 0x0, symName: __Z27grpc_remove_endpoint_binderRKNSt3__112basic_stringIcNS_11char_traitsIcEENS_9allocatorIcEEEE, symObjAddr: 0x16C, symBinAddr: 0x5AC8, symSize: 0x60 }
  - { offsetInCU: 0x1DF7C, offset: 0x884E8, size: 0x8, addend: 0x0, symName: __ZN4absl12lts_2021110218container_internal12raw_hash_setINS1_17FlatHashMapPolicyINSt3__112basic_stringIcNS4_11char_traitsIcEENS4_9allocatorIcEEEEPvEENS1_10StringHashENS1_8StringEqENS8_INS4_4pairIKSA_SB_EEEEE5eraseISA_EEmRKT_, symObjAddr: 0x294, symBinAddr: 0x5BF0, symSize: 0x58 }
  - { offsetInCU: 0x1E0AC, offset: 0x88618, size: 0x8, addend: 0x0, symName: __ZN4absl12lts_2021110218container_internal12raw_hash_mapINS1_17FlatHashMapPolicyINSt3__112basic_stringIcNS4_11char_traitsIcEENS4_9allocatorIcEEEEPvEENS1_10StringHashENS1_8StringEqENS8_INS4_4pairIKSA_SB_EEEEE16try_emplace_implIRSG_JEEENSF_INS1_12raw_hash_setISC_SD_SE_SI_E8iteratorEbEEOT_DpOT0_, symObjAddr: 0x1224, symBinAddr: 0x6958, symSize: 0x90 }
  - { offsetInCU: 0x1E1D6, offset: 0x88742, size: 0x8, addend: 0x0, symName: __ZN4absl12lts_2021110218container_internal12raw_hash_setINS1_17FlatHashMapPolicyINSt3__112basic_stringIcNS4_11char_traitsIcEENS4_9allocatorIcEEEEPvEENS1_10StringHashENS1_8StringEqENS8_INS4_4pairIKSA_SB_EEEEE22find_or_prepare_insertISA_EENSF_ImbEERKT_, symObjAddr: 0x12B4, symBinAddr: 0x69E8, symSize: 0x1A8 }
  - { offsetInCU: 0x1E1F1, offset: 0x8875D, size: 0x8, addend: 0x0, symName: __ZN4absl12lts_2021110218container_internal12raw_hash_mapINS1_17FlatHashMapPolicyINSt3__112basic_stringIcNS4_11char_traitsIcEENS4_9allocatorIcEEEEPvEENS1_10StringHashENS1_8StringEqENS8_INS4_4pairIKSA_SB_EEEEEixISA_SC_EEDTclsrT0_5valueclL_ZNS4_9addressofB7v160006ISH_EEPT_RSN_EclL_ZNS4_7declvalIRSH_EEDTclsr3stdE9__declvalISN_ELi0EEEvEEEEERKSN_.cold.1, symObjAddr: 0x2390, symBinAddr: 0x47AEC, symSize: 0x24 }
  - { offsetInCU: 0x1E24C, offset: 0x887B8, size: 0x8, addend: 0x0, symName: __ZN4absl12lts_2021110218container_internal12raw_hash_setINS1_17FlatHashMapPolicyINSt3__112basic_stringIcNS4_11char_traitsIcEENS4_9allocatorIcEEEEPvEENS1_10StringHashENS1_8StringEqENS8_INS4_4pairIKSA_SB_EEEEE5eraseENSJ_8iteratorE, symObjAddr: 0x212C, symBinAddr: 0x7860, symSize: 0x58 }
  - { offsetInCU: 0x1E4EB, offset: 0x88A57, size: 0x8, addend: 0x0, symName: __ZN4absl12lts_2021110218container_internal12raw_hash_setINS1_17FlatHashMapPolicyINSt3__112basic_stringIcNS4_11char_traitsIcEENS4_9allocatorIcEEEEPvEENS1_10StringHashENS1_8StringEqENS8_INS4_4pairIKSA_SB_EEEEE15erase_meta_onlyENSJ_14const_iteratorE, symObjAddr: 0x2184, symBinAddr: 0x78B8, symSize: 0xC8 }
  - { offsetInCU: 0x1E80B, offset: 0x88D77, size: 0x8, addend: 0x0, symName: __ZN4absl12lts_2021110213hash_internal15MixingHashState18combine_contiguousES2_PKhm, symObjAddr: 0x1688, symBinAddr: 0x6DBC, symSize: 0xFC }
  - { offsetInCU: 0x1EA26, offset: 0x88F92, size: 0x8, addend: 0x0, symName: __ZN4absl12lts_2021110218container_internal12raw_hash_setINS1_17FlatHashMapPolicyINSt3__112basic_stringIcNS4_11char_traitsIcEENS4_9allocatorIcEEEEPvEENS1_10StringHashENS1_8StringEqENS8_INS4_4pairIKSA_SB_EEEEE4findISA_EENSJ_8iteratorERKT_m, symObjAddr: 0x1FD4, symBinAddr: 0x7708, symSize: 0x158 }
  - { offsetInCU: 0x1EE59, offset: 0x893C5, size: 0x8, addend: 0x0, symName: __ZN4absl12lts_2021110218container_internal12raw_hash_setINS1_17FlatHashMapPolicyINSt3__112basic_stringIcNS4_11char_traitsIcEENS4_9allocatorIcEEEEPvEENS1_10StringHashENS1_8StringEqENS8_INS4_4pairIKSA_SB_EEEEE5eraseENSJ_8iteratorE, symObjAddr: 0x212C, symBinAddr: 0x7860, symSize: 0x58 }
  - { offsetInCU: 0x1EE97, offset: 0x89403, size: 0x8, addend: 0x0, symName: __ZN4absl12lts_2021110218container_internaleqERKNS1_12raw_hash_setINS1_17FlatHashMapPolicyINSt3__112basic_stringIcNS4_11char_traitsIcEENS4_9allocatorIcEEEEPvEENS1_10StringHashENS1_8StringEqENS8_INS4_4pairIKSA_SB_EEEEE8iteratorESM_.cold.2, symObjAddr: 0x23DC, symBinAddr: 0x47B38, symSize: 0x28 }
  - { offsetInCU: 0x1EEDD, offset: 0x89449, size: 0x8, addend: 0x0, symName: __ZN4absl12lts_2021110218container_internaleqERKNS1_12raw_hash_setINS1_17FlatHashMapPolicyINSt3__112basic_stringIcNS4_11char_traitsIcEENS4_9allocatorIcEEEEPvEENS1_10StringHashENS1_8StringEqENS8_INS4_4pairIKSA_SB_EEEEE8iteratorESM_.cold.1, symObjAddr: 0x23B4, symBinAddr: 0x47B10, symSize: 0x28 }
  - { offsetInCU: 0x1F6CA, offset: 0x89C36, size: 0x8, addend: 0x0, symName: __ZNSt3__112basic_stringIcNS_11char_traitsIcEENS_9allocatorIcEEEC2B7v160006IDnEEPKc, symObjAddr: 0x1100, symBinAddr: 0x6834, symSize: 0x9C }
  - { offsetInCU: 0x1FA39, offset: 0x89FA5, size: 0x8, addend: 0x0, symName: __ZNKSt3__112basic_stringIcNS_11char_traitsIcEENS_9allocatorIcEEE20__throw_length_errorB7v160006Ev, symObjAddr: 0x119C, symBinAddr: 0x68D0, symSize: 0x14 }
  - { offsetInCU: 0x1FA52, offset: 0x89FBE, size: 0x8, addend: 0x0, symName: __ZNSt3__110__function12__value_funcIFNS_10unique_ptrIN11grpc_binder19TransactionReceiverENS_14default_deleteIS4_EEEENS_8functionIFN4absl12lts_202111026StatusEjPNS3_14ReadableParcelEiEEEEEC2B7v160006EOSH_, symObjAddr: 0x224C, symBinAddr: 0x7980, symSize: 0x64 }
  - { offsetInCU: 0x1FAA0, offset: 0x8A00C, size: 0x8, addend: 0x0, symName: __ZNKSt3__112basic_stringIcNS_11char_traitsIcEENS_9allocatorIcEEE20__throw_out_of_rangeB7v160006Ev, symObjAddr: 0x2308, symBinAddr: 0x79E4, symSize: 0x14 }
  - { offsetInCU: 0x1FAC8, offset: 0x8A034, size: 0x8, addend: 0x0, symName: __ZNSt3__120__throw_out_of_rangeB7v160006EPKc, symObjAddr: 0x231C, symBinAddr: 0x79F8, symSize: 0x50 }
  - { offsetInCU: 0x1FAD4, offset: 0x8A040, size: 0x8, addend: 0x0, symName: __ZN9grpc_core13AddBinderPortERKNSt3__112basic_stringIcNS0_11char_traitsIcEENS0_9allocatorIcEEEEP11grpc_serverNS0_8functionIFNS0_10unique_ptrIN11grpc_binder19TransactionReceiverENS0_14default_deleteISE_EEEENSB_IFN4absl12lts_202111026StatusEjPNSD_14ReadableParcelEiEEEEEENS0_10shared_ptrIN4grpc12experimental6binder14SecurityPolicyEEE.cold.1, symObjAddr: 0x2404, symBinAddr: 0x47B60, symSize: 0x88 }
  - { offsetInCU: 0x1FC4E, offset: 0x8A1BA, size: 0x8, addend: 0x0, symName: __ZN9grpc_core20BinderServerListener6OrphanEv, symObjAddr: 0x6E0, symBinAddr: 0x6030, symSize: 0x14 }
  - { offsetInCU: 0x1FC7F, offset: 0x8A1EB, size: 0x8, addend: 0x0, symName: __ZN9grpc_core20BinderServerListenerD1Ev, symObjAddr: 0x6F4, symBinAddr: 0x6044, symSize: 0x4 }
  - { offsetInCU: 0x1FCA2, offset: 0x8A20E, size: 0x8, addend: 0x0, symName: __ZN9grpc_core20BinderServerListenerD1Ev, symObjAddr: 0x6F4, symBinAddr: 0x6044, symSize: 0x4 }
  - { offsetInCU: 0x1FCB6, offset: 0x8A222, size: 0x8, addend: 0x0, symName: __ZN9grpc_core20BinderServerListenerD2Ev, symObjAddr: 0x868, symBinAddr: 0x61B8, symSize: 0xE8 }
  - { offsetInCU: 0x20009, offset: 0x8A575, size: 0x8, addend: 0x0, symName: __ZN9grpc_core20BinderServerListenerD0Ev, symObjAddr: 0x6F8, symBinAddr: 0x6048, symSize: 0x14 }
  - { offsetInCU: 0x203EF, offset: 0x8A95B, size: 0x8, addend: 0x0, symName: __ZNK9grpc_core20BinderServerListener27channelz_listen_socket_nodeEv, symObjAddr: 0x858, symBinAddr: 0x61A8, symSize: 0x8 }
  - { offsetInCU: 0x20415, offset: 0x8A981, size: 0x8, addend: 0x0, symName: __ZN9grpc_core20BinderServerListener16SetOnDestroyDoneEP12grpc_closure, symObjAddr: 0x860, symBinAddr: 0x61B0, symSize: 0x8 }
  - { offsetInCU: 0x20553, offset: 0x8AABF, size: 0x8, addend: 0x0, symName: __ZNSt3__110__function6__funcIZN9grpc_core20BinderServerListener5StartEPNS2_6ServerEPKNS_6vectorIP12grpc_pollsetNS_9allocatorIS8_EEEEEUljPN11grpc_binder14ReadableParcelEiE_NS9_ISH_EEFN4absl12lts_202111026StatusEjSG_iEED1Ev, symObjAddr: 0x99C, symBinAddr: 0x62A0, symSize: 0x4 }
  - { offsetInCU: 0x2057F, offset: 0x8AAEB, size: 0x8, addend: 0x0, symName: __ZNSt3__110__function6__funcIZN9grpc_core20BinderServerListener5StartEPNS2_6ServerEPKNS_6vectorIP12grpc_pollsetNS_9allocatorIS8_EEEEEUljPN11grpc_binder14ReadableParcelEiE_NS9_ISH_EEFN4absl12lts_202111026StatusEjSG_iEED0Ev, symObjAddr: 0x9A0, symBinAddr: 0x62A4, symSize: 0x4 }
  - { offsetInCU: 0x20793, offset: 0x8ACFF, size: 0x8, addend: 0x0, symName: __ZNKSt3__110__function6__funcIZN9grpc_core20BinderServerListener5StartEPNS2_6ServerEPKNS_6vectorIP12grpc_pollsetNS_9allocatorIS8_EEEEEUljPN11grpc_binder14ReadableParcelEiE_NS9_ISH_EEFN4absl12lts_202111026StatusEjSG_iEE7__cloneEv, symObjAddr: 0x9A4, symBinAddr: 0x62A8, symSize: 0x34 }
  - { offsetInCU: 0x20A9E, offset: 0x8B00A, size: 0x8, addend: 0x0, symName: __ZNKSt3__110__function6__funcIZN9grpc_core20BinderServerListener5StartEPNS2_6ServerEPKNS_6vectorIP12grpc_pollsetNS_9allocatorIS8_EEEEEUljPN11grpc_binder14ReadableParcelEiE_NS9_ISH_EEFN4absl12lts_202111026StatusEjSG_iEE7__cloneEPNS0_6__baseISM_EE, symObjAddr: 0x9D8, symBinAddr: 0x62DC, symSize: 0x14 }
  - { offsetInCU: 0x20AD6, offset: 0x8B042, size: 0x8, addend: 0x0, symName: __ZNKSt3__110__function6__funcIZN9grpc_core20BinderServerListener5StartEPNS2_6ServerEPKNS_6vectorIP12grpc_pollsetNS_9allocatorIS8_EEEEEUljPN11grpc_binder14ReadableParcelEiE_NS9_ISH_EEFN4absl12lts_202111026StatusEjSG_iEE7__cloneEPNS0_6__baseISM_EE, symObjAddr: 0x9D8, symBinAddr: 0x62DC, symSize: 0x14 }
  - { offsetInCU: 0x20B05, offset: 0x8B071, size: 0x8, addend: 0x0, symName: __ZNKSt3__110__function6__funcIZN9grpc_core20BinderServerListener5StartEPNS2_6ServerEPKNS_6vectorIP12grpc_pollsetNS_9allocatorIS8_EEEEEUljPN11grpc_binder14ReadableParcelEiE_NS9_ISH_EEFN4absl12lts_202111026StatusEjSG_iEE7__cloneEPNS0_6__baseISM_EE, symObjAddr: 0x9D8, symBinAddr: 0x62DC, symSize: 0x14 }
  - { offsetInCU: 0x20B34, offset: 0x8B0A0, size: 0x8, addend: 0x0, symName: __ZNKSt3__110__function6__funcIZN9grpc_core20BinderServerListener5StartEPNS2_6ServerEPKNS_6vectorIP12grpc_pollsetNS_9allocatorIS8_EEEEEUljPN11grpc_binder14ReadableParcelEiE_NS9_ISH_EEFN4absl12lts_202111026StatusEjSG_iEE7__cloneEPNS0_6__baseISM_EE, symObjAddr: 0x9D8, symBinAddr: 0x62DC, symSize: 0x14 }
  - { offsetInCU: 0x20B4A, offset: 0x8B0B6, size: 0x8, addend: 0x0, symName: __ZNKSt3__110__function6__funcIZN9grpc_core20BinderServerListener5StartEPNS2_6ServerEPKNS_6vectorIP12grpc_pollsetNS_9allocatorIS8_EEEEEUljPN11grpc_binder14ReadableParcelEiE_NS9_ISH_EEFN4absl12lts_202111026StatusEjSG_iEE7__cloneEPNS0_6__baseISM_EE, symObjAddr: 0x9D8, symBinAddr: 0x62DC, symSize: 0x14 }
  - { offsetInCU: 0x20B5E, offset: 0x8B0CA, size: 0x8, addend: 0x0, symName: __ZNKSt3__110__function6__funcIZN9grpc_core20BinderServerListener5StartEPNS2_6ServerEPKNS_6vectorIP12grpc_pollsetNS_9allocatorIS8_EEEEEUljPN11grpc_binder14ReadableParcelEiE_NS9_ISH_EEFN4absl12lts_202111026StatusEjSG_iEE7__cloneEPNS0_6__baseISM_EE, symObjAddr: 0x9D8, symBinAddr: 0x62DC, symSize: 0x14 }
  - { offsetInCU: 0x20B72, offset: 0x8B0DE, size: 0x8, addend: 0x0, symName: __ZNKSt3__110__function6__funcIZN9grpc_core20BinderServerListener5StartEPNS2_6ServerEPKNS_6vectorIP12grpc_pollsetNS_9allocatorIS8_EEEEEUljPN11grpc_binder14ReadableParcelEiE_NS9_ISH_EEFN4absl12lts_202111026StatusEjSG_iEE7__cloneEPNS0_6__baseISM_EE, symObjAddr: 0x9D8, symBinAddr: 0x62DC, symSize: 0x14 }
  - { offsetInCU: 0x20B86, offset: 0x8B0F2, size: 0x8, addend: 0x0, symName: __ZNKSt3__110__function6__funcIZN9grpc_core20BinderServerListener5StartEPNS2_6ServerEPKNS_6vectorIP12grpc_pollsetNS_9allocatorIS8_EEEEEUljPN11grpc_binder14ReadableParcelEiE_NS9_ISH_EEFN4absl12lts_202111026StatusEjSG_iEE7__cloneEPNS0_6__baseISM_EE, symObjAddr: 0x9D8, symBinAddr: 0x62DC, symSize: 0x14 }
  - { offsetInCU: 0x20B9F, offset: 0x8B10B, size: 0x8, addend: 0x0, symName: __ZNSt3__110__function6__funcIZN9grpc_core20BinderServerListener5StartEPNS2_6ServerEPKNS_6vectorIP12grpc_pollsetNS_9allocatorIS8_EEEEEUljPN11grpc_binder14ReadableParcelEiE_NS9_ISH_EEFN4absl12lts_202111026StatusEjSG_iEE7destroyEv, symObjAddr: 0x9EC, symBinAddr: 0x62F0, symSize: 0x4 }
  - { offsetInCU: 0x20BF4, offset: 0x8B160, size: 0x8, addend: 0x0, symName: __ZNSt3__110__function6__funcIZN9grpc_core20BinderServerListener5StartEPNS2_6ServerEPKNS_6vectorIP12grpc_pollsetNS_9allocatorIS8_EEEEEUljPN11grpc_binder14ReadableParcelEiE_NS9_ISH_EEFN4absl12lts_202111026StatusEjSG_iEE18destroy_deallocateEv, symObjAddr: 0x9F0, symBinAddr: 0x62F4, symSize: 0x4 }
  - { offsetInCU: 0x20C2A, offset: 0x8B196, size: 0x8, addend: 0x0, symName: __ZNSt3__110__function6__funcIZN9grpc_core20BinderServerListener5StartEPNS2_6ServerEPKNS_6vectorIP12grpc_pollsetNS_9allocatorIS8_EEEEEUljPN11grpc_binder14ReadableParcelEiE_NS9_ISH_EEFN4absl12lts_202111026StatusEjSG_iEE18destroy_deallocateEv, symObjAddr: 0x9F0, symBinAddr: 0x62F4, symSize: 0x4 }
  - { offsetInCU: 0x20C4E, offset: 0x8B1BA, size: 0x8, addend: 0x0, symName: __ZNSt3__110__function6__funcIZN9grpc_core20BinderServerListener5StartEPNS2_6ServerEPKNS_6vectorIP12grpc_pollsetNS_9allocatorIS8_EEEEEUljPN11grpc_binder14ReadableParcelEiE_NS9_ISH_EEFN4absl12lts_202111026StatusEjSG_iEE18destroy_deallocateEv, symObjAddr: 0x9F0, symBinAddr: 0x62F4, symSize: 0x4 }
  - { offsetInCU: 0x20C7A, offset: 0x8B1E6, size: 0x8, addend: 0x0, symName: __ZNSt3__110__function6__funcIZN9grpc_core20BinderServerListener5StartEPNS2_6ServerEPKNS_6vectorIP12grpc_pollsetNS_9allocatorIS8_EEEEEUljPN11grpc_binder14ReadableParcelEiE_NS9_ISH_EEFN4absl12lts_202111026StatusEjSG_iEE18destroy_deallocateEv, symObjAddr: 0x9F0, symBinAddr: 0x62F4, symSize: 0x4 }
  - { offsetInCU: 0x20CA1, offset: 0x8B20D, size: 0x8, addend: 0x0, symName: __ZNSt3__110__function6__funcIZN9grpc_core20BinderServerListener5StartEPNS2_6ServerEPKNS_6vectorIP12grpc_pollsetNS_9allocatorIS8_EEEEEUljPN11grpc_binder14ReadableParcelEiE_NS9_ISH_EEFN4absl12lts_202111026StatusEjSG_iEE18destroy_deallocateEv, symObjAddr: 0x9F0, symBinAddr: 0x62F4, symSize: 0x4 }
  - { offsetInCU: 0x20D9F, offset: 0x8B30B, size: 0x8, addend: 0x0, symName: __ZNSt3__110__function6__funcIZN9grpc_core20BinderServerListener5StartEPNS2_6ServerEPKNS_6vectorIP12grpc_pollsetNS_9allocatorIS8_EEEEEUljPN11grpc_binder14ReadableParcelEiE_NS9_ISH_EEFN4absl12lts_202111026StatusEjSG_iEEclEOjOSG_Oi, symObjAddr: 0x9F4, symBinAddr: 0x62F8, symSize: 0x14 }
  - { offsetInCU: 0x20DFC, offset: 0x8B368, size: 0x8, addend: 0x0, symName: __ZNSt3__110__function6__funcIZN9grpc_core20BinderServerListener5StartEPNS2_6ServerEPKNS_6vectorIP12grpc_pollsetNS_9allocatorIS8_EEEEEUljPN11grpc_binder14ReadableParcelEiE_NS9_ISH_EEFN4absl12lts_202111026StatusEjSG_iEEclEOjOSG_Oi, symObjAddr: 0x9F4, symBinAddr: 0x62F8, symSize: 0x14 }
  - { offsetInCU: 0x20E3A, offset: 0x8B3A6, size: 0x8, addend: 0x0, symName: __ZNSt3__110__function6__funcIZN9grpc_core20BinderServerListener5StartEPNS2_6ServerEPKNS_6vectorIP12grpc_pollsetNS_9allocatorIS8_EEEEEUljPN11grpc_binder14ReadableParcelEiE_NS9_ISH_EEFN4absl12lts_202111026StatusEjSG_iEEclEOjOSG_Oi, symObjAddr: 0x9F4, symBinAddr: 0x62F8, symSize: 0x14 }
  - { offsetInCU: 0x20E76, offset: 0x8B3E2, size: 0x8, addend: 0x0, symName: __ZNSt3__110__function6__funcIZN9grpc_core20BinderServerListener5StartEPNS2_6ServerEPKNS_6vectorIP12grpc_pollsetNS_9allocatorIS8_EEEEEUljPN11grpc_binder14ReadableParcelEiE_NS9_ISH_EEFN4absl12lts_202111026StatusEjSG_iEEclEOjOSG_Oi, symObjAddr: 0x9F4, symBinAddr: 0x62F8, symSize: 0x14 }
  - { offsetInCU: 0x20EF8, offset: 0x8B464, size: 0x8, addend: 0x0, symName: __ZN9grpc_core20BinderServerListener16OnSetupTransportEjPN11grpc_binder14ReadableParcelEi, symObjAddr: 0xA50, symBinAddr: 0x6354, symSize: 0x464 }
  - { offsetInCU: 0x2235F, offset: 0x8C8CB, size: 0x8, addend: 0x0, symName: __ZNKSt3__110__function6__funcIZN9grpc_core20BinderServerListener5StartEPNS2_6ServerEPKNS_6vectorIP12grpc_pollsetNS_9allocatorIS8_EEEEEUljPN11grpc_binder14ReadableParcelEiE_NS9_ISH_EEFN4absl12lts_202111026StatusEjSG_iEE6targetERKSt9type_info, symObjAddr: 0xA08, symBinAddr: 0x630C, symSize: 0x3C }
  - { offsetInCU: 0x223FC, offset: 0x8C968, size: 0x8, addend: 0x0, symName: __ZNKSt3__110__function6__funcIZN9grpc_core20BinderServerListener5StartEPNS2_6ServerEPKNS_6vectorIP12grpc_pollsetNS_9allocatorIS8_EEEEEUljPN11grpc_binder14ReadableParcelEiE_NS9_ISH_EEFN4absl12lts_202111026StatusEjSG_iEE11target_typeEv, symObjAddr: 0xA44, symBinAddr: 0x6348, symSize: 0xC }
  - { offsetInCU: 0x22973, offset: 0x8CEDF, size: 0x8, addend: 0x0, symName: __ZN9grpc_core13RefCountedPtrINS_8channelz10SocketNodeEED2Ev, symObjAddr: 0xF88, symBinAddr: 0x67E8, symSize: 0x4C }
  - { offsetInCU: 0x22AA0, offset: 0x8D00C, size: 0x8, addend: 0x0, symName: __ZN4absl12lts_202111026StatusD1Ev, symObjAddr: 0xEB4, symBinAddr: 0x67B8, symSize: 0x30 }
  - { offsetInCU: 0x22EAF, offset: 0x8D41B, size: 0x8, addend: 0x0, symName: __ZNKSt3__112basic_stringIcNS_11char_traitsIcEENS_9allocatorIcEEE20__throw_length_errorB7v160006Ev, symObjAddr: 0x119C, symBinAddr: 0x68D0, symSize: 0x14 }
  - { offsetInCU: 0x22ED7, offset: 0x8D443, size: 0x8, addend: 0x0, symName: __ZNSt3__120__throw_length_errorB7v160006EPKc, symObjAddr: 0x11B0, symBinAddr: 0x68E4, symSize: 0x50 }
  - { offsetInCU: 0x22EE3, offset: 0x8D44F, size: 0x8, addend: 0x0, symName: __ZNSt12length_errorC1B7v160006EPKc, symObjAddr: 0x1200, symBinAddr: 0x6934, symSize: 0x24 }
  - { offsetInCU: 0x230B7, offset: 0x8D623, size: 0x8, addend: 0x0, symName: __ZN4absl12lts_2021110218container_internal12raw_hash_setINS1_17FlatHashMapPolicyINSt3__112basic_stringIcNS4_11char_traitsIcEENS4_9allocatorIcEEEEPvEENS1_10StringHashENS1_8StringEqENS8_INS4_4pairIKSA_SB_EEEEE22find_or_prepare_insertISA_EENSF_ImbEERKT_, symObjAddr: 0x12B4, symBinAddr: 0x69E8, symSize: 0x1A8 }
  - { offsetInCU: 0x236CE, offset: 0x8DC3A, size: 0x8, addend: 0x0, symName: __ZN4absl12lts_2021110218container_internal12raw_hash_setINS1_17FlatHashMapPolicyINSt3__112basic_stringIcNS4_11char_traitsIcEENS4_9allocatorIcEEEEPvEENS1_10StringHashENS1_8StringEqENS8_INS4_4pairIKSA_SB_EEEEE10emplace_atIJRKNS4_21piecewise_construct_tENS4_5tupleIJRSG_EEENSO_IJEEEEEEvmDpOT_, symObjAddr: 0x145C, symBinAddr: 0x6B90, symSize: 0x98 }
  - { offsetInCU: 0x236FA, offset: 0x8DC66, size: 0x8, addend: 0x0, symName: __ZN4absl12lts_2021110218container_internal12raw_hash_setINS1_17FlatHashMapPolicyINSt3__112basic_stringIcNS4_11char_traitsIcEENS4_9allocatorIcEEEEPvEENS1_10StringHashENS1_8StringEqENS8_INS4_4pairIKSA_SB_EEEEE10emplace_atIJRKNS4_21piecewise_construct_tENS4_5tupleIJRSG_EEENSO_IJEEEEEEvmDpOT_, symObjAddr: 0x145C, symBinAddr: 0x6B90, symSize: 0x98 }
  - { offsetInCU: 0x23B3D, offset: 0x8E0A9, size: 0x8, addend: 0x0, symName: __ZN4absl12lts_2021110218container_internal12raw_hash_setINS1_17FlatHashMapPolicyINSt3__112basic_stringIcNS4_11char_traitsIcEENS4_9allocatorIcEEEEPvEENS1_10StringHashENS1_8StringEqENS8_INS4_4pairIKSA_SB_EEEEE14prepare_insertEm, symObjAddr: 0x14F4, symBinAddr: 0x6C28, symSize: 0x194 }
  - { offsetInCU: 0x23B5E, offset: 0x8E0CA, size: 0x8, addend: 0x0, symName: __ZN4absl12lts_2021110218container_internal12raw_hash_mapINS1_17FlatHashMapPolicyINSt3__112basic_stringIcNS4_11char_traitsIcEENS4_9allocatorIcEEEEPvEENS1_10StringHashENS1_8StringEqENS8_INS4_4pairIKSA_SB_EEEEE16try_emplace_implIRSG_JEEENSF_INS1_12raw_hash_setISC_SD_SE_SI_E8iteratorEbEEOT_DpOT0_.cold.1, symObjAddr: 0x24C4, symBinAddr: 0x47BE8, symSize: 0x24 }
  - { offsetInCU: 0x23E1E, offset: 0x8E38A, size: 0x8, addend: 0x0, symName: __ZNK4absl12lts_2021110218container_internal12raw_hash_setINS1_17FlatHashMapPolicyINSt3__112basic_stringIcNS4_11char_traitsIcEENS4_9allocatorIcEEEEPvEENS1_10StringHashENS1_8StringEqENS8_INS4_4pairIKSA_SB_EEEEE12EqualElementISA_EclISA_JRKNS4_21piecewise_construct_tENS4_5tupleIJRSG_EEENSQ_IJRKSB_EEEEEEbRKT_DpOT0_, symObjAddr: 0x1784, symBinAddr: 0x6EB8, symSize: 0x70 }
  - { offsetInCU: 0x23FC6, offset: 0x8E532, size: 0x8, addend: 0x0, symName: __ZN4absl12lts_2021110218container_internal12raw_hash_setINS1_17FlatHashMapPolicyINSt3__112basic_stringIcNS4_11char_traitsIcEENS4_9allocatorIcEEEEPvEENS1_10StringHashENS1_8StringEqENS8_INS4_4pairIKSA_SB_EEEEE22find_or_prepare_insertISA_EENSF_ImbEERKT_.cold.1, symObjAddr: 0x24E8, symBinAddr: 0x47C0C, symSize: 0x28 }
  - { offsetInCU: 0x23FDE, offset: 0x8E54A, size: 0x8, addend: 0x0, symName: __ZN4absl12lts_2021110218container_internal12raw_hash_setINS1_17FlatHashMapPolicyINSt3__112basic_stringIcNS4_11char_traitsIcEENS4_9allocatorIcEEEEPvEENS1_10StringHashENS1_8StringEqENS8_INS4_4pairIKSA_SB_EEEEE14prepare_insertEm, symObjAddr: 0x14F4, symBinAddr: 0x6C28, symSize: 0x194 }
  - { offsetInCU: 0x2436B, offset: 0x8E8D7, size: 0x8, addend: 0x0, symName: __ZN4absl12lts_2021110218container_internal12raw_hash_setINS1_17FlatHashMapPolicyINSt3__112basic_stringIcNS4_11char_traitsIcEENS4_9allocatorIcEEEEPvEENS1_10StringHashENS1_8StringEqENS8_INS4_4pairIKSA_SB_EEEEE22find_or_prepare_insertISA_EENSF_ImbEERKT_.cold.2, symObjAddr: 0x2510, symBinAddr: 0x47C34, symSize: 0x24 }
  - { offsetInCU: 0x248C5, offset: 0x8EE31, size: 0x8, addend: 0x0, symName: __ZNK4absl12lts_2021110218container_internal12raw_hash_setINS1_17FlatHashMapPolicyINSt3__112basic_stringIcNS4_11char_traitsIcEENS4_9allocatorIcEEEEPvEENS1_10StringHashENS1_8StringEqENS8_INS4_4pairIKSA_SB_EEEEE4findISA_EENSJ_14const_iteratorERKT_, symObjAddr: 0x1F54, symBinAddr: 0x7688, symSize: 0x80 }
  - { offsetInCU: 0x24C3E, offset: 0x8F1AA, size: 0x8, addend: 0x0, symName: __ZN4absl12lts_2021110218container_internal12raw_hash_setINS1_17FlatHashMapPolicyINSt3__112basic_stringIcNS4_11char_traitsIcEENS4_9allocatorIcEEEEPvEENS1_10StringHashENS1_8StringEqENS8_INS4_4pairIKSA_SB_EEEEE10emplace_atIJRKNS4_21piecewise_construct_tENS4_5tupleIJRSG_EEENSO_IJEEEEEEvmDpOT_.cold.1, symObjAddr: 0x2534, symBinAddr: 0x47C58, symSize: 0x24 }
  - { offsetInCU: 0x24C9B, offset: 0x8F207, size: 0x8, addend: 0x0, symName: __ZN4absl12lts_2021110218container_internal12raw_hash_setINS1_17FlatHashMapPolicyINSt3__112basic_stringIcNS4_11char_traitsIcEENS4_9allocatorIcEEEEPvEENS1_10StringHashENS1_8StringEqENS8_INS4_4pairIKSA_SB_EEEEE10emplace_atIJRKNS4_21piecewise_construct_tENS4_5tupleIJRSG_EEENSO_IJEEEEEEvmDpOT_.cold.4, symObjAddr: 0x25A4, symBinAddr: 0x47CC8, symSize: 0x24 }
  - { offsetInCU: 0x24CF8, offset: 0x8F264, size: 0x8, addend: 0x0, symName: __ZN4absl12lts_2021110218container_internal12raw_hash_setINS1_17FlatHashMapPolicyINSt3__112basic_stringIcNS4_11char_traitsIcEENS4_9allocatorIcEEEEPvEENS1_10StringHashENS1_8StringEqENS8_INS4_4pairIKSA_SB_EEEEE10emplace_atIJRKNS4_21piecewise_construct_tENS4_5tupleIJRSG_EEENSO_IJEEEEEEvmDpOT_.cold.2, symObjAddr: 0x2558, symBinAddr: 0x47C7C, symSize: 0x24 }
  - { offsetInCU: 0x24D55, offset: 0x8F2C1, size: 0x8, addend: 0x0, symName: __ZN4absl12lts_2021110218container_internal12raw_hash_setINS1_17FlatHashMapPolicyINSt3__112basic_stringIcNS4_11char_traitsIcEENS4_9allocatorIcEEEEPvEENS1_10StringHashENS1_8StringEqENS8_INS4_4pairIKSA_SB_EEEEE10emplace_atIJRKNS4_21piecewise_construct_tENS4_5tupleIJRSG_EEENSO_IJEEEEEEvmDpOT_.cold.3, symObjAddr: 0x257C, symBinAddr: 0x47CA0, symSize: 0x28 }
  - { offsetInCU: 0x24DA6, offset: 0x8F312, size: 0x8, addend: 0x0, symName: __ZN4absl12lts_2021110218container_internal12raw_hash_setINS1_17FlatHashMapPolicyINSt3__112basic_stringIcNS4_11char_traitsIcEENS4_9allocatorIcEEEEPvEENS1_10StringHashENS1_8StringEqENS8_INS4_4pairIKSA_SB_EEEEE28rehash_and_grow_if_necessaryEv, symObjAddr: 0x17F4, symBinAddr: 0x6F28, symSize: 0x3C }
  - { offsetInCU: 0x24FA1, offset: 0x8F50D, size: 0x8, addend: 0x0, symName: __ZN4absl12lts_2021110218container_internal12raw_hash_setINS1_17FlatHashMapPolicyINSt3__112basic_stringIcNS4_11char_traitsIcEENS4_9allocatorIcEEEEPvEENS1_10StringHashENS1_8StringEqENS8_INS4_4pairIKSA_SB_EEEEE6resizeEm, symObjAddr: 0x1830, symBinAddr: 0x6F64, symSize: 0x210 }
  - { offsetInCU: 0x25A92, offset: 0x8FFFE, size: 0x8, addend: 0x0, symName: __ZN4absl12lts_2021110218container_internal12raw_hash_setINS1_17FlatHashMapPolicyINSt3__112basic_stringIcNS4_11char_traitsIcEENS4_9allocatorIcEEEEPvEENS1_10StringHashENS1_8StringEqENS8_INS4_4pairIKSA_SB_EEEEE27drop_deletes_without_resizeEv, symObjAddr: 0x1A40, symBinAddr: 0x7174, symSize: 0x3E8 }
  - { offsetInCU: 0x25A9E, offset: 0x9000A, size: 0x8, addend: 0x0, symName: __ZN4absl12lts_2021110218container_internal12raw_hash_setINS1_17FlatHashMapPolicyINSt3__112basic_stringIcNS4_11char_traitsIcEENS4_9allocatorIcEEEEPvEENS1_10StringHashENS1_8StringEqENS8_INS4_4pairIKSA_SB_EEEEE27drop_deletes_without_resizeEv, symObjAddr: 0x1A40, symBinAddr: 0x7174, symSize: 0x3E8 }
  - { offsetInCU: 0x26E2F, offset: 0x9139B, size: 0x8, addend: 0x0, symName: __ZN4absl12lts_2021110218container_internal12raw_hash_setINS1_17FlatHashMapPolicyINSt3__112basic_stringIcNS4_11char_traitsIcEENS4_9allocatorIcEEEEPvEENS1_10StringHashENS1_8StringEqENS8_INS4_4pairIKSA_SB_EEEEE16initialize_slotsEv, symObjAddr: 0x1E28, symBinAddr: 0x755C, symSize: 0x9C }
  - { offsetInCU: 0x26F97, offset: 0x91503, size: 0x8, addend: 0x0, symName: __ZN4absl12lts_2021110218container_internal10DeallocateILm8ENSt3__19allocatorINS3_4pairIKNS3_12basic_stringIcNS3_11char_traitsIcEENS4_IcEEEEPvEEEEEEvPT0_SC_m, symObjAddr: 0x1EC4, symBinAddr: 0x75F8, symSize: 0x18 }
  - { offsetInCU: 0x26FA3, offset: 0x9150F, size: 0x8, addend: 0x0, symName: __ZN4absl12lts_2021110218container_internal12raw_hash_setINS1_17FlatHashMapPolicyINSt3__112basic_stringIcNS4_11char_traitsIcEENS4_9allocatorIcEEEEPvEENS1_10StringHashENS1_8StringEqENS8_INS4_4pairIKSA_SB_EEEEE6resizeEm.cold.1, symObjAddr: 0x25C8, symBinAddr: 0x47CEC, symSize: 0x28 }
  - { offsetInCU: 0x26FD2, offset: 0x9153E, size: 0x8, addend: 0x0, symName: __ZN4absl12lts_2021110218container_internal12raw_hash_setINS1_17FlatHashMapPolicyINSt3__112basic_stringIcNS4_11char_traitsIcEENS4_9allocatorIcEEEEPvEENS1_10StringHashENS1_8StringEqENS8_INS4_4pairIKSA_SB_EEEEE6resizeEm.cold.4, symObjAddr: 0x263C, symBinAddr: 0x47D60, symSize: 0x24 }
  - { offsetInCU: 0x27045, offset: 0x915B1, size: 0x8, addend: 0x0, symName: __ZN4absl12lts_2021110218container_internal12raw_hash_setINS1_17FlatHashMapPolicyINSt3__112basic_stringIcNS4_11char_traitsIcEENS4_9allocatorIcEEEEPvEENS1_10StringHashENS1_8StringEqENS8_INS4_4pairIKSA_SB_EEEEE6resizeEm.cold.3, symObjAddr: 0x2614, symBinAddr: 0x47D38, symSize: 0x28 }
  - { offsetInCU: 0x2708B, offset: 0x915F7, size: 0x8, addend: 0x0, symName: __ZN4absl12lts_2021110218container_internal12raw_hash_setINS1_17FlatHashMapPolicyINSt3__112basic_stringIcNS4_11char_traitsIcEENS4_9allocatorIcEEEEPvEENS1_10StringHashENS1_8StringEqENS8_INS4_4pairIKSA_SB_EEEEE6resizeEm.cold.5, symObjAddr: 0x2660, symBinAddr: 0x47D84, symSize: 0x28 }
  - { offsetInCU: 0x270A3, offset: 0x9160F, size: 0x8, addend: 0x0, symName: __ZN4absl12lts_2021110218container_internal12raw_hash_setINS1_17FlatHashMapPolicyINSt3__112basic_stringIcNS4_11char_traitsIcEENS4_9allocatorIcEEEEPvEENS1_10StringHashENS1_8StringEqENS8_INS4_4pairIKSA_SB_EEEEE6resizeEm.cold.2, symObjAddr: 0x25F0, symBinAddr: 0x47D14, symSize: 0x24 }
  - { offsetInCU: 0x2711F, offset: 0x9168B, size: 0x8, addend: 0x0, symName: __ZN4absl12lts_2021110218container_internal12raw_hash_setINS1_17FlatHashMapPolicyINSt3__112basic_stringIcNS4_11char_traitsIcEENS4_9allocatorIcEEEEPvEENS1_10StringHashENS1_8StringEqENS8_INS4_4pairIKSA_SB_EEEEE17reset_growth_leftEv, symObjAddr: 0x1F0C, symBinAddr: 0x7640, symSize: 0x48 }
  - { offsetInCU: 0x2719C, offset: 0x91708, size: 0x8, addend: 0x0, symName: __ZNK4absl12lts_2021110218container_internal12raw_hash_setINS1_17FlatHashMapPolicyINSt3__112basic_stringIcNS4_11char_traitsIcEENS4_9allocatorIcEEEEPvEENS1_10StringHashENS1_8StringEqENS8_INS4_4pairIKSA_SB_EEEEE4findISA_EENSJ_14const_iteratorERKT_, symObjAddr: 0x1F54, symBinAddr: 0x7688, symSize: 0x80 }
  - { offsetInCU: 0x271A8, offset: 0x91714, size: 0x8, addend: 0x0, symName: __ZN4absl12lts_2021110218container_internal12raw_hash_setINS1_17FlatHashMapPolicyINSt3__112basic_stringIcNS4_11char_traitsIcEENS4_9allocatorIcEEEEPvEENS1_10StringHashENS1_8StringEqENS8_INS4_4pairIKSA_SB_EEEEE16initialize_slotsEv.cold.1, symObjAddr: 0x2688, symBinAddr: 0x47DAC, symSize: 0x28 }
  - { offsetInCU: 0x271C0, offset: 0x9172C, size: 0x8, addend: 0x0, symName: __ZN4absl12lts_2021110218container_internal12raw_hash_setINS1_17FlatHashMapPolicyINSt3__112basic_stringIcNS4_11char_traitsIcEENS4_9allocatorIcEEEEPvEENS1_10StringHashENS1_8StringEqENS8_INS4_4pairIKSA_SB_EEEEE16initialize_slotsEv.cold.3, symObjAddr: 0x26D4, symBinAddr: 0x47DF8, symSize: 0x24 }
  - { offsetInCU: 0x27206, offset: 0x91772, size: 0x8, addend: 0x0, symName: __ZN4absl12lts_2021110218container_internal12raw_hash_setINS1_17FlatHashMapPolicyINSt3__112basic_stringIcNS4_11char_traitsIcEENS4_9allocatorIcEEEEPvEENS1_10StringHashENS1_8StringEqENS8_INS4_4pairIKSA_SB_EEEEE16initialize_slotsEv.cold.2, symObjAddr: 0x26B0, symBinAddr: 0x47DD4, symSize: 0x24 }
  - { offsetInCU: 0x272CD, offset: 0x91839, size: 0x8, addend: 0x0, symName: __ZN4absl12lts_2021110218container_internal10DeallocateILm8ENSt3__19allocatorINS3_4pairIKNS3_12basic_stringIcNS3_11char_traitsIcEENS4_IcEEEEPvEEEEEEvPT0_SC_m.cold.1, symObjAddr: 0x26F8, symBinAddr: 0x47E1C, symSize: 0x28 }
  - { offsetInCU: 0x27329, offset: 0x91895, size: 0x8, addend: 0x0, symName: __ZN4absl12lts_2021110218container_internal8AllocateILm8ENSt3__19allocatorINS3_4pairIKNS3_12basic_stringIcNS3_11char_traitsIcEENS4_IcEEEEPvEEEEEESC_PT0_m.cold.1, symObjAddr: 0x2720, symBinAddr: 0x47E44, symSize: 0x28 }
  - { offsetInCU: 0x27341, offset: 0x918AD, size: 0x8, addend: 0x0, symName: __ZN4absl12lts_2021110218container_internal8AllocateILm8ENSt3__19allocatorINS3_4pairIKNS3_12basic_stringIcNS3_11char_traitsIcEENS4_IcEEEEPvEEEEEESC_PT0_m.cold.2, symObjAddr: 0x2748, symBinAddr: 0x47E6C, symSize: 0x28 }
  - { offsetInCU: 0x2736F, offset: 0x918DB, size: 0x8, addend: 0x0, symName: __ZN4absl12lts_2021110218container_internal12raw_hash_setINS1_17FlatHashMapPolicyINSt3__112basic_stringIcNS4_11char_traitsIcEENS4_9allocatorIcEEEEPvEENS1_10StringHashENS1_8StringEqENS8_INS4_4pairIKSA_SB_EEEEE17reset_growth_leftEv.cold.1, symObjAddr: 0x2770, symBinAddr: 0x47E94, symSize: 0x28 }
  - { offsetInCU: 0x273D7, offset: 0x91943, size: 0x8, addend: 0x0, symName: __ZN4absl12lts_2021110218container_internal12raw_hash_setINS1_17FlatHashMapPolicyINSt3__112basic_stringIcNS4_11char_traitsIcEENS4_9allocatorIcEEEEPvEENS1_10StringHashENS1_8StringEqENS8_INS4_4pairIKSA_SB_EEEEE4findISA_EENSJ_8iteratorERKT_m.cold.1, symObjAddr: 0x2798, symBinAddr: 0x47EBC, symSize: 0x28 }
  - { offsetInCU: 0x273EF, offset: 0x9195B, size: 0x8, addend: 0x0, symName: __ZN4absl12lts_2021110218container_internal12raw_hash_setINS1_17FlatHashMapPolicyINSt3__112basic_stringIcNS4_11char_traitsIcEENS4_9allocatorIcEEEEPvEENS1_10StringHashENS1_8StringEqENS8_INS4_4pairIKSA_SB_EEEEE4findISA_EENSJ_8iteratorERKT_m.cold.3, symObjAddr: 0x27E4, symBinAddr: 0x47F08, symSize: 0x24 }
  - { offsetInCU: 0x2744B, offset: 0x919B7, size: 0x8, addend: 0x0, symName: __ZN4absl12lts_2021110218container_internal12raw_hash_setINS1_17FlatHashMapPolicyINSt3__112basic_stringIcNS4_11char_traitsIcEENS4_9allocatorIcEEEEPvEENS1_10StringHashENS1_8StringEqENS8_INS4_4pairIKSA_SB_EEEEE4findISA_EENSJ_8iteratorERKT_m.cold.2, symObjAddr: 0x27C0, symBinAddr: 0x47EE4, symSize: 0x24 }
  - { offsetInCU: 0x274FC, offset: 0x91A68, size: 0x8, addend: 0x0, symName: __ZN4absl12lts_2021110218container_internal12raw_hash_setINS1_17FlatHashMapPolicyINSt3__112basic_stringIcNS4_11char_traitsIcEENS4_9allocatorIcEEEEPvEENS1_10StringHashENS1_8StringEqENS8_INS4_4pairIKSA_SB_EEEEE15erase_meta_onlyENSJ_14const_iteratorE, symObjAddr: 0x2184, symBinAddr: 0x78B8, symSize: 0xC8 }
  - { offsetInCU: 0x277C7, offset: 0x91D33, size: 0x8, addend: 0x0, symName: __ZNSt3__110__function12__value_funcIFNS_10unique_ptrIN11grpc_binder19TransactionReceiverENS_14default_deleteIS4_EEEENS_8functionIFN4absl12lts_202111026StatusEjPNS3_14ReadableParcelEiEEEEEC2B7v160006EOSH_, symObjAddr: 0x224C, symBinAddr: 0x7980, symSize: 0x64 }
  - { offsetInCU: 0x277D3, offset: 0x91D3F, size: 0x8, addend: 0x0, symName: __ZN4absl12lts_2021110218container_internal12raw_hash_setINS1_17FlatHashMapPolicyINSt3__112basic_stringIcNS4_11char_traitsIcEENS4_9allocatorIcEEEEPvEENS1_10StringHashENS1_8StringEqENS8_INS4_4pairIKSA_SB_EEEEE5eraseENSJ_8iteratorE.cold.1, symObjAddr: 0x2808, symBinAddr: 0x47F2C, symSize: 0x24 }
  - { offsetInCU: 0x2785D, offset: 0x91DC9, size: 0x8, addend: 0x0, symName: __ZN4absl12lts_2021110218container_internal12raw_hash_setINS1_17FlatHashMapPolicyINSt3__112basic_stringIcNS4_11char_traitsIcEENS4_9allocatorIcEEEEPvEENS1_10StringHashENS1_8StringEqENS8_INS4_4pairIKSA_SB_EEEEE15erase_meta_onlyENSJ_14const_iteratorE.cold.2, symObjAddr: 0x2854, symBinAddr: 0x47F78, symSize: 0x28 }
  - { offsetInCU: 0x27875, offset: 0x91DE1, size: 0x8, addend: 0x0, symName: __ZN4absl12lts_2021110218container_internal12raw_hash_setINS1_17FlatHashMapPolicyINSt3__112basic_stringIcNS4_11char_traitsIcEENS4_9allocatorIcEEEEPvEENS1_10StringHashENS1_8StringEqENS8_INS4_4pairIKSA_SB_EEEEE15erase_meta_onlyENSJ_14const_iteratorE.cold.1, symObjAddr: 0x282C, symBinAddr: 0x47F50, symSize: 0x28 }
  - { offsetInCU: 0x278A4, offset: 0x91E10, size: 0x8, addend: 0x0, symName: __ZNSt12out_of_rangeC1B7v160006EPKc, symObjAddr: 0x236C, symBinAddr: 0x7A48, symSize: 0x24 }
  - { offsetInCU: 0x2792D, offset: 0x91E99, size: 0x8, addend: 0x0, symName: _OUTLINED_FUNCTION_0, symObjAddr: 0x287C, symBinAddr: 0x7A6C, symSize: 0x8 }
  - { offsetInCU: 0x27945, offset: 0x91EB1, size: 0x8, addend: 0x0, symName: _OUTLINED_FUNCTION_1, symObjAddr: 0x2884, symBinAddr: 0x7A74, symSize: 0x8 }
  - { offsetInCU: 0x2795D, offset: 0x91EC9, size: 0x8, addend: 0x0, symName: _OUTLINED_FUNCTION_2, symObjAddr: 0x288C, symBinAddr: 0x7A7C, symSize: 0x8 }
  - { offsetInCU: 0x27975, offset: 0x91EE1, size: 0x8, addend: 0x0, symName: _OUTLINED_FUNCTION_3, symObjAddr: 0x2894, symBinAddr: 0x7A84, symSize: 0x8 }
  - { offsetInCU: 0x26, offset: 0x92005, size: 0x8, addend: 0x0, symName: __ZN4grpc12experimental23BinderServerCredentialsENSt3__110shared_ptrINS0_6binder14SecurityPolicyEEE, symObjAddr: 0x0, symBinAddr: 0x7A8C, symSize: 0x138 }
  - { offsetInCU: 0x31D4, offset: 0x951B3, size: 0x8, addend: 0x0, symName: __ZN4grpc12experimental23BinderServerCredentialsENSt3__110shared_ptrINS0_6binder14SecurityPolicyEEE, symObjAddr: 0x0, symBinAddr: 0x7A8C, symSize: 0x138 }
  - { offsetInCU: 0x5C2B, offset: 0x97C0A, size: 0x8, addend: 0x0, symName: __ZNSt3__110unique_ptrIN4grpc12experimental12_GLOBAL__N_127BinderServerCredentialsImplENS_14default_deleteIS4_EEED1B7v160006Ev, symObjAddr: 0x234, symBinAddr: 0x7C68, symSize: 0x40 }
  - { offsetInCU: 0x5D30, offset: 0x97D0F, size: 0x8, addend: 0x0, symName: __ZN4grpc12experimental23BinderServerCredentialsENSt3__110shared_ptrINS0_6binder14SecurityPolicyEEE.cold.1, symObjAddr: 0x350, symBinAddr: 0x47FA0, symSize: 0x38 }
  - { offsetInCU: 0x5DB8, offset: 0x97D97, size: 0x8, addend: 0x0, symName: __ZN4grpc12experimental12_GLOBAL__N_127BinderServerCredentialsImplD1Ev, symObjAddr: 0x138, symBinAddr: 0x7BC4, symSize: 0x28 }
  - { offsetInCU: 0x5E40, offset: 0x97E1F, size: 0x8, addend: 0x0, symName: __ZN4grpc12experimental12_GLOBAL__N_127BinderServerCredentialsImplD0Ev, symObjAddr: 0x160, symBinAddr: 0x7BEC, symSize: 0x2C }
  - { offsetInCU: 0x5ECE, offset: 0x97EAD, size: 0x8, addend: 0x0, symName: __ZN4grpc12experimental12_GLOBAL__N_127BinderServerCredentialsImpl24SetAuthMetadataProcessorERKNSt3__110shared_ptrINS_21AuthMetadataProcessorEEE, symObjAddr: 0x18C, symBinAddr: 0x7C18, symSize: 0x38 }
  - { offsetInCU: 0x5F32, offset: 0x97F11, size: 0x8, addend: 0x0, symName: __ZN4grpc12experimental12_GLOBAL__N_127BinderServerCredentialsImpl15AddPortToServerERKNSt3__112basic_stringIcNS3_11char_traitsIcEENS3_9allocatorIcEEEEP11grpc_server, symObjAddr: 0x1C4, symBinAddr: 0x7C50, symSize: 0x8 }
  - { offsetInCU: 0x5F65, offset: 0x97F44, size: 0x8, addend: 0x0, symName: __ZNK4grpc12experimental12_GLOBAL__N_127BinderServerCredentialsImpl10IsInsecureEv, symObjAddr: 0x1CC, symBinAddr: 0x7C58, symSize: 0x8 }
  - { offsetInCU: 0x5F88, offset: 0x97F67, size: 0x8, addend: 0x0, symName: __ZN4grpc17ServerCredentials25AsSecureServerCredentialsEv, symObjAddr: 0x1D4, symBinAddr: 0x7C60, symSize: 0x8 }
  - { offsetInCU: 0x603B, offset: 0x9801A, size: 0x8, addend: 0x0, symName: __ZNSt3__120__shared_ptr_pointerIPN4grpc12experimental12_GLOBAL__N_127BinderServerCredentialsImplENS_10shared_ptrINS1_17ServerCredentialsEE27__shared_ptr_default_deleteIS7_S4_EENS_9allocatorIS4_EEED1Ev, symObjAddr: 0x274, symBinAddr: 0x7CA8, symSize: 0x4 }
  - { offsetInCU: 0x605D, offset: 0x9803C, size: 0x8, addend: 0x0, symName: __ZNSt3__120__shared_ptr_pointerIPN4grpc12experimental12_GLOBAL__N_127BinderServerCredentialsImplENS_10shared_ptrINS1_17ServerCredentialsEE27__shared_ptr_default_deleteIS7_S4_EENS_9allocatorIS4_EEED1Ev, symObjAddr: 0x274, symBinAddr: 0x7CA8, symSize: 0x4 }
  - { offsetInCU: 0x6093, offset: 0x98072, size: 0x8, addend: 0x0, symName: __ZNSt3__120__shared_ptr_pointerIPN4grpc12experimental12_GLOBAL__N_127BinderServerCredentialsImplENS_10shared_ptrINS1_17ServerCredentialsEE27__shared_ptr_default_deleteIS7_S4_EENS_9allocatorIS4_EEED0Ev, symObjAddr: 0x278, symBinAddr: 0x7CAC, symSize: 0x14 }
  - { offsetInCU: 0x60F6, offset: 0x980D5, size: 0x8, addend: 0x0, symName: __ZNSt3__120__shared_ptr_pointerIPN4grpc12experimental12_GLOBAL__N_127BinderServerCredentialsImplENS_10shared_ptrINS1_17ServerCredentialsEE27__shared_ptr_default_deleteIS7_S4_EENS_9allocatorIS4_EEE16__on_zero_sharedEv, symObjAddr: 0x28C, symBinAddr: 0x7CC0, symSize: 0x8 }
  - { offsetInCU: 0x612B, offset: 0x9810A, size: 0x8, addend: 0x0, symName: __ZNKSt3__114default_deleteIN4grpc12experimental12_GLOBAL__N_127BinderServerCredentialsImplEEclB7v160006EPS4_, symObjAddr: 0x2D4, symBinAddr: 0x7D08, symSize: 0x34 }
  - { offsetInCU: 0x61B6, offset: 0x98195, size: 0x8, addend: 0x0, symName: __ZNKSt3__120__shared_ptr_pointerIPN4grpc12experimental12_GLOBAL__N_127BinderServerCredentialsImplENS_10shared_ptrINS1_17ServerCredentialsEE27__shared_ptr_default_deleteIS7_S4_EENS_9allocatorIS4_EEE13__get_deleterERKSt9type_info, symObjAddr: 0x294, symBinAddr: 0x7CC8, symSize: 0x3C }
  - { offsetInCU: 0x62A9, offset: 0x98288, size: 0x8, addend: 0x0, symName: __ZNSt3__120__shared_ptr_pointerIPN4grpc12experimental12_GLOBAL__N_127BinderServerCredentialsImplENS_10shared_ptrINS1_17ServerCredentialsEE27__shared_ptr_default_deleteIS7_S4_EENS_9allocatorIS4_EEE21__on_zero_shared_weakEv, symObjAddr: 0x2D0, symBinAddr: 0x7D04, symSize: 0x4 }
  - { offsetInCU: 0x62DE, offset: 0x982BD, size: 0x8, addend: 0x0, symName: __ZNSt3__120__shared_ptr_pointerIPN4grpc12experimental12_GLOBAL__N_127BinderServerCredentialsImplENS_10shared_ptrINS1_17ServerCredentialsEE27__shared_ptr_default_deleteIS7_S4_EENS_9allocatorIS4_EEE21__on_zero_shared_weakEv, symObjAddr: 0x2D0, symBinAddr: 0x7D04, symSize: 0x4 }
  - { offsetInCU: 0x6302, offset: 0x982E1, size: 0x8, addend: 0x0, symName: __ZNSt3__120__shared_ptr_pointerIPN4grpc12experimental12_GLOBAL__N_127BinderServerCredentialsImplENS_10shared_ptrINS1_17ServerCredentialsEE27__shared_ptr_default_deleteIS7_S4_EENS_9allocatorIS4_EEE21__on_zero_shared_weakEv, symObjAddr: 0x2D0, symBinAddr: 0x7D04, symSize: 0x4 }
  - { offsetInCU: 0x632B, offset: 0x9830A, size: 0x8, addend: 0x0, symName: __ZNSt3__120__shared_ptr_pointerIPN4grpc12experimental12_GLOBAL__N_127BinderServerCredentialsImplENS_10shared_ptrINS1_17ServerCredentialsEE27__shared_ptr_default_deleteIS7_S4_EENS_9allocatorIS4_EEE21__on_zero_shared_weakEv, symObjAddr: 0x2D0, symBinAddr: 0x7D04, symSize: 0x4 }
  - { offsetInCU: 0x634F, offset: 0x9832E, size: 0x8, addend: 0x0, symName: __ZNSt3__120__shared_ptr_pointerIPN4grpc12experimental12_GLOBAL__N_127BinderServerCredentialsImplENS_10shared_ptrINS1_17ServerCredentialsEE27__shared_ptr_default_deleteIS7_S4_EENS_9allocatorIS4_EEE21__on_zero_shared_weakEv, symObjAddr: 0x2D0, symBinAddr: 0x7D04, symSize: 0x4 }
  - { offsetInCU: 0x53, offset: 0x983EA, size: 0x8, addend: 0x0, symName: __ZL6vtable, symObjAddr: 0xD2E8, symBinAddr: 0x606B8, symSize: 0x0 }
  - { offsetInCU: 0x4A4A, offset: 0x9CDE1, size: 0x8, addend: 0x0, symName: __ZN9grpc_core18HttpMethodMetadata12ParseMementoENS_5SliceEN4absl12lts_2021110211FunctionRefIFvNS3_11string_viewERKS1_EEE, symObjAddr: 0x68D8, symBinAddr: 0xE410, symSize: 0xC4 }
  - { offsetInCU: 0x4B2B, offset: 0x9CEC2, size: 0x8, addend: 0x0, symName: __ZN9grpc_core22SimpleIntBasedMetadataIjLj0EE12ParseMementoENS_5SliceEN4absl12lts_2021110211FunctionRefIFvNS4_11string_viewERKS2_EEE, symObjAddr: 0x6A9C, symBinAddr: 0xE5D4, symSize: 0x6C }
  - { offsetInCU: 0x4CDE, offset: 0x9D075, size: 0x8, addend: 0x0, symName: __ZN9grpc_core19ContentTypeMetadata12ParseMementoENS_5SliceEN4absl12lts_2021110211FunctionRefIFvNS3_11string_viewERKS1_EEE, symObjAddr: 0x6E40, symBinAddr: 0xE978, symSize: 0x110 }
  - { offsetInCU: 0x4DB0, offset: 0x9D147, size: 0x8, addend: 0x0, symName: __ZN9grpc_core10TeMetadata12ParseMementoENS_5SliceEN4absl12lts_2021110211FunctionRefIFvNS3_11string_viewERKS1_EEE, symObjAddr: 0x7060, symBinAddr: 0xEB98, symSize: 0x78 }
  - { offsetInCU: 0x4E7D, offset: 0x9D214, size: 0x8, addend: 0x0, symName: __ZN9grpc_core33CompressionAlgorithmBasedMetadata12ParseMementoENS_5SliceEN4absl12lts_2021110211FunctionRefIFvNS3_11string_viewERKS1_EEE, symObjAddr: 0x721C, symBinAddr: 0xED54, symSize: 0x60 }
  - { offsetInCU: 0x507A, offset: 0x9D411, size: 0x8, addend: 0x0, symName: __ZN9grpc_core22SimpleIntBasedMetadataI16grpc_status_codeLS1_2EE12ParseMementoENS_5SliceEN4absl12lts_2021110211FunctionRefIFvNS5_11string_viewERKS3_EEE, symObjAddr: 0x7574, symBinAddr: 0xF0AC, symSize: 0x6C }
  - { offsetInCU: 0x513D, offset: 0x9D4D4, size: 0x8, addend: 0x0, symName: __ZN9grpc_core19GrpcTimeoutMetadata14MementoToValueEx, symObjAddr: 0x774C, symBinAddr: 0xF284, symSize: 0x38 }
  - { offsetInCU: 0x5162, offset: 0x9D4F9, size: 0x8, addend: 0x0, symName: __ZN9grpc_core22SimpleIntBasedMetadataIxLxn9223372036854775808EE12ParseMementoENS_5SliceEN4absl12lts_2021110211FunctionRefIFvNS4_11string_viewERKS2_EEE, symObjAddr: 0x7928, symBinAddr: 0xF460, symSize: 0x6C }
  - { offsetInCU: 0x555F, offset: 0x9D8F6, size: 0x8, addend: 0x0, symName: __ZN9grpc_core17LbCostBinMetadata12ParseMementoENS_5SliceEN4absl12lts_2021110211FunctionRefIFvNS3_11string_viewERKS1_EEE, symObjAddr: 0x8808, symBinAddr: 0x10340, symSize: 0xD0 }
  - { offsetInCU: 0xDC67, offset: 0xA5FFE, size: 0x8, addend: 0x0, symName: __ZNSt3__1L19piecewise_constructE, symObjAddr: 0xD680, symBinAddr: 0x4D9D0, symSize: 0x0 }
  - { offsetInCU: 0x2BA9F, offset: 0xC3E36, size: 0x8, addend: 0x0, symName: __ZNSt3__130__uninitialized_allocator_copyB7v160006INS_9allocatorINS_4pairINS_12basic_stringIcNS_11char_traitsIcEENS1_IcEEEES7_EEEEPS8_SA_SA_EET2_RT_T0_T1_SB_, symObjAddr: 0x4800, symBinAddr: 0xC500, symSize: 0xA0 }
  - { offsetInCU: 0x2BCA7, offset: 0xC403E, size: 0x8, addend: 0x0, symName: __ZNSt3__119__allocate_at_leastB7v160006INS_9allocatorINS_4pairINS_12basic_stringIcNS_11char_traitsIcEENS1_IcEEEES7_EEEEEENS_19__allocation_resultINS_16allocator_traitsIT_E7pointerEEERSC_m, symObjAddr: 0x4988, symBinAddr: 0xC688, symSize: 0x44 }
  - { offsetInCU: 0x2BF10, offset: 0xC42A7, size: 0x8, addend: 0x0, symName: __ZNSt3__142__uninitialized_allocator_move_if_noexceptB7v160006INS_9allocatorINS_4pairINS_12basic_stringIcNS_11char_traitsIcEENS1_IcEEEES7_EEEENS_16reverse_iteratorIPS8_EESC_SC_EET2_RT_T0_T1_SD_, symObjAddr: 0x4EB0, symBinAddr: 0xCB3C, symSize: 0xB4 }
  - { offsetInCU: 0x2D9E4, offset: 0xC5D7B, size: 0x8, addend: 0x0, symName: __ZSt28__throw_bad_array_new_lengthB7v160006v, symObjAddr: 0x1A58, symBinAddr: 0x9758, symSize: 0x28 }
  - { offsetInCU: 0x2E570, offset: 0xC6907, size: 0x8, addend: 0x0, symName: '__ZN4absl12lts_2021110219functional_internal12InvokeObjectIZL14AssignMetadataP19grpc_metadata_batchRKNSt3__16vectorINS5_4pairINS5_12basic_stringIcNS5_11char_traitsIcEENS5_9allocatorIcEEEESD_EENSB_ISE_EEEEE3$_2vJNS0_11string_viewERKN9grpc_core5SliceEEEET0_NS1_7VoidPtrEDpNS1_8ForwardTIT1_E4typeE', symObjAddr: 0x8C58, symBinAddr: 0x10790, symSize: 0x108 }
  - { offsetInCU: 0x2F72B, offset: 0xC7AC2, size: 0x8, addend: 0x0, symName: __ZN4absl12lts_2021110223inlined_vector_internal15DestroyElementsINSt3__19allocatorIN9grpc_core17LbCostBinMetadata9ValueTypeEEEEEvRNS1_12TypeIdentityIT_E4typeENS3_16allocator_traitsISA_E7pointerENSF_9size_typeE, symObjAddr: 0x634C, symBinAddr: 0xDE84, symSize: 0x48 }
  - { offsetInCU: 0x313CA, offset: 0xC9761, size: 0x8, addend: 0x0, symName: __ZN4absl12lts_2021110218container_internal10DeallocateILm8ENSt3__19allocatorINS3_4pairIKiP18grpc_binder_streamEEEEEEvPT0_Pvm, symObjAddr: 0x19C8, symBinAddr: 0x96C8, symSize: 0x18 }
  - { offsetInCU: 0x314C8, offset: 0xC985F, size: 0x8, addend: 0x0, symName: __ZN4absl12lts_2021110218container_internal8AllocateILm8ENSt3__19allocatorINS3_4pairIKiP18grpc_binder_streamEEEEEEPvPT0_m, symObjAddr: 0x19E0, symBinAddr: 0x96E0, symSize: 0x30 }
  - { offsetInCU: 0x32ADB, offset: 0xCAE72, size: 0x8, addend: 0x0, symName: __ZN4absl12lts_2021110218container_internaleqERKNS1_12raw_hash_setINS1_17FlatHashMapPolicyIiP18grpc_binder_streamEENS0_13hash_internal4HashIiEENSt3__18equal_toIiEENSA_9allocatorINSA_4pairIKiS5_EEEEE8iteratorESL_, symObjAddr: 0x1A80, symBinAddr: 0x9780, symSize: 0x40 }
  - { offsetInCU: 0x32B8C, offset: 0xCAF23, size: 0x8, addend: 0x0, symName: __ZN4absl12lts_2021110218container_internal12raw_hash_setINS1_17FlatHashMapPolicyIiP18grpc_binder_streamEENS0_13hash_internal4HashIiEENSt3__18equal_toIiEENSA_9allocatorINSA_4pairIKiS5_EEEEE4findIiEENSI_8iteratorERSF_m, symObjAddr: 0x1AC0, symBinAddr: 0x97C0, symSize: 0xD4 }
  - { offsetInCU: 0x32E2D, offset: 0xCB1C4, size: 0x8, addend: 0x0, symName: __ZN4absl12lts_2021110218container_internal8AllocateILm8ENSt3__19allocatorINS3_4pairIKiP18grpc_binder_streamEEEEEEPvPT0_m, symObjAddr: 0x19E0, symBinAddr: 0x96E0, symSize: 0x30 }
  - { offsetInCU: 0x32F06, offset: 0xCB29D, size: 0x8, addend: 0x0, symName: __ZN4absl12lts_2021110218container_internal12raw_hash_setINS1_17FlatHashMapPolicyIiP18grpc_binder_streamEENS0_13hash_internal4HashIiEENSt3__18equal_toIiEENSA_9allocatorINSA_4pairIKiS5_EEEEE17reset_growth_leftEv, symObjAddr: 0x1A10, symBinAddr: 0x9710, symSize: 0x48 }
  - { offsetInCU: 0x37B23, offset: 0xCFEBA, size: 0x8, addend: 0x0, symName: __ZNSt3__16vectorINS_4pairINS_12basic_stringIcNS_11char_traitsIcEENS_9allocatorIcEEEES7_EENS5_IS8_EEE26__swap_out_circular_bufferERNS_14__split_bufferIS8_RS9_EE, symObjAddr: 0x4E3C, symBinAddr: 0xCAC8, symSize: 0x74 }
  - { offsetInCU: 0x37C7E, offset: 0xD0015, size: 0x8, addend: 0x0, symName: __ZL24perform_stream_op_lockedPvP10grpc_error, symObjAddr: 0x1DAC, symBinAddr: 0x9AAC, symSize: 0xB2C }
  - { offsetInCU: 0x3AB55, offset: 0xD2EEC, size: 0x8, addend: 0x0, symName: __ZL14AssignMetadataP19grpc_metadata_batchRKNSt3__16vectorINS1_4pairINS1_12basic_stringIcNS1_11char_traitsIcEENS1_9allocatorIcEEEES9_EENS7_ISA_EEEE, symObjAddr: 0x5DBC, symBinAddr: 0xD990, symSize: 0x124 }
  - { offsetInCU: 0x3CCEE, offset: 0xD5085, size: 0x8, addend: 0x0, symName: __ZN21grpc_binder_transportC2ENSt3__110unique_ptrIN11grpc_binder6BinderENS0_14default_deleteIS3_EEEEbNS0_10shared_ptrIN4grpc12experimental6binder14SecurityPolicyEEE, symObjAddr: 0x0, symBinAddr: 0x7D3C, symSize: 0x508 }
  - { offsetInCU: 0x3E6CA, offset: 0xD6A61, size: 0x8, addend: 0x0, symName: __ZN21grpc_binder_transportC1ENSt3__110unique_ptrIN11grpc_binder6BinderENS0_14default_deleteIS3_EEEEbNS0_10shared_ptrIN4grpc12experimental6binder14SecurityPolicyEEE, symObjAddr: 0x658, symBinAddr: 0x8364, symSize: 0x4 }
  - { offsetInCU: 0x3E72E, offset: 0xD6AC5, size: 0x8, addend: 0x0, symName: __ZN21grpc_binder_transportC1ENSt3__110unique_ptrIN11grpc_binder6BinderENS0_14default_deleteIS3_EEEEbNS0_10shared_ptrIN4grpc12experimental6binder14SecurityPolicyEEE, symObjAddr: 0x658, symBinAddr: 0x8364, symSize: 0x4 }
  - { offsetInCU: 0x41ABD, offset: 0xD9E54, size: 0x8, addend: 0x0, symName: __ZN11grpc_binder27TransportStreamReceiverImplC2EbNSt3__18functionIFvvEEE, symObjAddr: 0xA0EC, symBinAddr: 0x11B30, symSize: 0x188 }
  - { offsetInCU: 0x425C9, offset: 0xDA960, size: 0x8, addend: 0x0, symName: __ZNSt3__110shared_ptrIN11grpc_binder23TransportStreamReceiverEEaSB7v160006INS1_27TransportStreamReceiverImplEvEERS3_ONS0_IT_EE, symObjAddr: 0x554, symBinAddr: 0x8260, symSize: 0x64 }
  - { offsetInCU: 0x42739, offset: 0xDAAD0, size: 0x8, addend: 0x0, symName: __ZN9grpc_core8RefCount3RefERKNS_13DebugLocationEPKcl, symObjAddr: 0x9E2C, symBinAddr: 0x11870, symSize: 0x70 }
  - { offsetInCU: 0x4281F, offset: 0xDABB6, size: 0x8, addend: 0x0, symName: __ZNSt3__110shared_ptrIN11grpc_binder10WireWriterEEaSB7v160006EOS3_, symObjAddr: 0x5B8, symBinAddr: 0x82C4, symSize: 0x64 }
  - { offsetInCU: 0x429D8, offset: 0xDAD6F, size: 0x8, addend: 0x0, symName: __ZNSt3__110shared_ptrIN11grpc_binder23TransportStreamReceiverEED2B7v160006Ev, symObjAddr: 0x9EFC, symBinAddr: 0x11940, symSize: 0x58 }
  - { offsetInCU: 0x42A65, offset: 0xDADFC, size: 0x8, addend: 0x0, symName: __ZN4absl12lts_2021110218container_internal12raw_hash_setINS1_17FlatHashMapPolicyIiP18grpc_binder_streamEENS0_13hash_internal4HashIiEENSt3__18equal_toIiEENSA_9allocatorINSA_4pairIKiS5_EEEEE13destroy_slotsEv, symObjAddr: 0x9E9C, symBinAddr: 0x118E0, symSize: 0x60 }
  - { offsetInCU: 0x42B14, offset: 0xDAEAB, size: 0x8, addend: 0x0, symName: __ZNSt3__110shared_ptrIN11grpc_binder23TransportStreamReceiverEED2B7v160006Ev, symObjAddr: 0x9EFC, symBinAddr: 0x11940, symSize: 0x58 }
  - { offsetInCU: 0x42B1F, offset: 0xDAEB6, size: 0x8, addend: 0x0, symName: __ZNSt3__110shared_ptrIN11grpc_binder10WireWriterEED2B7v160006Ev, symObjAddr: 0x9F54, symBinAddr: 0x11998, symSize: 0x58 }
  - { offsetInCU: 0x42BAC, offset: 0xDAF43, size: 0x8, addend: 0x0, symName: __ZNSt3__110unique_ptrIN11grpc_binder10WireReaderEN9grpc_core16OrphanableDeleteEED1B7v160006Ev, symObjAddr: 0x61C, symBinAddr: 0x8328, symSize: 0x3C }
  - { offsetInCU: 0x42CAC, offset: 0xDB043, size: 0x8, addend: 0x0, symName: __ZL20accept_stream_lockedPvP10grpc_error, symObjAddr: 0x538, symBinAddr: 0x8244, symSize: 0x1C }
  - { offsetInCU: 0x42E47, offset: 0xDB1DE, size: 0x8, addend: 0x0, symName: __ZN21grpc_binder_transportD2Ev, symObjAddr: 0x65C, symBinAddr: 0x8368, symSize: 0x80 }
  - { offsetInCU: 0x43019, offset: 0xDB3B0, size: 0x8, addend: 0x0, symName: __ZN21grpc_binder_transportD1Ev, symObjAddr: 0x6E8, symBinAddr: 0x83E8, symSize: 0x4 }
  - { offsetInCU: 0x4303C, offset: 0xDB3D3, size: 0x8, addend: 0x0, symName: __ZN21grpc_binder_transportD1Ev, symObjAddr: 0x6E8, symBinAddr: 0x83E8, symSize: 0x4 }
  - { offsetInCU: 0x430E6, offset: 0xDB47D, size: 0x8, addend: 0x0, symName: __Z35grpc_create_binder_transport_clientNSt3__110unique_ptrIN11grpc_binder6BinderENS_14default_deleteIS2_EEEENS_10shared_ptrIN4grpc12experimental6binder14SecurityPolicyEEE, symObjAddr: 0x6EC, symBinAddr: 0x83EC, symSize: 0x12C }
  - { offsetInCU: 0x435F3, offset: 0xDB98A, size: 0x8, addend: 0x0, symName: __Z35grpc_create_binder_transport_clientNSt3__110unique_ptrIN11grpc_binder6BinderENS_14default_deleteIS2_EEEENS_10shared_ptrIN4grpc12experimental6binder14SecurityPolicyEEE.cold.1, symObjAddr: 0xAA9C, symBinAddr: 0x47FD8, symSize: 0x34 }
  - { offsetInCU: 0x4360B, offset: 0xDB9A2, size: 0x8, addend: 0x0, symName: __Z35grpc_create_binder_transport_clientNSt3__110unique_ptrIN11grpc_binder6BinderENS_14default_deleteIS2_EEEENS_10shared_ptrIN4grpc12experimental6binder14SecurityPolicyEEE.cold.2, symObjAddr: 0xAAD0, symBinAddr: 0x4800C, symSize: 0x34 }
  - { offsetInCU: 0x43623, offset: 0xDB9BA, size: 0x8, addend: 0x0, symName: __Z35grpc_create_binder_transport_serverNSt3__110unique_ptrIN11grpc_binder6BinderENS_14default_deleteIS2_EEEENS_10shared_ptrIN4grpc12experimental6binder14SecurityPolicyEEE, symObjAddr: 0x818, symBinAddr: 0x8518, symSize: 0x12C }
  - { offsetInCU: 0x43B30, offset: 0xDBEC7, size: 0x8, addend: 0x0, symName: __Z35grpc_create_binder_transport_serverNSt3__110unique_ptrIN11grpc_binder6BinderENS_14default_deleteIS2_EEEENS_10shared_ptrIN4grpc12experimental6binder14SecurityPolicyEEE.cold.1, symObjAddr: 0xAB04, symBinAddr: 0x48040, symSize: 0x34 }
  - { offsetInCU: 0x43B48, offset: 0xDBEDF, size: 0x8, addend: 0x0, symName: __Z35grpc_create_binder_transport_serverNSt3__110unique_ptrIN11grpc_binder6BinderENS_14default_deleteIS2_EEEENS_10shared_ptrIN4grpc12experimental6binder14SecurityPolicyEEE.cold.2, symObjAddr: 0xAB38, symBinAddr: 0x48074, symSize: 0x34 }
  - { offsetInCU: 0x43BBE, offset: 0xDBF55, size: 0x8, addend: 0x0, symName: __ZL11init_streamP14grpc_transportP11grpc_streamP20grpc_stream_refcountPKvPN9grpc_core5ArenaE, symObjAddr: 0x944, symBinAddr: 0x8644, symSize: 0xA0 }
  - { offsetInCU: 0x43CE0, offset: 0xDC077, size: 0x8, addend: 0x0, symName: __ZN21grpc_binder_transport15NewStreamTxCodeEv, symObjAddr: 0xCF0, symBinAddr: 0x89F0, symSize: 0x38 }
  - { offsetInCU: 0x43D09, offset: 0xDC0A0, size: 0x8, addend: 0x0, symName: __ZN18grpc_binder_streamC2EP21grpc_binder_transportP20grpc_stream_refcountPKvPN9grpc_core5ArenaEib, symObjAddr: 0xD28, symBinAddr: 0x8A28, symSize: 0xF4 }
  - { offsetInCU: 0x43D14, offset: 0xDC0AB, size: 0x8, addend: 0x0, symName: __ZN18grpc_binder_streamC2EP21grpc_binder_transportP20grpc_stream_refcountPKvPN9grpc_core5ArenaEib, symObjAddr: 0xD28, symBinAddr: 0x8A28, symSize: 0xF4 }
  - { offsetInCU: 0x4405C, offset: 0xDC3F3, size: 0x8, addend: 0x0, symName: __ZL11set_pollsetP14grpc_transportP11grpc_streamP12grpc_pollset, symObjAddr: 0x9E4, symBinAddr: 0x86E4, symSize: 0x44 }
  - { offsetInCU: 0x440C3, offset: 0xDC45A, size: 0x8, addend: 0x0, symName: __ZL15set_pollset_setP14grpc_transportP11grpc_streamP16grpc_pollset_set, symObjAddr: 0xA28, symBinAddr: 0x8728, symSize: 0x1C }
  - { offsetInCU: 0x44112, offset: 0xDC4A9, size: 0x8, addend: 0x0, symName: __ZL17perform_stream_opP14grpc_transportP11grpc_streamP30grpc_transport_stream_op_batch, symObjAddr: 0xA44, symBinAddr: 0x8744, symSize: 0xB8 }
  - { offsetInCU: 0x44202, offset: 0xDC599, size: 0x8, addend: 0x0, symName: __ZL22grpc_binder_stream_refP18grpc_binder_streamPKc, symObjAddr: 0x1D1C, symBinAddr: 0x9A1C, symSize: 0x90 }
  - { offsetInCU: 0x44312, offset: 0xDC6A9, size: 0x8, addend: 0x0, symName: __ZL20perform_transport_opP14grpc_transportP17grpc_transport_op, symObjAddr: 0xAFC, symBinAddr: 0x87FC, symSize: 0xB0 }
  - { offsetInCU: 0x4447F, offset: 0xDC816, size: 0x8, addend: 0x0, symName: __ZL14destroy_streamP14grpc_transportP11grpc_streamP12grpc_closure, symObjAddr: 0xBAC, symBinAddr: 0x88AC, symSize: 0x84 }
  - { offsetInCU: 0x44587, offset: 0xDC91E, size: 0x8, addend: 0x0, symName: __ZL17destroy_transportP14grpc_transport, symObjAddr: 0xC30, symBinAddr: 0x8930, symSize: 0x90 }
  - { offsetInCU: 0x4468E, offset: 0xDCA25, size: 0x8, addend: 0x0, symName: __ZL12get_endpointP14grpc_transport, symObjAddr: 0xCC0, symBinAddr: 0x89C0, symSize: 0x30 }
  - { offsetInCU: 0x446D4, offset: 0xDCA6B, size: 0x8, addend: 0x0, symName: __ZN21grpc_binder_transport15NewStreamTxCodeEv.cold.1, symObjAddr: 0xAB6C, symBinAddr: 0x480A8, symSize: 0x34 }
  - { offsetInCU: 0x448F3, offset: 0xDCC8A, size: 0x8, addend: 0x0, symName: __ZN4absl12lts_202111028StatusOrINSt3__16vectorINS2_4pairINS2_12basic_stringIcNS2_11char_traitsIcEENS2_9allocatorIcEEEESA_EENS8_ISB_EEEEEC2Ev, symObjAddr: 0xE58, symBinAddr: 0x8B58, symSize: 0x70 }
  - { offsetInCU: 0x449A2, offset: 0xDCD39, size: 0x8, addend: 0x0, symName: __ZN4absl12lts_202111028StatusOrINSt3__112basic_stringIcNS2_11char_traitsIcEENS2_9allocatorIcEEEEEC2Ev, symObjAddr: 0xF20, symBinAddr: 0x8C20, symSize: 0x70 }
  - { offsetInCU: 0x44A5C, offset: 0xDCDF3, size: 0x8, addend: 0x0, symName: __ZN4absl12lts_2021110218container_internal12raw_hash_mapINS1_17FlatHashMapPolicyIiP18grpc_binder_streamEENS0_13hash_internal4HashIiEENSt3__18equal_toIiEENSA_9allocatorINSA_4pairIKiS5_EEEEEixIiS6_EEDTclsrT0_5valueclL_ZNSA_9addressofB7v160006ISG_EEPT_RSM_EclL_ZNSA_7declvalIRSG_EEDTclsr3stdE9__declvalISM_ELi0EEEvEEEEERSF_, symObjAddr: 0xE1C, symBinAddr: 0x8B1C, symSize: 0x3C }
  - { offsetInCU: 0x44B41, offset: 0xDCED8, size: 0x8, addend: 0x0, symName: __ZN4absl12lts_202111028StatusOrINSt3__16vectorINS2_4pairINS2_12basic_stringIcNS2_11char_traitsIcEENS2_9allocatorIcEEEESA_EENS8_ISB_EEEEEC2Ev, symObjAddr: 0xE58, symBinAddr: 0x8B58, symSize: 0x70 }
  - { offsetInCU: 0x44B5E, offset: 0xDCEF5, size: 0x8, addend: 0x0, symName: __ZN4absl12lts_2021110217internal_statusor12StatusOrDataINSt3__16vectorINS3_4pairINS3_12basic_stringIcNS3_11char_traitsIcEENS3_9allocatorIcEEEESB_EENS9_ISC_EEEEED2Ev, symObjAddr: 0x1B94, symBinAddr: 0x9894, symSize: 0x40 }
  - { offsetInCU: 0x44C45, offset: 0xDCFDC, size: 0x8, addend: 0x0, symName: __ZN4absl12lts_2021110217internal_statusor12StatusOrDataINSt3__112basic_stringIcNS3_11char_traitsIcEENS3_9allocatorIcEEEEED2Ev, symObjAddr: 0x1CD4, symBinAddr: 0x99D4, symSize: 0x48 }
  - { offsetInCU: 0x44EB6, offset: 0xDD24D, size: 0x8, addend: 0x0, symName: __ZN4absl12lts_2021110218container_internal12raw_hash_mapINS1_17FlatHashMapPolicyIiP18grpc_binder_streamEENS0_13hash_internal4HashIiEENSt3__18equal_toIiEENSA_9allocatorINSA_4pairIKiS5_EEEEE16try_emplace_implIRSF_JEEENSE_INS1_12raw_hash_setIS6_S9_SC_SH_E8iteratorEbEEOT_DpOT0_, symObjAddr: 0xFE8, symBinAddr: 0x8CE8, symSize: 0x90 }
  - { offsetInCU: 0x44FE1, offset: 0xDD378, size: 0x8, addend: 0x0, symName: __ZN4absl12lts_2021110218container_internal12raw_hash_setINS1_17FlatHashMapPolicyIiP18grpc_binder_streamEENS0_13hash_internal4HashIiEENSt3__18equal_toIiEENSA_9allocatorINSA_4pairIKiS5_EEEEE22find_or_prepare_insertIiEENSE_ImbEERKT_, symObjAddr: 0x1078, symBinAddr: 0x8D78, symSize: 0x100 }
  - { offsetInCU: 0x44FFB, offset: 0xDD392, size: 0x8, addend: 0x0, symName: __ZN4absl12lts_2021110218container_internal12raw_hash_mapINS1_17FlatHashMapPolicyIiP18grpc_binder_streamEENS0_13hash_internal4HashIiEENSt3__18equal_toIiEENSA_9allocatorINSA_4pairIKiS5_EEEEEixIiS6_EEDTclsrT0_5valueclL_ZNSA_9addressofB7v160006ISG_EEPT_RSM_EclL_ZNSA_7declvalIRSG_EEDTclsr3stdE9__declvalISM_ELi0EEEvEEEEERSF_.cold.1, symObjAddr: 0xABA0, symBinAddr: 0x480DC, symSize: 0x24 }
  - { offsetInCU: 0x45072, offset: 0xDD409, size: 0x8, addend: 0x0, symName: __ZN4absl12lts_2021110217internal_statusor12StatusOrDataINSt3__16vectorINS3_4pairINS3_12basic_stringIcNS3_11char_traitsIcEENS3_9allocatorIcEEEESB_EENS9_ISC_EEEEEC2INS0_6StatusELi0EEEOT_, symObjAddr: 0xEC8, symBinAddr: 0x8BC8, symSize: 0x58 }
  - { offsetInCU: 0x45212, offset: 0xDD5A9, size: 0x8, addend: 0x0, symName: __ZN4absl12lts_2021110217internal_statusor12StatusOrDataINSt3__112basic_stringIcNS3_11char_traitsIcEENS3_9allocatorIcEEEEEC2INS0_6StatusELi0EEEOT_, symObjAddr: 0xF90, symBinAddr: 0x8C90, symSize: 0x58 }
  - { offsetInCU: 0x45472, offset: 0xDD809, size: 0x8, addend: 0x0, symName: __ZN4absl12lts_2021110218container_internal12raw_hash_setINS1_17FlatHashMapPolicyIiP18grpc_binder_streamEENS0_13hash_internal4HashIiEENSt3__18equal_toIiEENSA_9allocatorINSA_4pairIKiS5_EEEEE22find_or_prepare_insertIiEENSE_ImbEERKT_, symObjAddr: 0x1078, symBinAddr: 0x8D78, symSize: 0x100 }
  - { offsetInCU: 0x45812, offset: 0xDDBA9, size: 0x8, addend: 0x0, symName: __ZN4absl12lts_2021110218container_internal12raw_hash_setINS1_17FlatHashMapPolicyIiP18grpc_binder_streamEENS0_13hash_internal4HashIiEENSt3__18equal_toIiEENSA_9allocatorINSA_4pairIKiS5_EEEEE10emplace_atIJRKNSA_21piecewise_construct_tENSA_5tupleIJRSF_EEENSN_IJEEEEEEvmDpOT_, symObjAddr: 0x1178, symBinAddr: 0x8E78, symSize: 0xBC }
  - { offsetInCU: 0x45838, offset: 0xDDBCF, size: 0x8, addend: 0x0, symName: __ZN4absl12lts_2021110218container_internal12raw_hash_setINS1_17FlatHashMapPolicyIiP18grpc_binder_streamEENS0_13hash_internal4HashIiEENSt3__18equal_toIiEENSA_9allocatorINSA_4pairIKiS5_EEEEE10emplace_atIJRKNSA_21piecewise_construct_tENSA_5tupleIJRSF_EEENSN_IJEEEEEEvmDpOT_, symObjAddr: 0x1178, symBinAddr: 0x8E78, symSize: 0xBC }
  - { offsetInCU: 0x45D50, offset: 0xDE0E7, size: 0x8, addend: 0x0, symName: __ZN4absl12lts_2021110218container_internal12raw_hash_setINS1_17FlatHashMapPolicyIiP18grpc_binder_streamEENS0_13hash_internal4HashIiEENSt3__18equal_toIiEENSA_9allocatorINSA_4pairIKiS5_EEEEE14prepare_insertEm, symObjAddr: 0x1234, symBinAddr: 0x8F34, symSize: 0x194 }
  - { offsetInCU: 0x45D70, offset: 0xDE107, size: 0x8, addend: 0x0, symName: __ZN4absl12lts_2021110218container_internal12raw_hash_mapINS1_17FlatHashMapPolicyIiP18grpc_binder_streamEENS0_13hash_internal4HashIiEENSt3__18equal_toIiEENSA_9allocatorINSA_4pairIKiS5_EEEEE16try_emplace_implIRSF_JEEENSE_INS1_12raw_hash_setIS6_S9_SC_SH_E8iteratorEbEEOT_DpOT0_.cold.1, symObjAddr: 0xABC4, symBinAddr: 0x48100, symSize: 0x24 }
  - { offsetInCU: 0x460D7, offset: 0xDE46E, size: 0x8, addend: 0x0, symName: __ZN4absl12lts_2021110218container_internal12raw_hash_setINS1_17FlatHashMapPolicyIiP18grpc_binder_streamEENS0_13hash_internal4HashIiEENSt3__18equal_toIiEENSA_9allocatorINSA_4pairIKiS5_EEEEE22find_or_prepare_insertIiEENSE_ImbEERKT_.cold.1, symObjAddr: 0xABE8, symBinAddr: 0x48124, symSize: 0x28 }
  - { offsetInCU: 0x460EF, offset: 0xDE486, size: 0x8, addend: 0x0, symName: __ZN4absl12lts_2021110218container_internal12raw_hash_setINS1_17FlatHashMapPolicyIiP18grpc_binder_streamEENS0_13hash_internal4HashIiEENSt3__18equal_toIiEENSA_9allocatorINSA_4pairIKiS5_EEEEE14prepare_insertEm, symObjAddr: 0x1234, symBinAddr: 0x8F34, symSize: 0x194 }
  - { offsetInCU: 0x4647C, offset: 0xDE813, size: 0x8, addend: 0x0, symName: __ZN4absl12lts_2021110218container_internal12raw_hash_setINS1_17FlatHashMapPolicyIiP18grpc_binder_streamEENS0_13hash_internal4HashIiEENSt3__18equal_toIiEENSA_9allocatorINSA_4pairIKiS5_EEEEE22find_or_prepare_insertIiEENSE_ImbEERKT_.cold.2, symObjAddr: 0xAC10, symBinAddr: 0x4814C, symSize: 0x24 }
  - { offsetInCU: 0x46AD8, offset: 0xDEE6F, size: 0x8, addend: 0x0, symName: __ZN4absl12lts_2021110218container_internal12raw_hash_setINS1_17FlatHashMapPolicyIiP18grpc_binder_streamEENS0_13hash_internal4HashIiEENSt3__18equal_toIiEENSA_9allocatorINSA_4pairIKiS5_EEEEE4findIiEENSI_8iteratorERSF_m, symObjAddr: 0x1AC0, symBinAddr: 0x97C0, symSize: 0xD4 }
  - { offsetInCU: 0x46E9A, offset: 0xDF231, size: 0x8, addend: 0x0, symName: __ZN4absl12lts_2021110217internal_statusor12StatusOrDataINSt3__16vectorINS3_4pairINS3_12basic_stringIcNS3_11char_traitsIcEENS3_9allocatorIcEEEESB_EENS9_ISC_EEEEED2Ev, symObjAddr: 0x1B94, symBinAddr: 0x9894, symSize: 0x40 }
  - { offsetInCU: 0x46EAE, offset: 0xDF245, size: 0x8, addend: 0x0, symName: __ZN4absl12lts_2021110218container_internal12raw_hash_setINS1_17FlatHashMapPolicyIiP18grpc_binder_streamEENS0_13hash_internal4HashIiEENSt3__18equal_toIiEENSA_9allocatorINSA_4pairIKiS5_EEEEE10emplace_atIJRKNSA_21piecewise_construct_tENSA_5tupleIJRSF_EEENSN_IJEEEEEEvmDpOT_.cold.1, symObjAddr: 0xAC34, symBinAddr: 0x48170, symSize: 0x24 }
  - { offsetInCU: 0x46F0B, offset: 0xDF2A2, size: 0x8, addend: 0x0, symName: __ZN4absl12lts_2021110218container_internal12raw_hash_setINS1_17FlatHashMapPolicyIiP18grpc_binder_streamEENS0_13hash_internal4HashIiEENSt3__18equal_toIiEENSA_9allocatorINSA_4pairIKiS5_EEEEE10emplace_atIJRKNSA_21piecewise_construct_tENSA_5tupleIJRSF_EEENSN_IJEEEEEEvmDpOT_.cold.4, symObjAddr: 0xACA4, symBinAddr: 0x481E0, symSize: 0x24 }
  - { offsetInCU: 0x46F68, offset: 0xDF2FF, size: 0x8, addend: 0x0, symName: __ZN4absl12lts_2021110218container_internal12raw_hash_setINS1_17FlatHashMapPolicyIiP18grpc_binder_streamEENS0_13hash_internal4HashIiEENSt3__18equal_toIiEENSA_9allocatorINSA_4pairIKiS5_EEEEE10emplace_atIJRKNSA_21piecewise_construct_tENSA_5tupleIJRSF_EEENSN_IJEEEEEEvmDpOT_.cold.2, symObjAddr: 0xAC58, symBinAddr: 0x48194, symSize: 0x24 }
  - { offsetInCU: 0x46FC5, offset: 0xDF35C, size: 0x8, addend: 0x0, symName: __ZN4absl12lts_2021110218container_internal12raw_hash_setINS1_17FlatHashMapPolicyIiP18grpc_binder_streamEENS0_13hash_internal4HashIiEENSt3__18equal_toIiEENSA_9allocatorINSA_4pairIKiS5_EEEEE10emplace_atIJRKNSA_21piecewise_construct_tENSA_5tupleIJRSF_EEENSN_IJEEEEEEvmDpOT_.cold.3, symObjAddr: 0xAC7C, symBinAddr: 0x481B8, symSize: 0x28 }
  - { offsetInCU: 0x47016, offset: 0xDF3AD, size: 0x8, addend: 0x0, symName: __ZN4absl12lts_2021110218container_internal12raw_hash_setINS1_17FlatHashMapPolicyIiP18grpc_binder_streamEENS0_13hash_internal4HashIiEENSt3__18equal_toIiEENSA_9allocatorINSA_4pairIKiS5_EEEEE28rehash_and_grow_if_necessaryEv, symObjAddr: 0x13C8, symBinAddr: 0x90C8, symSize: 0x3C }
  - { offsetInCU: 0x470A0, offset: 0xDF437, size: 0x8, addend: 0x0, symName: __ZN4absl12lts_2021110218container_internal12raw_hash_setINS1_17FlatHashMapPolicyIiP18grpc_binder_streamEENS0_13hash_internal4HashIiEENSt3__18equal_toIiEENSA_9allocatorINSA_4pairIKiS5_EEEEE6resizeEm, symObjAddr: 0x1404, symBinAddr: 0x9104, symSize: 0x1D4 }
  - { offsetInCU: 0x476AA, offset: 0xDFA41, size: 0x8, addend: 0x0, symName: __ZN4absl12lts_2021110218container_internal12raw_hash_setINS1_17FlatHashMapPolicyIiP18grpc_binder_streamEENS0_13hash_internal4HashIiEENSt3__18equal_toIiEENSA_9allocatorINSA_4pairIKiS5_EEEEE27drop_deletes_without_resizeEv, symObjAddr: 0x15D8, symBinAddr: 0x92D8, symSize: 0x354 }
  - { offsetInCU: 0x476B5, offset: 0xDFA4C, size: 0x8, addend: 0x0, symName: __ZN4absl12lts_2021110218container_internal12raw_hash_setINS1_17FlatHashMapPolicyIiP18grpc_binder_streamEENS0_13hash_internal4HashIiEENSt3__18equal_toIiEENSA_9allocatorINSA_4pairIKiS5_EEEEE27drop_deletes_without_resizeEv, symObjAddr: 0x15D8, symBinAddr: 0x92D8, symSize: 0x354 }
  - { offsetInCU: 0x4828E, offset: 0xE0625, size: 0x8, addend: 0x0, symName: __ZN4absl12lts_2021110218container_internal12raw_hash_setINS1_17FlatHashMapPolicyIiP18grpc_binder_streamEENS0_13hash_internal4HashIiEENSt3__18equal_toIiEENSA_9allocatorINSA_4pairIKiS5_EEEEE16initialize_slotsEv, symObjAddr: 0x192C, symBinAddr: 0x962C, symSize: 0x9C }
  - { offsetInCU: 0x483F7, offset: 0xE078E, size: 0x8, addend: 0x0, symName: __ZN4absl12lts_2021110218container_internal10DeallocateILm8ENSt3__19allocatorINS3_4pairIKiP18grpc_binder_streamEEEEEEvPT0_Pvm, symObjAddr: 0x19C8, symBinAddr: 0x96C8, symSize: 0x18 }
  - { offsetInCU: 0x48402, offset: 0xE0799, size: 0x8, addend: 0x0, symName: __ZN4absl12lts_2021110218container_internal12raw_hash_setINS1_17FlatHashMapPolicyIiP18grpc_binder_streamEENS0_13hash_internal4HashIiEENSt3__18equal_toIiEENSA_9allocatorINSA_4pairIKiS5_EEEEE6resizeEm.cold.1, symObjAddr: 0xACC8, symBinAddr: 0x48204, symSize: 0x28 }
  - { offsetInCU: 0x48431, offset: 0xE07C8, size: 0x8, addend: 0x0, symName: __ZN4absl12lts_2021110218container_internal12raw_hash_setINS1_17FlatHashMapPolicyIiP18grpc_binder_streamEENS0_13hash_internal4HashIiEENSt3__18equal_toIiEENSA_9allocatorINSA_4pairIKiS5_EEEEE6resizeEm.cold.4, symObjAddr: 0xAD3C, symBinAddr: 0x48278, symSize: 0x24 }
  - { offsetInCU: 0x484A4, offset: 0xE083B, size: 0x8, addend: 0x0, symName: __ZN4absl12lts_2021110218container_internal12raw_hash_setINS1_17FlatHashMapPolicyIiP18grpc_binder_streamEENS0_13hash_internal4HashIiEENSt3__18equal_toIiEENSA_9allocatorINSA_4pairIKiS5_EEEEE6resizeEm.cold.3, symObjAddr: 0xAD14, symBinAddr: 0x48250, symSize: 0x28 }
  - { offsetInCU: 0x484EA, offset: 0xE0881, size: 0x8, addend: 0x0, symName: __ZN4absl12lts_2021110218container_internal12raw_hash_setINS1_17FlatHashMapPolicyIiP18grpc_binder_streamEENS0_13hash_internal4HashIiEENSt3__18equal_toIiEENSA_9allocatorINSA_4pairIKiS5_EEEEE6resizeEm.cold.5, symObjAddr: 0xAD60, symBinAddr: 0x4829C, symSize: 0x28 }
  - { offsetInCU: 0x48502, offset: 0xE0899, size: 0x8, addend: 0x0, symName: __ZN4absl12lts_2021110218container_internal12raw_hash_setINS1_17FlatHashMapPolicyIiP18grpc_binder_streamEENS0_13hash_internal4HashIiEENSt3__18equal_toIiEENSA_9allocatorINSA_4pairIKiS5_EEEEE6resizeEm.cold.2, symObjAddr: 0xACF0, symBinAddr: 0x4822C, symSize: 0x24 }
  - { offsetInCU: 0x4857E, offset: 0xE0915, size: 0x8, addend: 0x0, symName: __ZN4absl12lts_2021110218container_internal12raw_hash_setINS1_17FlatHashMapPolicyIiP18grpc_binder_streamEENS0_13hash_internal4HashIiEENSt3__18equal_toIiEENSA_9allocatorINSA_4pairIKiS5_EEEEE17reset_growth_leftEv, symObjAddr: 0x1A10, symBinAddr: 0x9710, symSize: 0x48 }
  - { offsetInCU: 0x485FC, offset: 0xE0993, size: 0x8, addend: 0x0, symName: __ZSt28__throw_bad_array_new_lengthB7v160006v, symObjAddr: 0x1A58, symBinAddr: 0x9758, symSize: 0x28 }
  - { offsetInCU: 0x48607, offset: 0xE099E, size: 0x8, addend: 0x0, symName: __ZN4absl12lts_2021110218container_internal12raw_hash_setINS1_17FlatHashMapPolicyIiP18grpc_binder_streamEENS0_13hash_internal4HashIiEENSt3__18equal_toIiEENSA_9allocatorINSA_4pairIKiS5_EEEEE16initialize_slotsEv.cold.1, symObjAddr: 0xAD88, symBinAddr: 0x482C4, symSize: 0x28 }
  - { offsetInCU: 0x4861F, offset: 0xE09B6, size: 0x8, addend: 0x0, symName: __ZN4absl12lts_2021110218container_internal12raw_hash_setINS1_17FlatHashMapPolicyIiP18grpc_binder_streamEENS0_13hash_internal4HashIiEENSt3__18equal_toIiEENSA_9allocatorINSA_4pairIKiS5_EEEEE16initialize_slotsEv.cold.3, symObjAddr: 0xADD4, symBinAddr: 0x48310, symSize: 0x24 }
  - { offsetInCU: 0x48665, offset: 0xE09FC, size: 0x8, addend: 0x0, symName: __ZN4absl12lts_2021110218container_internal12raw_hash_setINS1_17FlatHashMapPolicyIiP18grpc_binder_streamEENS0_13hash_internal4HashIiEENSt3__18equal_toIiEENSA_9allocatorINSA_4pairIKiS5_EEEEE16initialize_slotsEv.cold.2, symObjAddr: 0xADB0, symBinAddr: 0x482EC, symSize: 0x24 }
  - { offsetInCU: 0x486FC, offset: 0xE0A93, size: 0x8, addend: 0x0, symName: __ZN4absl12lts_2021110218container_internal10DeallocateILm8ENSt3__19allocatorINS3_4pairIKiP18grpc_binder_streamEEEEEEvPT0_Pvm.cold.1, symObjAddr: 0xADF8, symBinAddr: 0x48334, symSize: 0x28 }
  - { offsetInCU: 0x48758, offset: 0xE0AEF, size: 0x8, addend: 0x0, symName: __ZN4absl12lts_2021110218container_internal8AllocateILm8ENSt3__19allocatorINS3_4pairIKiP18grpc_binder_streamEEEEEEPvPT0_m.cold.1, symObjAddr: 0xAE20, symBinAddr: 0x4835C, symSize: 0x28 }
  - { offsetInCU: 0x48770, offset: 0xE0B07, size: 0x8, addend: 0x0, symName: __ZN4absl12lts_2021110218container_internal8AllocateILm8ENSt3__19allocatorINS3_4pairIKiP18grpc_binder_streamEEEEEEPvPT0_m.cold.2, symObjAddr: 0xAE48, symBinAddr: 0x48384, symSize: 0x28 }
  - { offsetInCU: 0x4879E, offset: 0xE0B35, size: 0x8, addend: 0x0, symName: __ZN4absl12lts_2021110218container_internal12raw_hash_setINS1_17FlatHashMapPolicyIiP18grpc_binder_streamEENS0_13hash_internal4HashIiEENSt3__18equal_toIiEENSA_9allocatorINSA_4pairIKiS5_EEEEE17reset_growth_leftEv.cold.1, symObjAddr: 0xAE70, symBinAddr: 0x483AC, symSize: 0x28 }
  - { offsetInCU: 0x487F6, offset: 0xE0B8D, size: 0x8, addend: 0x0, symName: __ZN4absl12lts_2021110218container_internaleqERKNS1_12raw_hash_setINS1_17FlatHashMapPolicyIiP18grpc_binder_streamEENS0_13hash_internal4HashIiEENSt3__18equal_toIiEENSA_9allocatorINSA_4pairIKiS5_EEEEE8iteratorESL_.cold.2, symObjAddr: 0xAEC0, symBinAddr: 0x483FC, symSize: 0x28 }
  - { offsetInCU: 0x4883C, offset: 0xE0BD3, size: 0x8, addend: 0x0, symName: __ZN4absl12lts_2021110218container_internaleqERKNS1_12raw_hash_setINS1_17FlatHashMapPolicyIiP18grpc_binder_streamEENS0_13hash_internal4HashIiEENSt3__18equal_toIiEENSA_9allocatorINSA_4pairIKiS5_EEEEE8iteratorESL_.cold.1, symObjAddr: 0xAE98, symBinAddr: 0x483D4, symSize: 0x28 }
  - { offsetInCU: 0x48882, offset: 0xE0C19, size: 0x8, addend: 0x0, symName: __ZN4absl12lts_2021110218container_internal12raw_hash_setINS1_17FlatHashMapPolicyIiP18grpc_binder_streamEENS0_13hash_internal4HashIiEENSt3__18equal_toIiEENSA_9allocatorINSA_4pairIKiS5_EEEEE4findIiEENSI_8iteratorERSF_m.cold.1, symObjAddr: 0xAEE8, symBinAddr: 0x48424, symSize: 0x28 }
  - { offsetInCU: 0x4889A, offset: 0xE0C31, size: 0x8, addend: 0x0, symName: __ZN4absl12lts_2021110218container_internal12raw_hash_setINS1_17FlatHashMapPolicyIiP18grpc_binder_streamEENS0_13hash_internal4HashIiEENSt3__18equal_toIiEENSA_9allocatorINSA_4pairIKiS5_EEEEE4findIiEENSI_8iteratorERSF_m.cold.3, symObjAddr: 0xAF34, symBinAddr: 0x48470, symSize: 0x24 }
  - { offsetInCU: 0x488F6, offset: 0xE0C8D, size: 0x8, addend: 0x0, symName: __ZN4absl12lts_2021110218container_internal12raw_hash_setINS1_17FlatHashMapPolicyIiP18grpc_binder_streamEENS0_13hash_internal4HashIiEENSt3__18equal_toIiEENSA_9allocatorINSA_4pairIKiS5_EEEEE4findIiEENSI_8iteratorERSF_m.cold.2, symObjAddr: 0xAF10, symBinAddr: 0x4844C, symSize: 0x24 }
  - { offsetInCU: 0x4896D, offset: 0xE0D04, size: 0x8, addend: 0x0, symName: __ZNSt3__16vectorINS_4pairINS_12basic_stringIcNS_11char_traitsIcEENS_9allocatorIcEEEES7_EENS5_IS8_EEED2B7v160006Ev, symObjAddr: 0x1BD4, symBinAddr: 0x98D4, symSize: 0x38 }
  - { offsetInCU: 0x48A4D, offset: 0xE0DE4, size: 0x8, addend: 0x0, symName: __ZNSt3__16vectorINS_4pairINS_12basic_stringIcNS_11char_traitsIcEENS_9allocatorIcEEEES7_EENS5_IS8_EEE16__destroy_vectorclB7v160006Ev, symObjAddr: 0x1C0C, symBinAddr: 0x990C, symSize: 0x84 }
  - { offsetInCU: 0x48C83, offset: 0xE101A, size: 0x8, addend: 0x0, symName: __ZNSt3__19allocatorINS_4pairINS_12basic_stringIcNS_11char_traitsIcEENS0_IcEEEES6_EEE7destroyB7v160006EPS7_, symObjAddr: 0x1C90, symBinAddr: 0x9990, symSize: 0x44 }
  - { offsetInCU: 0x4906F, offset: 0xE1406, size: 0x8, addend: 0x0, symName: __ZN9grpc_core8RefCount10RefNonZeroERKNS_13DebugLocationEPKc, symObjAddr: 0x28D8, symBinAddr: 0xA5D8, symSize: 0x84 }
  - { offsetInCU: 0x49156, offset: 0xE14ED, size: 0x8, addend: 0x0, symName: __ZN11grpc_binder11Transaction9SetSuffixENSt3__16vectorINS1_4pairINS1_12basic_stringIcNS1_11char_traitsIcEENS1_9allocatorIcEEEES9_EENS7_ISA_EEEE, symObjAddr: 0x295C, symBinAddr: 0xA65C, symSize: 0x70 }
  - { offsetInCU: 0x4A3A2, offset: 0xE2739, size: 0x8, addend: 0x0, symName: __ZN11grpc_binder11Transaction9SetSuffixENSt3__16vectorINS1_4pairINS1_12basic_stringIcNS1_11char_traitsIcEENS1_9allocatorIcEEEES9_EENS7_ISA_EEEE, symObjAddr: 0x295C, symBinAddr: 0xA65C, symSize: 0x70 }
  - { offsetInCU: 0x4A439, offset: 0xE27D0, size: 0x8, addend: 0x0, symName: __ZN11grpc_binder11Transaction9SetStatusEi, symObjAddr: 0x29CC, symBinAddr: 0xA6CC, symSize: 0x40 }
  - { offsetInCU: 0x4A444, offset: 0xE27DB, size: 0x8, addend: 0x0, symName: __ZN11grpc_binder11Transaction9SetStatusEi, symObjAddr: 0x29CC, symBinAddr: 0xA6CC, symSize: 0x40 }
  - { offsetInCU: 0x4A499, offset: 0xE2830, size: 0x8, addend: 0x0, symName: __ZN11grpc_binder11TransactionD1Ev, symObjAddr: 0x2A0C, symBinAddr: 0xA70C, symSize: 0x60 }
  - { offsetInCU: 0x4A4A4, offset: 0xE283B, size: 0x8, addend: 0x0, symName: __ZL20cancel_stream_lockedP21grpc_binder_transportP18grpc_binder_streamP10grpc_error, symObjAddr: 0x2A6C, symBinAddr: 0xA76C, symSize: 0x1E8 }
  - { offsetInCU: 0x4A818, offset: 0xE2BAF, size: 0x8, addend: 0x0, symName: __ZNK9grpc_core11MetadataMapI19grpc_metadata_batchJNS_16HttpPathMetadataENS_21HttpAuthorityMetadataENS_18HttpMethodMetadataENS_18HttpStatusMetadataENS_18HttpSchemeMetadataENS_19ContentTypeMetadataENS_10TeMetadataENS_20GrpcEncodingMetadataENS_27GrpcInternalEncodingRequestENS_26GrpcAcceptEncodingMetadataENS_18GrpcStatusMetadataENS_19GrpcTimeoutMetadataENS_31GrpcPreviousRpcAttemptsMetadataENS_27GrpcRetryPushbackMsMetadataENS_17UserAgentMetadataENS_19GrpcMessageMetadataENS_12HostMetadataENS_31XEndpointLoadMetricsBinMetadataENS_26GrpcServerStatsBinMetadataENS_20GrpcTraceBinMetadataENS_19GrpcTagsBinMetadataENS_25GrpcLbClientStatsMetadataENS_17LbCostBinMetadataENS_15LbTokenMetadataEEE6EncodeIN11grpc_binder12_GLOBAL__N_115MetadataEncoderEEEvPT_, symObjAddr: 0x2CF4, symBinAddr: 0xA9F4, symSize: 0x17C8 }
  - { offsetInCU: 0x55FE0, offset: 0xEE377, size: 0x8, addend: 0x0, symName: __ZNSt3__16vectorINS_4pairINS_12basic_stringIcNS_11char_traitsIcEENS_9allocatorIcEEEES7_EENS5_IS8_EEEC2ERKSA_, symObjAddr: 0x5580, symBinAddr: 0xD20C, symSize: 0xB4 }
  - { offsetInCU: 0x5625A, offset: 0xEE5F1, size: 0x8, addend: 0x0, symName: __ZN11grpc_binder11Transaction9SetPrefixENSt3__16vectorINS1_4pairINS1_12basic_stringIcNS1_11char_traitsIcEENS1_9allocatorIcEEEES9_EENS7_ISA_EEEE, symObjAddr: 0x44BC, symBinAddr: 0xC1BC, symSize: 0x58 }
  - { offsetInCU: 0x562C7, offset: 0xEE65E, size: 0x8, addend: 0x0, symName: __ZN11grpc_binder11Transaction7SetDataENSt3__112basic_stringIcNS1_11char_traitsIcEENS1_9allocatorIcEEEE, symObjAddr: 0x4514, symBinAddr: 0xC214, symSize: 0x48 }
  - { offsetInCU: 0x562D2, offset: 0xEE669, size: 0x8, addend: 0x0, symName: __ZNSt3__112basic_stringIcNS_11char_traitsIcEENS_9allocatorIcEEEC2B7v160006EPKcm, symObjAddr: 0x5668, symBinAddr: 0xD2F4, symSize: 0x94 }
  - { offsetInCU: 0x56622, offset: 0xEE9B9, size: 0x8, addend: 0x0, symName: __ZN11grpc_binder11Transaction7SetDataENSt3__112basic_stringIcNS1_11char_traitsIcEENS1_9allocatorIcEEEE, symObjAddr: 0x4514, symBinAddr: 0xC214, symSize: 0x48 }
  - { offsetInCU: 0x5665B, offset: 0xEE9F2, size: 0x8, addend: 0x0, symName: __ZNSt3__16vectorINS_4pairINS_12basic_stringIcNS_11char_traitsIcEENS_9allocatorIcEEEES7_EENS5_IS8_EEE6assignIPS8_Li0EEEvT_SD_, symObjAddr: 0x455C, symBinAddr: 0xC25C, symSize: 0x17C }
  - { offsetInCU: 0x56685, offset: 0xEEA1C, size: 0x8, addend: 0x0, symName: __ZL24grpc_binder_stream_unrefP18grpc_binder_streamPKc, symObjAddr: 0x2C54, symBinAddr: 0xA954, symSize: 0xA0 }
  - { offsetInCU: 0x567BC, offset: 0xEEB53, size: 0x8, addend: 0x0, symName: __ZL24perform_stream_op_lockedPvP10grpc_error.cold.1, symObjAddr: 0xAF58, symBinAddr: 0x48494, symSize: 0x34 }
  - { offsetInCU: 0x567D4, offset: 0xEEB6B, size: 0x8, addend: 0x0, symName: __ZN11grpc_binder11TransactionD1Ev, symObjAddr: 0x2A0C, symBinAddr: 0xA70C, symSize: 0x60 }
  - { offsetInCU: 0x56C4F, offset: 0xEEFE6, size: 0x8, addend: 0x0, symName: __ZN9grpc_core8RefCount10RefNonZeroERKNS_13DebugLocationEPKc.cold.1, symObjAddr: 0xAF8C, symBinAddr: 0x484C8, symSize: 0x28 }
  - { offsetInCU: 0x56CA2, offset: 0xEF039, size: 0x8, addend: 0x0, symName: __ZNSt3__16vectorINS_4pairINS_12basic_stringIcNS_11char_traitsIcEENS_9allocatorIcEEEES7_EENS5_IS8_EEE6assignIPS8_Li0EEEvT_SD_, symObjAddr: 0x455C, symBinAddr: 0xC25C, symSize: 0x17C }
  - { offsetInCU: 0x5711A, offset: 0xEF4B1, size: 0x8, addend: 0x0, symName: __ZN11grpc_binder11Transaction9SetSuffixENSt3__16vectorINS1_4pairINS1_12basic_stringIcNS1_11char_traitsIcEENS1_9allocatorIcEEEES9_EENS7_ISA_EEEE.cold.1, symObjAddr: 0xAFB4, symBinAddr: 0x484F0, symSize: 0x34 }
  - { offsetInCU: 0x57132, offset: 0xEF4C9, size: 0x8, addend: 0x0, symName: __ZN11grpc_binder11Transaction9SetSuffixENSt3__16vectorINS1_4pairINS1_12basic_stringIcNS1_11char_traitsIcEENS1_9allocatorIcEEEES9_EENS7_ISA_EEEE.cold.2, symObjAddr: 0xAFE8, symBinAddr: 0x48524, symSize: 0x34 }
  - { offsetInCU: 0x5714A, offset: 0xEF4E1, size: 0x8, addend: 0x0, symName: __ZN11grpc_binder11Transaction9SetStatusEi.cold.3, symObjAddr: 0xB084, symBinAddr: 0x485C0, symSize: 0x34 }
  - { offsetInCU: 0x57162, offset: 0xEF4F9, size: 0x8, addend: 0x0, symName: __ZN11grpc_binder11Transaction9SetStatusEi.cold.1, symObjAddr: 0xB01C, symBinAddr: 0x48558, symSize: 0x34 }
  - { offsetInCU: 0x5717A, offset: 0xEF511, size: 0x8, addend: 0x0, symName: __ZN11grpc_binder11Transaction9SetStatusEi.cold.2, symObjAddr: 0xB050, symBinAddr: 0x4858C, symSize: 0x34 }
  - { offsetInCU: 0x571C8, offset: 0xEF55F, size: 0x8, addend: 0x0, symName: __ZN4absl12lts_2021110218container_internal12raw_hash_setINS1_17FlatHashMapPolicyIiP18grpc_binder_streamEENS0_13hash_internal4HashIiEENSt3__18equal_toIiEENSA_9allocatorINSA_4pairIKiS5_EEEEE5eraseIiEEmRSF_, symObjAddr: 0x4A40, symBinAddr: 0xC6CC, symSize: 0x8C }
  - { offsetInCU: 0x57341, offset: 0xEF6D8, size: 0x8, addend: 0x0, symName: __ZL20cancel_stream_lockedP21grpc_binder_transportP18grpc_binder_streamP10grpc_error.cold.1, symObjAddr: 0xB0B8, symBinAddr: 0x485F4, symSize: 0x34 }
  - { offsetInCU: 0x5737F, offset: 0xEF716, size: 0x8, addend: 0x0, symName: __ZN9grpc_core8RefCount5UnrefERKNS_13DebugLocationEPKc, symObjAddr: 0x4BB4, symBinAddr: 0xC840, symSize: 0x88 }
  - { offsetInCU: 0x57469, offset: 0xEF800, size: 0x8, addend: 0x0, symName: __ZNK9grpc_core12slice_detail9BaseSlice14as_string_viewEv, symObjAddr: 0x4C3C, symBinAddr: 0xC8C8, symSize: 0x38 }
  - { offsetInCU: 0x59836, offset: 0xF1BCD, size: 0x8, addend: 0x0, symName: __ZNK9grpc_core12slice_detail9BaseSlice14as_string_viewEv, symObjAddr: 0x4C3C, symBinAddr: 0xC8C8, symSize: 0x38 }
  - { offsetInCU: 0x598EA, offset: 0xF1C81, size: 0x8, addend: 0x0, symName: __ZNK4absl12lts_2021110211string_view6substrEmm, symObjAddr: 0x4C74, symBinAddr: 0xC900, symSize: 0x44 }
  - { offsetInCU: 0x598F5, offset: 0xF1C8C, size: 0x8, addend: 0x0, symName: __ZNK4absl12lts_2021110211string_view6substrEmm, symObjAddr: 0x4C74, symBinAddr: 0xC900, symSize: 0x44 }
  - { offsetInCU: 0x599DE, offset: 0xF1D75, size: 0x8, addend: 0x0, symName: __ZN11grpc_binder11Transaction12SetMethodRefENSt3__112basic_stringIcNS1_11char_traitsIcEENS1_9allocatorIcEEEE, symObjAddr: 0x4CB8, symBinAddr: 0xC944, symSize: 0x20 }
  - { offsetInCU: 0x599E9, offset: 0xF1D80, size: 0x8, addend: 0x0, symName: __ZN11grpc_binder11Transaction12SetMethodRefENSt3__112basic_stringIcNS1_11char_traitsIcEENS1_9allocatorIcEEEE, symObjAddr: 0x4CB8, symBinAddr: 0xC944, symSize: 0x20 }
  - { offsetInCU: 0x59A22, offset: 0xF1DB9, size: 0x8, addend: 0x0, symName: __ZNSt3__16vectorINS_4pairINS_12basic_stringIcNS_11char_traitsIcEENS_9allocatorIcEEEES7_EENS5_IS8_EEE12emplace_backIJS7_S7_EEEvDpOT_, symObjAddr: 0x4CD8, symBinAddr: 0xC964, symSize: 0x164 }
  - { offsetInCU: 0x59A2D, offset: 0xF1DC4, size: 0x8, addend: 0x0, symName: __ZNSt3__16vectorINS_4pairINS_12basic_stringIcNS_11char_traitsIcEENS_9allocatorIcEEEES7_EENS5_IS8_EEE12emplace_backIJS7_S7_EEEvDpOT_, symObjAddr: 0x4CD8, symBinAddr: 0xC964, symSize: 0x164 }
  - { offsetInCU: 0x5A04C, offset: 0xF23E3, size: 0x8, addend: 0x0, symName: __ZN9grpc_core5SliceD2Ev, symObjAddr: 0x505C, symBinAddr: 0xCCE8, symSize: 0x50 }
  - { offsetInCU: 0x5A0E6, offset: 0xF247D, size: 0x8, addend: 0x0, symName: __ZN9grpc_core18HttpMethodMetadata6EncodeENS0_9ValueTypeE, symObjAddr: 0x50AC, symBinAddr: 0xCD38, symSize: 0x9C }
  - { offsetInCU: 0x5A1C3, offset: 0xF255A, size: 0x8, addend: 0x0, symName: __ZN9grpc_core18HttpSchemeMetadata6EncodeENS0_9ValueTypeE, symObjAddr: 0x5174, symBinAddr: 0xCE00, symSize: 0x88 }
  - { offsetInCU: 0x5A255, offset: 0xF25EC, size: 0x8, addend: 0x0, symName: __ZN9grpc_core19ContentTypeMetadata6EncodeENS0_9ValueTypeE, symObjAddr: 0x51FC, symBinAddr: 0xCE88, symSize: 0x94 }
  - { offsetInCU: 0x5A2EA, offset: 0xF2681, size: 0x8, addend: 0x0, symName: __ZN9grpc_core10TeMetadata6EncodeENS0_9ValueTypeE, symObjAddr: 0x5290, symBinAddr: 0xCF1C, symSize: 0x74 }
  - { offsetInCU: 0x5A2F5, offset: 0xF268C, size: 0x8, addend: 0x0, symName: __ZN9grpc_core10TeMetadata6EncodeENS0_9ValueTypeE, symObjAddr: 0x5290, symBinAddr: 0xCF1C, symSize: 0x74 }
  - { offsetInCU: 0x5A39F, offset: 0xF2736, size: 0x8, addend: 0x0, symName: __ZN9grpc_core33CompressionAlgorithmBasedMetadata6EncodeE26grpc_compression_algorithm, symObjAddr: 0x5304, symBinAddr: 0xCF90, symSize: 0x74 }
  - { offsetInCU: 0x5A48B, offset: 0xF2822, size: 0x8, addend: 0x0, symName: __ZN9grpc_core19GrpcTimeoutMetadata6EncodeEx, symObjAddr: 0x5378, symBinAddr: 0xD004, symSize: 0x4C }
  - { offsetInCU: 0x5A4C5, offset: 0xF285C, size: 0x8, addend: 0x0, symName: __ZN9grpc_core17LbCostBinMetadata6EncodeERKNS0_9ValueTypeE, symObjAddr: 0x53C4, symBinAddr: 0xD050, symSize: 0x100 }
  - { offsetInCU: 0x5A724, offset: 0xF2ABB, size: 0x8, addend: 0x0, symName: __ZNK9grpc_core11MetadataMapI19grpc_metadata_batchJNS_16HttpPathMetadataENS_21HttpAuthorityMetadataENS_18HttpMethodMetadataENS_18HttpStatusMetadataENS_18HttpSchemeMetadataENS_19ContentTypeMetadataENS_10TeMetadataENS_20GrpcEncodingMetadataENS_27GrpcInternalEncodingRequestENS_26GrpcAcceptEncodingMetadataENS_18GrpcStatusMetadataENS_19GrpcTimeoutMetadataENS_31GrpcPreviousRpcAttemptsMetadataENS_27GrpcRetryPushbackMsMetadataENS_17UserAgentMetadataENS_19GrpcMessageMetadataENS_12HostMetadataENS_31XEndpointLoadMetricsBinMetadataENS_26GrpcServerStatsBinMetadataENS_20GrpcTraceBinMetadataENS_19GrpcTagsBinMetadataENS_25GrpcLbClientStatsMetadataENS_17LbCostBinMetadataENS_15LbTokenMetadataEEE6EncodeIN11grpc_binder12_GLOBAL__N_115MetadataEncoderEEEvPT_.cold.1, symObjAddr: 0xB0EC, symBinAddr: 0x48628, symSize: 0x34 }
  - { offsetInCU: 0x5A7C6, offset: 0xF2B5D, size: 0x8, addend: 0x0, symName: __ZN11grpc_binder11Transaction9SetPrefixENSt3__16vectorINS1_4pairINS1_12basic_stringIcNS1_11char_traitsIcEENS1_9allocatorIcEEEES9_EENS7_ISA_EEEE.cold.1, symObjAddr: 0xB120, symBinAddr: 0x4865C, symSize: 0x34 }
  - { offsetInCU: 0x5A7DE, offset: 0xF2B75, size: 0x8, addend: 0x0, symName: __ZN11grpc_binder11Transaction7SetDataENSt3__112basic_stringIcNS1_11char_traitsIcEENS1_9allocatorIcEEEE.cold.1, symObjAddr: 0xB154, symBinAddr: 0x48690, symSize: 0x34 }
  - { offsetInCU: 0x5A9CA, offset: 0xF2D61, size: 0x8, addend: 0x0, symName: __ZNSt3__16vectorINS_4pairINS_12basic_stringIcNS_11char_traitsIcEENS_9allocatorIcEEEES7_EENS5_IS8_EEE13__vdeallocateEv, symObjAddr: 0x46D8, symBinAddr: 0xC3D8, symSize: 0x6C }
  - { offsetInCU: 0x5AB80, offset: 0xF2F17, size: 0x8, addend: 0x0, symName: __ZNSt3__16vectorINS_4pairINS_12basic_stringIcNS_11char_traitsIcEENS_9allocatorIcEEEES7_EENS5_IS8_EEE11__vallocateB7v160006Em, symObjAddr: 0x4744, symBinAddr: 0xC444, symSize: 0x50 }
  - { offsetInCU: 0x5ABFF, offset: 0xF2F96, size: 0x8, addend: 0x0, symName: __ZNKSt3__111__copy_loopINS_17_ClassicAlgPolicyEEclB7v160006IPNS_4pairINS_12basic_stringIcNS_11char_traitsIcEENS_9allocatorIcEEEESA_EESC_SC_EENS4_IT_T1_EESD_T0_SE_, symObjAddr: 0x4794, symBinAddr: 0xC494, symSize: 0x6C }
  - { offsetInCU: 0x5AC1C, offset: 0xF2FB3, size: 0x8, addend: 0x0, symName: __ZNKSt3__111__copy_loopINS_17_ClassicAlgPolicyEEclB7v160006IPNS_4pairINS_12basic_stringIcNS_11char_traitsIcEENS_9allocatorIcEEEESA_EESC_SC_EENS4_IT_T1_EESD_T0_SE_, symObjAddr: 0x4794, symBinAddr: 0xC494, symSize: 0x6C }
  - { offsetInCU: 0x5ACB0, offset: 0xF3047, size: 0x8, addend: 0x0, symName: __ZNKSt3__16vectorINS_4pairINS_12basic_stringIcNS_11char_traitsIcEENS_9allocatorIcEEEES7_EENS5_IS8_EEE20__throw_length_errorB7v160006Ev, symObjAddr: 0x4974, symBinAddr: 0xC674, symSize: 0x14 }
  - { offsetInCU: 0x5ACD9, offset: 0xF3070, size: 0x8, addend: 0x0, symName: __ZNSt3__119__allocate_at_leastB7v160006INS_9allocatorINS_4pairINS_12basic_stringIcNS_11char_traitsIcEENS1_IcEEEES7_EEEEEENS_19__allocation_resultINS_16allocator_traitsIT_E7pointerEEERSC_m, symObjAddr: 0x4988, symBinAddr: 0xC688, symSize: 0x44 }
  - { offsetInCU: 0x5AE6A, offset: 0xF3201, size: 0x8, addend: 0x0, symName: __ZNSt3__14pairINS_12basic_stringIcNS_11char_traitsIcEENS_9allocatorIcEEEES6_EC2ERKS7_, symObjAddr: 0x48A0, symBinAddr: 0xC5A0, symSize: 0x50 }
  - { offsetInCU: 0x5AFB0, offset: 0xF3347, size: 0x8, addend: 0x0, symName: __ZNSt3__128__exception_guard_exceptionsINS_29_AllocatorDestroyRangeReverseINS_9allocatorINS_4pairINS_12basic_stringIcNS_11char_traitsIcEENS2_IcEEEES8_EEEEPS9_EEED2B7v160006Ev, symObjAddr: 0x48F0, symBinAddr: 0xC5F0, symSize: 0x34 }
  - { offsetInCU: 0x5AFEF, offset: 0xF3386, size: 0x8, addend: 0x0, symName: __ZNKSt3__129_AllocatorDestroyRangeReverseINS_9allocatorINS_4pairINS_12basic_stringIcNS_11char_traitsIcEENS1_IcEEEES7_EEEEPS8_EclB7v160006Ev, symObjAddr: 0x4924, symBinAddr: 0xC624, symSize: 0x50 }
  - { offsetInCU: 0x5B1F5, offset: 0xF358C, size: 0x8, addend: 0x0, symName: __ZN4absl12lts_2021110218container_internal12raw_hash_setINS1_17FlatHashMapPolicyIiP18grpc_binder_streamEENS0_13hash_internal4HashIiEENSt3__18equal_toIiEENSA_9allocatorINSA_4pairIKiS5_EEEEE5eraseENSI_8iteratorE, symObjAddr: 0x4ACC, symBinAddr: 0xC758, symSize: 0x20 }
  - { offsetInCU: 0x5B26C, offset: 0xF3603, size: 0x8, addend: 0x0, symName: __ZN4absl12lts_2021110218container_internal12raw_hash_setINS1_17FlatHashMapPolicyIiP18grpc_binder_streamEENS0_13hash_internal4HashIiEENSt3__18equal_toIiEENSA_9allocatorINSA_4pairIKiS5_EEEEE15erase_meta_onlyENSI_14const_iteratorE, symObjAddr: 0x4AEC, symBinAddr: 0xC778, symSize: 0xC8 }
  - { offsetInCU: 0x5B277, offset: 0xF360E, size: 0x8, addend: 0x0, symName: __ZN4absl12lts_2021110218container_internal12raw_hash_setINS1_17FlatHashMapPolicyIiP18grpc_binder_streamEENS0_13hash_internal4HashIiEENSt3__18equal_toIiEENSA_9allocatorINSA_4pairIKiS5_EEEEE15erase_meta_onlyENSI_14const_iteratorE, symObjAddr: 0x4AEC, symBinAddr: 0xC778, symSize: 0xC8 }
  - { offsetInCU: 0x5B543, offset: 0xF38DA, size: 0x8, addend: 0x0, symName: __ZN9grpc_core8RefCount5UnrefERKNS_13DebugLocationEPKc, symObjAddr: 0x4BB4, symBinAddr: 0xC840, symSize: 0x88 }
  - { offsetInCU: 0x5B54E, offset: 0xF38E5, size: 0x8, addend: 0x0, symName: __ZN4absl12lts_2021110218container_internal12raw_hash_setINS1_17FlatHashMapPolicyIiP18grpc_binder_streamEENS0_13hash_internal4HashIiEENSt3__18equal_toIiEENSA_9allocatorINSA_4pairIKiS5_EEEEE5eraseENSI_8iteratorE.cold.1, symObjAddr: 0xB188, symBinAddr: 0x486C4, symSize: 0x24 }
  - { offsetInCU: 0x5B5D8, offset: 0xF396F, size: 0x8, addend: 0x0, symName: __ZN4absl12lts_2021110218container_internal12raw_hash_setINS1_17FlatHashMapPolicyIiP18grpc_binder_streamEENS0_13hash_internal4HashIiEENSt3__18equal_toIiEENSA_9allocatorINSA_4pairIKiS5_EEEEE15erase_meta_onlyENSI_14const_iteratorE.cold.2, symObjAddr: 0xB1D4, symBinAddr: 0x48710, symSize: 0x28 }
  - { offsetInCU: 0x5B5F0, offset: 0xF3987, size: 0x8, addend: 0x0, symName: __ZN4absl12lts_2021110218container_internal12raw_hash_setINS1_17FlatHashMapPolicyIiP18grpc_binder_streamEENS0_13hash_internal4HashIiEENSt3__18equal_toIiEENSA_9allocatorINSA_4pairIKiS5_EEEEE15erase_meta_onlyENSI_14const_iteratorE.cold.1, symObjAddr: 0xB1AC, symBinAddr: 0x486E8, symSize: 0x28 }
  - { offsetInCU: 0x5B64F, offset: 0xF39E6, size: 0x8, addend: 0x0, symName: __ZN9grpc_core8RefCount5UnrefERKNS_13DebugLocationEPKc.cold.1, symObjAddr: 0xB1FC, symBinAddr: 0x48738, symSize: 0x34 }
  - { offsetInCU: 0x5B667, offset: 0xF39FE, size: 0x8, addend: 0x0, symName: __ZNK9grpc_core12slice_detail9BaseSlice14as_string_viewEv.cold.1, symObjAddr: 0xB230, symBinAddr: 0x4876C, symSize: 0x28 }
  - { offsetInCU: 0x5B6F7, offset: 0xF3A8E, size: 0x8, addend: 0x0, symName: __ZNK4absl12lts_2021110211string_view6substrEmm.cold.1, symObjAddr: 0xB258, symBinAddr: 0x48794, symSize: 0x28 }
  - { offsetInCU: 0x5B767, offset: 0xF3AFE, size: 0x8, addend: 0x0, symName: __ZN11grpc_binder11Transaction12SetMethodRefENSt3__112basic_stringIcNS1_11char_traitsIcEENS1_9allocatorIcEEEE.cold.1, symObjAddr: 0xB280, symBinAddr: 0x487BC, symSize: 0x34 }
  - { offsetInCU: 0x5BB24, offset: 0xF3EBB, size: 0x8, addend: 0x0, symName: __ZNSt3__114__split_bufferINS_4pairINS_12basic_stringIcNS_11char_traitsIcEENS_9allocatorIcEEEES7_EERNS5_IS8_EEED2Ev, symObjAddr: 0x4FE8, symBinAddr: 0xCC74, symSize: 0x30 }
  - { offsetInCU: 0x5BD1A, offset: 0xF40B1, size: 0x8, addend: 0x0, symName: __ZNSt3__128__exception_guard_exceptionsINS_29_AllocatorDestroyRangeReverseINS_9allocatorINS_4pairINS_12basic_stringIcNS_11char_traitsIcEENS2_IcEEEES8_EEEENS_16reverse_iteratorIPS9_EEEEED2B7v160006Ev, symObjAddr: 0x4F64, symBinAddr: 0xCBF0, symSize: 0x34 }
  - { offsetInCU: 0x5BD59, offset: 0xF40F0, size: 0x8, addend: 0x0, symName: __ZNKSt3__129_AllocatorDestroyRangeReverseINS_9allocatorINS_4pairINS_12basic_stringIcNS_11char_traitsIcEENS1_IcEEEES7_EEEENS_16reverse_iteratorIPS8_EEEclB7v160006Ev, symObjAddr: 0x4F98, symBinAddr: 0xCC24, symSize: 0x50 }
  - { offsetInCU: 0x5BE3C, offset: 0xF41D3, size: 0x8, addend: 0x0, symName: __ZNSt3__114__split_bufferINS_4pairINS_12basic_stringIcNS_11char_traitsIcEENS_9allocatorIcEEEES7_EERNS5_IS8_EEE5clearB7v160006Ev, symObjAddr: 0x5018, symBinAddr: 0xCCA4, symSize: 0x44 }
  - { offsetInCU: 0x5BFF1, offset: 0xF4388, size: 0x8, addend: 0x0, symName: __ZN9grpc_core11StaticSliceC2ERK10grpc_slice, symObjAddr: 0x5148, symBinAddr: 0xCDD4, symSize: 0x2C }
  - { offsetInCU: 0x5C06C, offset: 0xF4403, size: 0x8, addend: 0x0, symName: __ZN9grpc_core18HttpSchemeMetadata6EncodeENS0_9ValueTypeE, symObjAddr: 0x5174, symBinAddr: 0xCE00, symSize: 0x88 }
  - { offsetInCU: 0x5C092, offset: 0xF4429, size: 0x8, addend: 0x0, symName: __ZN9grpc_core11StaticSliceC2ERK10grpc_slice.cold.1, symObjAddr: 0xB2B4, symBinAddr: 0x487F0, symSize: 0x34 }
  - { offsetInCU: 0x5C0AA, offset: 0xF4441, size: 0x8, addend: 0x0, symName: __ZN9grpc_core19ContentTypeMetadata6EncodeENS0_9ValueTypeE.cold.1, symObjAddr: 0xB2E8, symBinAddr: 0x48824, symSize: 0x24 }
  - { offsetInCU: 0x5C0ED, offset: 0xF4484, size: 0x8, addend: 0x0, symName: __ZN9grpc_core10TeMetadata6EncodeENS0_9ValueTypeE.cold.1, symObjAddr: 0xB30C, symBinAddr: 0x48848, symSize: 0x34 }
  - { offsetInCU: 0x5C119, offset: 0xF44B0, size: 0x8, addend: 0x0, symName: __ZN9grpc_core33CompressionAlgorithmBasedMetadata6EncodeE26grpc_compression_algorithm.cold.1, symObjAddr: 0xB340, symBinAddr: 0x4887C, symSize: 0x34 }
  - { offsetInCU: 0x5C270, offset: 0xF4607, size: 0x8, addend: 0x0, symName: __ZN9grpc_core12MutableSliceC2ERK10grpc_slice, symObjAddr: 0x54C4, symBinAddr: 0xD150, symSize: 0x3C }
  - { offsetInCU: 0x5C2DD, offset: 0xF4674, size: 0x8, addend: 0x0, symName: __ZN19grpc_slice_refcount15IsRegularUniqueEv, symObjAddr: 0x5500, symBinAddr: 0xD18C, symSize: 0x30 }
  - { offsetInCU: 0x5C2E8, offset: 0xF467F, size: 0x8, addend: 0x0, symName: __ZN9grpc_core12MutableSliceD2Ev, symObjAddr: 0x5530, symBinAddr: 0xD1BC, symSize: 0x50 }
  - { offsetInCU: 0x5C380, offset: 0xF4717, size: 0x8, addend: 0x0, symName: __ZN19grpc_slice_refcount15IsRegularUniqueEv, symObjAddr: 0x5500, symBinAddr: 0xD18C, symSize: 0x30 }
  - { offsetInCU: 0x5C3F1, offset: 0xF4788, size: 0x8, addend: 0x0, symName: __ZN9grpc_core12MutableSliceD2Ev, symObjAddr: 0x5530, symBinAddr: 0xD1BC, symSize: 0x50 }
  - { offsetInCU: 0x5C3FC, offset: 0xF4793, size: 0x8, addend: 0x0, symName: __ZN9grpc_core12MutableSliceC2ERK10grpc_slice.cold.1, symObjAddr: 0xB374, symBinAddr: 0x488B0, symSize: 0x34 }
  - { offsetInCU: 0x5C446, offset: 0xF47DD, size: 0x8, addend: 0x0, symName: __ZN19grpc_slice_refcount15IsRegularUniqueEv.cold.1, symObjAddr: 0xB3A8, symBinAddr: 0x488E4, symSize: 0x34 }
  - { offsetInCU: 0x5C4DF, offset: 0xF4876, size: 0x8, addend: 0x0, symName: __ZNSt3__128__exception_guard_exceptionsINS_6vectorINS_4pairINS_12basic_stringIcNS_11char_traitsIcEENS_9allocatorIcEEEES8_EENS6_IS9_EEE16__destroy_vectorEED2B7v160006Ev, symObjAddr: 0x5634, symBinAddr: 0xD2C0, symSize: 0x34 }
  - { offsetInCU: 0x5C57B, offset: 0xF4912, size: 0x8, addend: 0x0, symName: '__ZNSt3__110__function6__funcIZL24perform_stream_op_lockedPvP10grpc_errorE3$_3NS_9allocatorIS5_EEFvN4absl12lts_202111028StatusOrINS_6vectorINS_4pairINS_12basic_stringIcNS_11char_traitsIcEENS6_IcEEEESH_EENS6_ISI_EEEEEEEED1Ev', symObjAddr: 0x5710, symBinAddr: 0xD388, symSize: 0x4 }
  - { offsetInCU: 0x5C586, offset: 0xF491D, size: 0x8, addend: 0x0, symName: '__ZNSt3__110__function6__funcIZL24perform_stream_op_lockedPvP10grpc_errorE3$_3NS_9allocatorIS5_EEFvN4absl12lts_202111028StatusOrINS_6vectorINS_4pairINS_12basic_stringIcNS_11char_traitsIcEENS6_IcEEEESH_EENS6_ISI_EEEEEEEED1Ev', symObjAddr: 0x5710, symBinAddr: 0xD388, symSize: 0x4 }
  - { offsetInCU: 0x5C5B2, offset: 0xF4949, size: 0x8, addend: 0x0, symName: '__ZNSt3__110__function6__funcIZL24perform_stream_op_lockedPvP10grpc_errorE3$_3NS_9allocatorIS5_EEFvN4absl12lts_202111028StatusOrINS_6vectorINS_4pairINS_12basic_stringIcNS_11char_traitsIcEENS6_IcEEEESH_EENS6_ISI_EEEEEEEED0Ev', symObjAddr: 0x5714, symBinAddr: 0xD38C, symSize: 0x4 }
  - { offsetInCU: 0x5C79F, offset: 0xF4B36, size: 0x8, addend: 0x0, symName: '__ZNKSt3__110__function6__funcIZL24perform_stream_op_lockedPvP10grpc_errorE3$_3NS_9allocatorIS5_EEFvN4absl12lts_202111028StatusOrINS_6vectorINS_4pairINS_12basic_stringIcNS_11char_traitsIcEENS6_IcEEEESH_EENS6_ISI_EEEEEEEE7__cloneEv', symObjAddr: 0x5718, symBinAddr: 0xD390, symSize: 0x40 }
  - { offsetInCU: 0x5CAD7, offset: 0xF4E6E, size: 0x8, addend: 0x0, symName: '__ZNKSt3__110__function6__funcIZL24perform_stream_op_lockedPvP10grpc_errorE3$_3NS_9allocatorIS5_EEFvN4absl12lts_202111028StatusOrINS_6vectorINS_4pairINS_12basic_stringIcNS_11char_traitsIcEENS6_IcEEEESH_EENS6_ISI_EEEEEEEE7__cloneEPNS0_6__baseISM_EE', symObjAddr: 0x5758, symBinAddr: 0xD3D0, symSize: 0x20 }
  - { offsetInCU: 0x5CB10, offset: 0xF4EA7, size: 0x8, addend: 0x0, symName: '__ZNKSt3__110__function6__funcIZL24perform_stream_op_lockedPvP10grpc_errorE3$_3NS_9allocatorIS5_EEFvN4absl12lts_202111028StatusOrINS_6vectorINS_4pairINS_12basic_stringIcNS_11char_traitsIcEENS6_IcEEEESH_EENS6_ISI_EEEEEEEE7__cloneEPNS0_6__baseISM_EE', symObjAddr: 0x5758, symBinAddr: 0xD3D0, symSize: 0x20 }
  - { offsetInCU: 0x5CB3F, offset: 0xF4ED6, size: 0x8, addend: 0x0, symName: '__ZNKSt3__110__function6__funcIZL24perform_stream_op_lockedPvP10grpc_errorE3$_3NS_9allocatorIS5_EEFvN4absl12lts_202111028StatusOrINS_6vectorINS_4pairINS_12basic_stringIcNS_11char_traitsIcEENS6_IcEEEESH_EENS6_ISI_EEEEEEEE7__cloneEPNS0_6__baseISM_EE', symObjAddr: 0x5758, symBinAddr: 0xD3D0, symSize: 0x20 }
  - { offsetInCU: 0x5CC56, offset: 0xF4FED, size: 0x8, addend: 0x0, symName: '__ZNSt3__110__function6__funcIZL24perform_stream_op_lockedPvP10grpc_errorE3$_3NS_9allocatorIS5_EEFvN4absl12lts_202111028StatusOrINS_6vectorINS_4pairINS_12basic_stringIcNS_11char_traitsIcEENS6_IcEEEESH_EENS6_ISI_EEEEEEEE7destroyEv', symObjAddr: 0x5778, symBinAddr: 0xD3F0, symSize: 0x4 }
  - { offsetInCU: 0x5CCA9, offset: 0xF5040, size: 0x8, addend: 0x0, symName: '__ZNSt3__110__function6__funcIZL24perform_stream_op_lockedPvP10grpc_errorE3$_3NS_9allocatorIS5_EEFvN4absl12lts_202111028StatusOrINS_6vectorINS_4pairINS_12basic_stringIcNS_11char_traitsIcEENS6_IcEEEESH_EENS6_ISI_EEEEEEEE18destroy_deallocateEv', symObjAddr: 0x577C, symBinAddr: 0xD3F4, symSize: 0x4 }
  - { offsetInCU: 0x5CCE0, offset: 0xF5077, size: 0x8, addend: 0x0, symName: '__ZNSt3__110__function6__funcIZL24perform_stream_op_lockedPvP10grpc_errorE3$_3NS_9allocatorIS5_EEFvN4absl12lts_202111028StatusOrINS_6vectorINS_4pairINS_12basic_stringIcNS_11char_traitsIcEENS6_IcEEEESH_EENS6_ISI_EEEEEEEE18destroy_deallocateEv', symObjAddr: 0x577C, symBinAddr: 0xD3F4, symSize: 0x4 }
  - { offsetInCU: 0x5CD04, offset: 0xF509B, size: 0x8, addend: 0x0, symName: '__ZNSt3__110__function6__funcIZL24perform_stream_op_lockedPvP10grpc_errorE3$_3NS_9allocatorIS5_EEFvN4absl12lts_202111028StatusOrINS_6vectorINS_4pairINS_12basic_stringIcNS_11char_traitsIcEENS6_IcEEEESH_EENS6_ISI_EEEEEEEE18destroy_deallocateEv', symObjAddr: 0x577C, symBinAddr: 0xD3F4, symSize: 0x4 }
  - { offsetInCU: 0x5CD30, offset: 0xF50C7, size: 0x8, addend: 0x0, symName: '__ZNSt3__110__function6__funcIZL24perform_stream_op_lockedPvP10grpc_errorE3$_3NS_9allocatorIS5_EEFvN4absl12lts_202111028StatusOrINS_6vectorINS_4pairINS_12basic_stringIcNS_11char_traitsIcEENS6_IcEEEESH_EENS6_ISI_EEEEEEEE18destroy_deallocateEv', symObjAddr: 0x577C, symBinAddr: 0xD3F4, symSize: 0x4 }
  - { offsetInCU: 0x5CD57, offset: 0xF50EE, size: 0x8, addend: 0x0, symName: '__ZNSt3__110__function6__funcIZL24perform_stream_op_lockedPvP10grpc_errorE3$_3NS_9allocatorIS5_EEFvN4absl12lts_202111028StatusOrINS_6vectorINS_4pairINS_12basic_stringIcNS_11char_traitsIcEENS6_IcEEEESH_EENS6_ISI_EEEEEEEE18destroy_deallocateEv', symObjAddr: 0x577C, symBinAddr: 0xD3F4, symSize: 0x4 }
  - { offsetInCU: 0x5CF94, offset: 0xF532B, size: 0x8, addend: 0x0, symName: '__ZNSt3__110__function6__funcIZL24perform_stream_op_lockedPvP10grpc_errorE3$_3NS_9allocatorIS5_EEFvN4absl12lts_202111028StatusOrINS_6vectorINS_4pairINS_12basic_stringIcNS_11char_traitsIcEENS6_IcEEEESH_EENS6_ISI_EEEEEEEEclEOSL_', symObjAddr: 0x5780, symBinAddr: 0xD3F8, symSize: 0xF4 }
  - { offsetInCU: 0x5D4BA, offset: 0xF5851, size: 0x8, addend: 0x0, symName: __ZN4absl12lts_2021110217internal_statusor12StatusOrDataINSt3__16vectorINS3_4pairINS3_12basic_stringIcNS3_11char_traitsIcEENS3_9allocatorIcEEEESB_EENS9_ISC_EEEEEaSEOSF_, symObjAddr: 0x5C2C, symBinAddr: 0xD800, symSize: 0x48 }
  - { offsetInCU: 0x5D5B8, offset: 0xF594F, size: 0x8, addend: 0x0, symName: '__ZNKSt3__110__function6__funcIZL24perform_stream_op_lockedPvP10grpc_errorE3$_3NS_9allocatorIS5_EEFvN4absl12lts_202111028StatusOrINS_6vectorINS_4pairINS_12basic_stringIcNS_11char_traitsIcEENS6_IcEEEESH_EENS6_ISI_EEEEEEEE6targetERKSt9type_info', symObjAddr: 0x5874, symBinAddr: 0xD4EC, symSize: 0x3C }
  - { offsetInCU: 0x5D655, offset: 0xF59EC, size: 0x8, addend: 0x0, symName: '__ZNKSt3__110__function6__funcIZL24perform_stream_op_lockedPvP10grpc_errorE3$_3NS_9allocatorIS5_EEFvN4absl12lts_202111028StatusOrINS_6vectorINS_4pairINS_12basic_stringIcNS_11char_traitsIcEENS6_IcEEEESH_EENS6_ISI_EEEEEEEE11target_typeEv', symObjAddr: 0x58B0, symBinAddr: 0xD528, symSize: 0xC }
  - { offsetInCU: 0x5D67A, offset: 0xF5A11, size: 0x8, addend: 0x0, symName: __ZL28recv_initial_metadata_lockedPvP10grpc_error, symObjAddr: 0x58BC, symBinAddr: 0xD534, symSize: 0x2CC }
  - { offsetInCU: 0x5E405, offset: 0xF679C, size: 0x8, addend: 0x0, symName: __ZN9grpc_core11MetadataMapI19grpc_metadata_batchJNS_16HttpPathMetadataENS_21HttpAuthorityMetadataENS_18HttpMethodMetadataENS_18HttpStatusMetadataENS_18HttpSchemeMetadataENS_19ContentTypeMetadataENS_10TeMetadataENS_20GrpcEncodingMetadataENS_27GrpcInternalEncodingRequestENS_26GrpcAcceptEncodingMetadataENS_18GrpcStatusMetadataENS_19GrpcTimeoutMetadataENS_31GrpcPreviousRpcAttemptsMetadataENS_27GrpcRetryPushbackMsMetadataENS_17UserAgentMetadataENS_19GrpcMessageMetadataENS_12HostMetadataENS_31XEndpointLoadMetricsBinMetadataENS_26GrpcServerStatsBinMetadataENS_20GrpcTraceBinMetadataENS_19GrpcTagsBinMetadataENS_25GrpcLbClientStatsMetadataENS_17LbCostBinMetadataENS_15LbTokenMetadataEEE6AppendEN4absl12lts_2021110211string_viewENS_5SliceENSS_11FunctionRefIFvST_RKSU_EEE, symObjAddr: 0x5F7C, symBinAddr: 0xDAB4, symSize: 0xD4 }
  - { offsetInCU: 0x5E45F, offset: 0xF67F6, size: 0x8, addend: 0x0, symName: __ZL28recv_initial_metadata_lockedPvP10grpc_error.cold.1, symObjAddr: 0xB3DC, symBinAddr: 0x48918, symSize: 0x34 }
  - { offsetInCU: 0x5E48D, offset: 0xF6824, size: 0x8, addend: 0x0, symName: __ZL28recv_initial_metadata_lockedPvP10grpc_error.cold.2, symObjAddr: 0xB410, symBinAddr: 0x4894C, symSize: 0x34 }
  - { offsetInCU: 0x5E508, offset: 0xF689F, size: 0x8, addend: 0x0, symName: __ZN4absl12lts_2021110217internal_statusor12StatusOrDataINSt3__16vectorINS3_4pairINS3_12basic_stringIcNS3_11char_traitsIcEENS3_9allocatorIcEEEESB_EENS9_ISC_EEEEE12AssignStatusINS0_6StatusEEEvOT_, symObjAddr: 0x5D14, symBinAddr: 0xD8E8, symSize: 0xA8 }
  - { offsetInCU: 0x5E71E, offset: 0xF6AB5, size: 0x8, addend: 0x0, symName: __ZN4absl12lts_2021110217internal_statusor12StatusOrDataINSt3__16vectorINS3_4pairINS3_12basic_stringIcNS3_11char_traitsIcEENS3_9allocatorIcEEEESB_EENS9_ISC_EEEEE6AssignISE_EEvOT_, symObjAddr: 0x5C74, symBinAddr: 0xD848, symSize: 0xA0 }
  - { offsetInCU: 0x5E9B9, offset: 0xF6D50, size: 0x8, addend: 0x0, symName: __ZN9grpc_core5TableIJNS_15metadata_detail5ValueINS_16HttpPathMetadataEvEENS2_INS_21HttpAuthorityMetadataEvEENS2_INS_18HttpMethodMetadataEvEENS2_INS_18HttpStatusMetadataEvEENS2_INS_18HttpSchemeMetadataEvEENS2_INS_19ContentTypeMetadataEvEENS2_INS_10TeMetadataEvEENS2_INS_20GrpcEncodingMetadataEvEENS2_INS_27GrpcInternalEncodingRequestEvEENS2_INS_26GrpcAcceptEncodingMetadataEvEENS2_INS_18GrpcStatusMetadataEvEENS2_INS_19GrpcTimeoutMetadataEvEENS2_INS_31GrpcPreviousRpcAttemptsMetadataEvEENS2_INS_27GrpcRetryPushbackMsMetadataEvEENS2_INS_17UserAgentMetadataEvEENS2_INS_19GrpcMessageMetadataEvEENS2_INS_12HostMetadataEvEENS2_INS_31XEndpointLoadMetricsBinMetadataEvEENS2_INS_26GrpcServerStatsBinMetadataEvEENS2_INS_20GrpcTraceBinMetadataEvEENS2_INS_19GrpcTagsBinMetadataEvEENS2_INS_25GrpcLbClientStatsMetadataEvEENS2_INS_17LbCostBinMetadataEvEENS2_INS_15LbTokenMetadataEvEEEE12ClearAllImplIJLm0ELm1ELm2ELm3ELm4ELm5ELm6ELm7ELm8ELm9ELm10ELm11ELm12ELm13ELm14ELm15ELm16ELm17ELm18ELm19ELm20ELm21ELm22ELm23EEEEvN4absl12lts_2021110216integer_sequenceImJXspT_EEEE, symObjAddr: 0x6184, symBinAddr: 0xDCBC, symSize: 0x140 }
  - { offsetInCU: 0x60A12, offset: 0xF8DA9, size: 0x8, addend: 0x0, symName: __ZN9grpc_core13ChunkedVectorINSt3__14pairINS_5SliceES3_EELm10EE5ClearEv, symObjAddr: 0x60FC, symBinAddr: 0xDC34, symSize: 0x88 }
  - { offsetInCU: 0x60B79, offset: 0xF8F10, size: 0x8, addend: 0x0, symName: __ZN9grpc_core12slice_detail16CopyConstructorsINS_5SliceEE16FromCopiedStringENSt3__112basic_stringIcNS4_11char_traitsIcEENS4_9allocatorIcEEEE, symObjAddr: 0x6050, symBinAddr: 0xDB88, symSize: 0xAC }
  - { offsetInCU: 0x60ED2, offset: 0xF9269, size: 0x8, addend: 0x0, symName: __ZN9grpc_core11MetadataMapI19grpc_metadata_batchJNS_16HttpPathMetadataENS_21HttpAuthorityMetadataENS_18HttpMethodMetadataENS_18HttpStatusMetadataENS_18HttpSchemeMetadataENS_19ContentTypeMetadataENS_10TeMetadataENS_20GrpcEncodingMetadataENS_27GrpcInternalEncodingRequestENS_26GrpcAcceptEncodingMetadataENS_18GrpcStatusMetadataENS_19GrpcTimeoutMetadataENS_31GrpcPreviousRpcAttemptsMetadataENS_27GrpcRetryPushbackMsMetadataENS_17UserAgentMetadataENS_19GrpcMessageMetadataENS_12HostMetadataENS_31XEndpointLoadMetricsBinMetadataENS_26GrpcServerStatsBinMetadataENS_20GrpcTraceBinMetadataENS_19GrpcTagsBinMetadataENS_25GrpcLbClientStatsMetadataENS_17LbCostBinMetadataENS_15LbTokenMetadataEEE6AppendEN4absl12lts_2021110211string_viewENS_5SliceENSS_11FunctionRefIFvST_RKSU_EEE, symObjAddr: 0x5F7C, symBinAddr: 0xDAB4, symSize: 0xD4 }
  - { offsetInCU: 0x61294, offset: 0xF962B, size: 0x8, addend: 0x0, symName: __ZN9grpc_core5Slice9TakeOwnedEv, symObjAddr: 0x6394, symBinAddr: 0xDECC, symSize: 0xA0 }
  - { offsetInCU: 0x613F7, offset: 0xF978E, size: 0x8, addend: 0x0, symName: __ZN9grpc_core15metadata_detail10NameLookupIJNS_16HttpPathMetadataENS_21HttpAuthorityMetadataENS_18HttpMethodMetadataENS_18HttpStatusMetadataENS_18HttpSchemeMetadataENS_19ContentTypeMetadataENS_10TeMetadataENS_20GrpcEncodingMetadataENS_27GrpcInternalEncodingRequestENS_26GrpcAcceptEncodingMetadataENS_18GrpcStatusMetadataENS_19GrpcTimeoutMetadataENS_31GrpcPreviousRpcAttemptsMetadataENS_27GrpcRetryPushbackMsMetadataENS_17UserAgentMetadataENS_19GrpcMessageMetadataENS_12HostMetadataENS_31XEndpointLoadMetricsBinMetadataENS_26GrpcServerStatsBinMetadataENS_20GrpcTraceBinMetadataENS_19GrpcTagsBinMetadataENS_25GrpcLbClientStatsMetadataENS_17LbCostBinMetadataENS_15LbTokenMetadataEEE6LookupINS0_12AppendHelperI19grpc_metadata_batchEEEEDTclptfp0_5FoundcvS2__EEEN4absl12lts_2021110211string_viewEPT_, symObjAddr: 0x6434, symBinAddr: 0xDF6C, symSize: 0x38 }
  - { offsetInCU: 0x6142B, offset: 0xF97C2, size: 0x8, addend: 0x0, symName: __ZN9grpc_core15metadata_detail10NameLookupIJNS_16HttpPathMetadataENS_21HttpAuthorityMetadataENS_18HttpMethodMetadataENS_18HttpStatusMetadataENS_18HttpSchemeMetadataENS_19ContentTypeMetadataENS_10TeMetadataENS_20GrpcEncodingMetadataENS_27GrpcInternalEncodingRequestENS_26GrpcAcceptEncodingMetadataENS_18GrpcStatusMetadataENS_19GrpcTimeoutMetadataENS_31GrpcPreviousRpcAttemptsMetadataENS_27GrpcRetryPushbackMsMetadataENS_17UserAgentMetadataENS_19GrpcMessageMetadataENS_12HostMetadataENS_31XEndpointLoadMetricsBinMetadataENS_26GrpcServerStatsBinMetadataENS_20GrpcTraceBinMetadataENS_19GrpcTagsBinMetadataENS_25GrpcLbClientStatsMetadataENS_17LbCostBinMetadataENS_15LbTokenMetadataEEE6LookupINS0_12AppendHelperI19grpc_metadata_batchEEEEDTclptfp0_5FoundcvS2__EEEN4absl12lts_2021110211string_viewEPT_, symObjAddr: 0x6434, symBinAddr: 0xDF6C, symSize: 0x38 }
  - { offsetInCU: 0x62C17, offset: 0xFAFAE, size: 0x8, addend: 0x0, symName: __ZN4absl12lts_2021110223inlined_vector_internal7StorageIN9grpc_core17LbCostBinMetadata9ValueTypeELm1ENSt3__19allocatorIS5_EEED2Ev, symObjAddr: 0x62C4, symBinAddr: 0xDDFC, symSize: 0x34 }
  - { offsetInCU: 0x62C56, offset: 0xFAFED, size: 0x8, addend: 0x0, symName: __ZN4absl12lts_2021110223inlined_vector_internal7StorageIN9grpc_core17LbCostBinMetadata9ValueTypeELm1ENSt3__19allocatorIS5_EEE15DestroyContentsEv, symObjAddr: 0x62F8, symBinAddr: 0xDE30, symSize: 0x54 }
  - { offsetInCU: 0x62F55, offset: 0xFB2EC, size: 0x8, addend: 0x0, symName: __ZN9grpc_core15metadata_detail10NameLookupIJNS_21HttpAuthorityMetadataENS_18HttpMethodMetadataENS_18HttpStatusMetadataENS_18HttpSchemeMetadataENS_19ContentTypeMetadataENS_10TeMetadataENS_20GrpcEncodingMetadataENS_27GrpcInternalEncodingRequestENS_26GrpcAcceptEncodingMetadataENS_18GrpcStatusMetadataENS_19GrpcTimeoutMetadataENS_31GrpcPreviousRpcAttemptsMetadataENS_27GrpcRetryPushbackMsMetadataENS_17UserAgentMetadataENS_19GrpcMessageMetadataENS_12HostMetadataENS_31XEndpointLoadMetricsBinMetadataENS_26GrpcServerStatsBinMetadataENS_20GrpcTraceBinMetadataENS_19GrpcTagsBinMetadataENS_25GrpcLbClientStatsMetadataENS_17LbCostBinMetadataENS_15LbTokenMetadataEEE6LookupINS0_12AppendHelperI19grpc_metadata_batchEEEEDTclptfp0_5FoundcvS2__EEEN4absl12lts_2021110211string_viewEPT_, symObjAddr: 0x64F8, symBinAddr: 0xE030, symSize: 0x40 }
  - { offsetInCU: 0x62F89, offset: 0xFB320, size: 0x8, addend: 0x0, symName: __ZN9grpc_core15metadata_detail10NameLookupIJNS_21HttpAuthorityMetadataENS_18HttpMethodMetadataENS_18HttpStatusMetadataENS_18HttpSchemeMetadataENS_19ContentTypeMetadataENS_10TeMetadataENS_20GrpcEncodingMetadataENS_27GrpcInternalEncodingRequestENS_26GrpcAcceptEncodingMetadataENS_18GrpcStatusMetadataENS_19GrpcTimeoutMetadataENS_31GrpcPreviousRpcAttemptsMetadataENS_27GrpcRetryPushbackMsMetadataENS_17UserAgentMetadataENS_19GrpcMessageMetadataENS_12HostMetadataENS_31XEndpointLoadMetricsBinMetadataENS_26GrpcServerStatsBinMetadataENS_20GrpcTraceBinMetadataENS_19GrpcTagsBinMetadataENS_25GrpcLbClientStatsMetadataENS_17LbCostBinMetadataENS_15LbTokenMetadataEEE6LookupINS0_12AppendHelperI19grpc_metadata_batchEEEEDTclptfp0_5FoundcvS2__EEEN4absl12lts_2021110211string_viewEPT_, symObjAddr: 0x64F8, symBinAddr: 0xE030, symSize: 0x40 }
  - { offsetInCU: 0x62FD6, offset: 0xFB36D, size: 0x8, addend: 0x0, symName: __ZN9grpc_core15metadata_detail12AppendHelperI19grpc_metadata_batchE5FoundINS_16HttpPathMetadataEEEvT_, symObjAddr: 0x646C, symBinAddr: 0xDFA4, symSize: 0x8C }
  - { offsetInCU: 0x6319D, offset: 0xFB534, size: 0x8, addend: 0x0, symName: __ZN9grpc_core15metadata_detail10ParseValueIFNS_5SliceES2_N4absl12lts_2021110211FunctionRefIFvNS4_11string_viewERKS2_EEEEFS2_S2_EE5ParseIXadL_ZNS_24SimpleSliceBasedMetadata12ParseMementoES2_SA_EEXadL_ZNSF_14MementoToValueES2_EEEEDTclT0_clT_clL_ZNSt3__14moveB7v160006IRS2_EEOu20__remove_reference_tIT_EOSJ_Edefp_Efp0_EEEPS2_SA_, symObjAddr: 0x6538, symBinAddr: 0xE070, symSize: 0xA0 }
  - { offsetInCU: 0x63384, offset: 0xFB71B, size: 0x8, addend: 0x0, symName: __ZN9grpc_core5TableIJNS_15metadata_detail5ValueINS_16HttpPathMetadataEvEENS2_INS_21HttpAuthorityMetadataEvEENS2_INS_18HttpMethodMetadataEvEENS2_INS_18HttpStatusMetadataEvEENS2_INS_18HttpSchemeMetadataEvEENS2_INS_19ContentTypeMetadataEvEENS2_INS_10TeMetadataEvEENS2_INS_20GrpcEncodingMetadataEvEENS2_INS_27GrpcInternalEncodingRequestEvEENS2_INS_26GrpcAcceptEncodingMetadataEvEENS2_INS_18GrpcStatusMetadataEvEENS2_INS_19GrpcTimeoutMetadataEvEENS2_INS_31GrpcPreviousRpcAttemptsMetadataEvEENS2_INS_27GrpcRetryPushbackMsMetadataEvEENS2_INS_17UserAgentMetadataEvEENS2_INS_19GrpcMessageMetadataEvEENS2_INS_12HostMetadataEvEENS2_INS_31XEndpointLoadMetricsBinMetadataEvEENS2_INS_26GrpcServerStatsBinMetadataEvEENS2_INS_20GrpcTraceBinMetadataEvEENS2_INS_19GrpcTagsBinMetadataEvEENS2_INS_25GrpcLbClientStatsMetadataEvEENS2_INS_17LbCostBinMetadataEvEENS2_INS_15LbTokenMetadataEvEEEE3setILm0EJNS_5SliceEEEEPNS_12table_detail15TypeIndexStructIXT_EJS4_S6_S8_SA_SC_SE_SG_SI_SK_SM_SO_SQ_SS_SU_SW_SY_S10_S12_S14_S16_S18_S1A_S1C_S1E_EE4TypeEDpOT0_, symObjAddr: 0x65D8, symBinAddr: 0xE110, symSize: 0x9C }
  - { offsetInCU: 0x63757, offset: 0xFBAEE, size: 0x8, addend: 0x0, symName: __ZN9grpc_core15metadata_detail10NameLookupIJNS_18HttpMethodMetadataENS_18HttpStatusMetadataENS_18HttpSchemeMetadataENS_19ContentTypeMetadataENS_10TeMetadataENS_20GrpcEncodingMetadataENS_27GrpcInternalEncodingRequestENS_26GrpcAcceptEncodingMetadataENS_18GrpcStatusMetadataENS_19GrpcTimeoutMetadataENS_31GrpcPreviousRpcAttemptsMetadataENS_27GrpcRetryPushbackMsMetadataENS_17UserAgentMetadataENS_19GrpcMessageMetadataENS_12HostMetadataENS_31XEndpointLoadMetricsBinMetadataENS_26GrpcServerStatsBinMetadataENS_20GrpcTraceBinMetadataENS_19GrpcTagsBinMetadataENS_25GrpcLbClientStatsMetadataENS_17LbCostBinMetadataENS_15LbTokenMetadataEEE6LookupINS0_12AppendHelperI19grpc_metadata_batchEEEEDTclptfp0_5FoundcvS2__EEEN4absl12lts_2021110211string_viewEPT_, symObjAddr: 0x6700, symBinAddr: 0xE238, symSize: 0x3C }
  - { offsetInCU: 0x6378B, offset: 0xFBB22, size: 0x8, addend: 0x0, symName: __ZN9grpc_core15metadata_detail10NameLookupIJNS_18HttpMethodMetadataENS_18HttpStatusMetadataENS_18HttpSchemeMetadataENS_19ContentTypeMetadataENS_10TeMetadataENS_20GrpcEncodingMetadataENS_27GrpcInternalEncodingRequestENS_26GrpcAcceptEncodingMetadataENS_18GrpcStatusMetadataENS_19GrpcTimeoutMetadataENS_31GrpcPreviousRpcAttemptsMetadataENS_27GrpcRetryPushbackMsMetadataENS_17UserAgentMetadataENS_19GrpcMessageMetadataENS_12HostMetadataENS_31XEndpointLoadMetricsBinMetadataENS_26GrpcServerStatsBinMetadataENS_20GrpcTraceBinMetadataENS_19GrpcTagsBinMetadataENS_25GrpcLbClientStatsMetadataENS_17LbCostBinMetadataENS_15LbTokenMetadataEEE6LookupINS0_12AppendHelperI19grpc_metadata_batchEEEEDTclptfp0_5FoundcvS2__EEEN4absl12lts_2021110211string_viewEPT_, symObjAddr: 0x6700, symBinAddr: 0xE238, symSize: 0x3C }
  - { offsetInCU: 0x637D8, offset: 0xFBB6F, size: 0x8, addend: 0x0, symName: __ZN9grpc_core15metadata_detail12AppendHelperI19grpc_metadata_batchE5FoundINS_21HttpAuthorityMetadataEEEvT_, symObjAddr: 0x6674, symBinAddr: 0xE1AC, symSize: 0x8C }
  - { offsetInCU: 0x63A67, offset: 0xFBDFE, size: 0x8, addend: 0x0, symName: __ZN9grpc_core5TableIJNS_15metadata_detail5ValueINS_16HttpPathMetadataEvEENS2_INS_21HttpAuthorityMetadataEvEENS2_INS_18HttpMethodMetadataEvEENS2_INS_18HttpStatusMetadataEvEENS2_INS_18HttpSchemeMetadataEvEENS2_INS_19ContentTypeMetadataEvEENS2_INS_10TeMetadataEvEENS2_INS_20GrpcEncodingMetadataEvEENS2_INS_27GrpcInternalEncodingRequestEvEENS2_INS_26GrpcAcceptEncodingMetadataEvEENS2_INS_18GrpcStatusMetadataEvEENS2_INS_19GrpcTimeoutMetadataEvEENS2_INS_31GrpcPreviousRpcAttemptsMetadataEvEENS2_INS_27GrpcRetryPushbackMsMetadataEvEENS2_INS_17UserAgentMetadataEvEENS2_INS_19GrpcMessageMetadataEvEENS2_INS_12HostMetadataEvEENS2_INS_31XEndpointLoadMetricsBinMetadataEvEENS2_INS_26GrpcServerStatsBinMetadataEvEENS2_INS_20GrpcTraceBinMetadataEvEENS2_INS_19GrpcTagsBinMetadataEvEENS2_INS_25GrpcLbClientStatsMetadataEvEENS2_INS_17LbCostBinMetadataEvEENS2_INS_15LbTokenMetadataEvEEEE3setILm1EJNS_5SliceEEEEPNS_12table_detail15TypeIndexStructIXT_EJS4_S6_S8_SA_SC_SE_SG_SI_SK_SM_SO_SQ_SS_SU_SW_SY_S10_S12_S14_S16_S18_S1A_S1C_S1E_EE4TypeEDpOT0_, symObjAddr: 0x673C, symBinAddr: 0xE274, symSize: 0x9C }
  - { offsetInCU: 0x63E58, offset: 0xFC1EF, size: 0x8, addend: 0x0, symName: __ZN9grpc_core15metadata_detail10NameLookupIJNS_18HttpStatusMetadataENS_18HttpSchemeMetadataENS_19ContentTypeMetadataENS_10TeMetadataENS_20GrpcEncodingMetadataENS_27GrpcInternalEncodingRequestENS_26GrpcAcceptEncodingMetadataENS_18GrpcStatusMetadataENS_19GrpcTimeoutMetadataENS_31GrpcPreviousRpcAttemptsMetadataENS_27GrpcRetryPushbackMsMetadataENS_17UserAgentMetadataENS_19GrpcMessageMetadataENS_12HostMetadataENS_31XEndpointLoadMetricsBinMetadataENS_26GrpcServerStatsBinMetadataENS_20GrpcTraceBinMetadataENS_19GrpcTagsBinMetadataENS_25GrpcLbClientStatsMetadataENS_17LbCostBinMetadataENS_15LbTokenMetadataEEE6LookupINS0_12AppendHelperI19grpc_metadata_batchEEEEDTclptfp0_5FoundcvS2__EEEN4absl12lts_2021110211string_viewEPT_, symObjAddr: 0x6814, symBinAddr: 0xE34C, symSize: 0x3C }
  - { offsetInCU: 0x63E8C, offset: 0xFC223, size: 0x8, addend: 0x0, symName: __ZN9grpc_core15metadata_detail10NameLookupIJNS_18HttpStatusMetadataENS_18HttpSchemeMetadataENS_19ContentTypeMetadataENS_10TeMetadataENS_20GrpcEncodingMetadataENS_27GrpcInternalEncodingRequestENS_26GrpcAcceptEncodingMetadataENS_18GrpcStatusMetadataENS_19GrpcTimeoutMetadataENS_31GrpcPreviousRpcAttemptsMetadataENS_27GrpcRetryPushbackMsMetadataENS_17UserAgentMetadataENS_19GrpcMessageMetadataENS_12HostMetadataENS_31XEndpointLoadMetricsBinMetadataENS_26GrpcServerStatsBinMetadataENS_20GrpcTraceBinMetadataENS_19GrpcTagsBinMetadataENS_25GrpcLbClientStatsMetadataENS_17LbCostBinMetadataENS_15LbTokenMetadataEEE6LookupINS0_12AppendHelperI19grpc_metadata_batchEEEEDTclptfp0_5FoundcvS2__EEEN4absl12lts_2021110211string_viewEPT_, symObjAddr: 0x6814, symBinAddr: 0xE34C, symSize: 0x3C }
  - { offsetInCU: 0x63ED9, offset: 0xFC270, size: 0x8, addend: 0x0, symName: __ZN9grpc_core15metadata_detail12AppendHelperI19grpc_metadata_batchE5FoundINS_18HttpMethodMetadataEEEvT_, symObjAddr: 0x67D8, symBinAddr: 0xE310, symSize: 0x3C }
  - { offsetInCU: 0x6416E, offset: 0xFC505, size: 0x8, addend: 0x0, symName: __ZN9grpc_core15metadata_detail10ParseValueIFNS_18HttpMethodMetadata9ValueTypeENS_5SliceEN4absl12lts_2021110211FunctionRefIFvNS6_11string_viewERKS4_EEEEFS3_S3_EE5ParseIXadL_ZNS2_12ParseMementoES4_SC_EEXadL_ZNS2_14MementoToValueES3_EEEEDTclT0_clT_clL_ZNSt3__14moveB7v160006IRS4_EEOu20__remove_reference_tIT_EOSK_Edefp_Efp0_EEEPS4_SC_, symObjAddr: 0x6850, symBinAddr: 0xE388, symSize: 0x88 }
  - { offsetInCU: 0x6429F, offset: 0xFC636, size: 0x8, addend: 0x0, symName: __ZN9grpc_core18HttpMethodMetadata12ParseMementoENS_5SliceEN4absl12lts_2021110211FunctionRefIFvNS3_11string_viewERKS1_EEE, symObjAddr: 0x68D8, symBinAddr: 0xE410, symSize: 0xC4 }
  - { offsetInCU: 0x642B6, offset: 0xFC64D, size: 0x8, addend: 0x0, symName: __ZN9grpc_core15metadata_detail10NameLookupIJNS_18HttpSchemeMetadataENS_19ContentTypeMetadataENS_10TeMetadataENS_20GrpcEncodingMetadataENS_27GrpcInternalEncodingRequestENS_26GrpcAcceptEncodingMetadataENS_18GrpcStatusMetadataENS_19GrpcTimeoutMetadataENS_31GrpcPreviousRpcAttemptsMetadataENS_27GrpcRetryPushbackMsMetadataENS_17UserAgentMetadataENS_19GrpcMessageMetadataENS_12HostMetadataENS_31XEndpointLoadMetricsBinMetadataENS_26GrpcServerStatsBinMetadataENS_20GrpcTraceBinMetadataENS_19GrpcTagsBinMetadataENS_25GrpcLbClientStatsMetadataENS_17LbCostBinMetadataENS_15LbTokenMetadataEEE6LookupINS0_12AppendHelperI19grpc_metadata_batchEEEEDTclptfp0_5FoundcvS2__EEEN4absl12lts_2021110211string_viewEPT_, symObjAddr: 0x69D8, symBinAddr: 0xE510, symSize: 0x3C }
  - { offsetInCU: 0x642EA, offset: 0xFC681, size: 0x8, addend: 0x0, symName: __ZN9grpc_core15metadata_detail10NameLookupIJNS_18HttpSchemeMetadataENS_19ContentTypeMetadataENS_10TeMetadataENS_20GrpcEncodingMetadataENS_27GrpcInternalEncodingRequestENS_26GrpcAcceptEncodingMetadataENS_18GrpcStatusMetadataENS_19GrpcTimeoutMetadataENS_31GrpcPreviousRpcAttemptsMetadataENS_27GrpcRetryPushbackMsMetadataENS_17UserAgentMetadataENS_19GrpcMessageMetadataENS_12HostMetadataENS_31XEndpointLoadMetricsBinMetadataENS_26GrpcServerStatsBinMetadataENS_20GrpcTraceBinMetadataENS_19GrpcTagsBinMetadataENS_25GrpcLbClientStatsMetadataENS_17LbCostBinMetadataENS_15LbTokenMetadataEEE6LookupINS0_12AppendHelperI19grpc_metadata_batchEEEEDTclptfp0_5FoundcvS2__EEEN4absl12lts_2021110211string_viewEPT_, symObjAddr: 0x69D8, symBinAddr: 0xE510, symSize: 0x3C }
  - { offsetInCU: 0x64337, offset: 0xFC6CE, size: 0x8, addend: 0x0, symName: __ZN9grpc_core15metadata_detail12AppendHelperI19grpc_metadata_batchE5FoundINS_18HttpStatusMetadataEEEvT_, symObjAddr: 0x699C, symBinAddr: 0xE4D4, symSize: 0x3C }
  - { offsetInCU: 0x6445E, offset: 0xFC7F5, size: 0x8, addend: 0x0, symName: __ZN9grpc_core18HttpMethodMetadata12ParseMementoENS_5SliceEN4absl12lts_2021110211FunctionRefIFvNS3_11string_viewERKS1_EEE, symObjAddr: 0x68D8, symBinAddr: 0xE410, symSize: 0xC4 }
  - { offsetInCU: 0x646DC, offset: 0xFCA73, size: 0x8, addend: 0x0, symName: __ZN9grpc_core15metadata_detail10ParseValueIFjNS_5SliceEN4absl12lts_2021110211FunctionRefIFvNS4_11string_viewERKS2_EEEEFjjEE5ParseIXadL_ZNS_22SimpleIntBasedMetadataIjLj0EE12ParseMementoES2_SA_EEXadL_ZNS_26SimpleIntBasedMetadataBaseIjE14MementoToValueEjEEEEDTclT0_clT_clL_ZNSt3__14moveB7v160006IRS2_EEOu20__remove_reference_tIT_EOSM_Edefp_Efp0_EEEPS2_SA_, symObjAddr: 0x6A14, symBinAddr: 0xE54C, symSize: 0x88 }
  - { offsetInCU: 0x6480D, offset: 0xFCBA4, size: 0x8, addend: 0x0, symName: __ZN9grpc_core22SimpleIntBasedMetadataIjLj0EE12ParseMementoENS_5SliceEN4absl12lts_2021110211FunctionRefIFvNS4_11string_viewERKS2_EEE, symObjAddr: 0x6A9C, symBinAddr: 0xE5D4, symSize: 0x6C }
  - { offsetInCU: 0x64824, offset: 0xFCBBB, size: 0x8, addend: 0x0, symName: __ZN9grpc_core15metadata_detail10NameLookupIJNS_19ContentTypeMetadataENS_10TeMetadataENS_20GrpcEncodingMetadataENS_27GrpcInternalEncodingRequestENS_26GrpcAcceptEncodingMetadataENS_18GrpcStatusMetadataENS_19GrpcTimeoutMetadataENS_31GrpcPreviousRpcAttemptsMetadataENS_27GrpcRetryPushbackMsMetadataENS_17UserAgentMetadataENS_19GrpcMessageMetadataENS_12HostMetadataENS_31XEndpointLoadMetricsBinMetadataENS_26GrpcServerStatsBinMetadataENS_20GrpcTraceBinMetadataENS_19GrpcTagsBinMetadataENS_25GrpcLbClientStatsMetadataENS_17LbCostBinMetadataENS_15LbTokenMetadataEEE6LookupINS0_12AppendHelperI19grpc_metadata_batchEEEEDTclptfp0_5FoundcvS2__EEEN4absl12lts_2021110211string_viewEPT_, symObjAddr: 0x6B44, symBinAddr: 0xE67C, symSize: 0x44 }
  - { offsetInCU: 0x64858, offset: 0xFCBEF, size: 0x8, addend: 0x0, symName: __ZN9grpc_core15metadata_detail10NameLookupIJNS_19ContentTypeMetadataENS_10TeMetadataENS_20GrpcEncodingMetadataENS_27GrpcInternalEncodingRequestENS_26GrpcAcceptEncodingMetadataENS_18GrpcStatusMetadataENS_19GrpcTimeoutMetadataENS_31GrpcPreviousRpcAttemptsMetadataENS_27GrpcRetryPushbackMsMetadataENS_17UserAgentMetadataENS_19GrpcMessageMetadataENS_12HostMetadataENS_31XEndpointLoadMetricsBinMetadataENS_26GrpcServerStatsBinMetadataENS_20GrpcTraceBinMetadataENS_19GrpcTagsBinMetadataENS_25GrpcLbClientStatsMetadataENS_17LbCostBinMetadataENS_15LbTokenMetadataEEE6LookupINS0_12AppendHelperI19grpc_metadata_batchEEEEDTclptfp0_5FoundcvS2__EEEN4absl12lts_2021110211string_viewEPT_, symObjAddr: 0x6B44, symBinAddr: 0xE67C, symSize: 0x44 }
  - { offsetInCU: 0x648A5, offset: 0xFCC3C, size: 0x8, addend: 0x0, symName: __ZN9grpc_core15metadata_detail12AppendHelperI19grpc_metadata_batchE5FoundINS_18HttpSchemeMetadataEEEvT_, symObjAddr: 0x6B08, symBinAddr: 0xE640, symSize: 0x3C }
  - { offsetInCU: 0x649CC, offset: 0xFCD63, size: 0x8, addend: 0x0, symName: __ZN9grpc_core22SimpleIntBasedMetadataIjLj0EE12ParseMementoENS_5SliceEN4absl12lts_2021110211FunctionRefIFvNS4_11string_viewERKS2_EEE, symObjAddr: 0x6A9C, symBinAddr: 0xE5D4, symSize: 0x6C }
  - { offsetInCU: 0x64C10, offset: 0xFCFA7, size: 0x8, addend: 0x0, symName: __ZN9grpc_core15metadata_detail10ParseValueIFNS_18HttpSchemeMetadata9ValueTypeENS_5SliceEN4absl12lts_2021110211FunctionRefIFvNS6_11string_viewERKS4_EEEEFS3_S3_EE5ParseIXadL_ZNS2_12ParseMementoES4_SC_EEXadL_ZNS2_14MementoToValueES3_EEEEDTclT0_clT_clL_ZNSt3__14moveB7v160006IRS4_EEOu20__remove_reference_tIT_EOSK_Edefp_Efp0_EEEPS4_SC_, symObjAddr: 0x6B88, symBinAddr: 0xE6C0, symSize: 0xD8 }
  - { offsetInCU: 0x64DD6, offset: 0xFD16D, size: 0x8, addend: 0x0, symName: __ZN9grpc_core15metadata_detail10NameLookupIJNS_10TeMetadataENS_20GrpcEncodingMetadataENS_27GrpcInternalEncodingRequestENS_26GrpcAcceptEncodingMetadataENS_18GrpcStatusMetadataENS_19GrpcTimeoutMetadataENS_31GrpcPreviousRpcAttemptsMetadataENS_27GrpcRetryPushbackMsMetadataENS_17UserAgentMetadataENS_19GrpcMessageMetadataENS_12HostMetadataENS_31XEndpointLoadMetricsBinMetadataENS_26GrpcServerStatsBinMetadataENS_20GrpcTraceBinMetadataENS_19GrpcTagsBinMetadataENS_25GrpcLbClientStatsMetadataENS_17LbCostBinMetadataENS_15LbTokenMetadataEEE6LookupINS0_12AppendHelperI19grpc_metadata_batchEEEEDTclptfp0_5FoundcvS2__EEEN4absl12lts_2021110211string_viewEPT_, symObjAddr: 0x6D94, symBinAddr: 0xE8CC, symSize: 0x24 }
  - { offsetInCU: 0x64E0A, offset: 0xFD1A1, size: 0x8, addend: 0x0, symName: __ZN9grpc_core15metadata_detail10NameLookupIJNS_10TeMetadataENS_20GrpcEncodingMetadataENS_27GrpcInternalEncodingRequestENS_26GrpcAcceptEncodingMetadataENS_18GrpcStatusMetadataENS_19GrpcTimeoutMetadataENS_31GrpcPreviousRpcAttemptsMetadataENS_27GrpcRetryPushbackMsMetadataENS_17UserAgentMetadataENS_19GrpcMessageMetadataENS_12HostMetadataENS_31XEndpointLoadMetricsBinMetadataENS_26GrpcServerStatsBinMetadataENS_20GrpcTraceBinMetadataENS_19GrpcTagsBinMetadataENS_25GrpcLbClientStatsMetadataENS_17LbCostBinMetadataENS_15LbTokenMetadataEEE6LookupINS0_12AppendHelperI19grpc_metadata_batchEEEEDTclptfp0_5FoundcvS2__EEEN4absl12lts_2021110211string_viewEPT_, symObjAddr: 0x6D94, symBinAddr: 0xE8CC, symSize: 0x24 }
  - { offsetInCU: 0x64E57, offset: 0xFD1EE, size: 0x8, addend: 0x0, symName: __ZN9grpc_core15metadata_detail12AppendHelperI19grpc_metadata_batchE5FoundINS_19ContentTypeMetadataEEEvT_, symObjAddr: 0x6D58, symBinAddr: 0xE890, symSize: 0x3C }
  - { offsetInCU: 0x64F9E, offset: 0xFD335, size: 0x8, addend: 0x0, symName: __ZN9grpc_core18HttpSchemeMetadata5ParseEN4absl12lts_2021110211string_viewENS2_11FunctionRefIFvS3_RKNS_5SliceEEEE, symObjAddr: 0x6C60, symBinAddr: 0xE798, symSize: 0xF8 }
  - { offsetInCU: 0x65264, offset: 0xFD5FB, size: 0x8, addend: 0x0, symName: __ZN9grpc_core15metadata_detail10ParseValueIFNS_19ContentTypeMetadata9ValueTypeENS_5SliceEN4absl12lts_2021110211FunctionRefIFvNS6_11string_viewERKS4_EEEEFS3_S3_EE5ParseIXadL_ZNS2_12ParseMementoES4_SC_EEXadL_ZNS2_14MementoToValueES3_EEEEDTclT0_clT_clL_ZNSt3__14moveB7v160006IRS4_EEOu20__remove_reference_tIT_EOSK_Edefp_Efp0_EEEPS4_SC_, symObjAddr: 0x6DB8, symBinAddr: 0xE8F0, symSize: 0x88 }
  - { offsetInCU: 0x65395, offset: 0xFD72C, size: 0x8, addend: 0x0, symName: __ZN9grpc_core19ContentTypeMetadata12ParseMementoENS_5SliceEN4absl12lts_2021110211FunctionRefIFvNS3_11string_viewERKS1_EEE, symObjAddr: 0x6E40, symBinAddr: 0xE978, symSize: 0x110 }
  - { offsetInCU: 0x653AC, offset: 0xFD743, size: 0x8, addend: 0x0, symName: __ZN9grpc_core15metadata_detail10NameLookupIJNS_20GrpcEncodingMetadataENS_27GrpcInternalEncodingRequestENS_26GrpcAcceptEncodingMetadataENS_18GrpcStatusMetadataENS_19GrpcTimeoutMetadataENS_31GrpcPreviousRpcAttemptsMetadataENS_27GrpcRetryPushbackMsMetadataENS_17UserAgentMetadataENS_19GrpcMessageMetadataENS_12HostMetadataENS_31XEndpointLoadMetricsBinMetadataENS_26GrpcServerStatsBinMetadataENS_20GrpcTraceBinMetadataENS_19GrpcTagsBinMetadataENS_25GrpcLbClientStatsMetadataENS_17LbCostBinMetadataENS_15LbTokenMetadataEEE6LookupINS0_12AppendHelperI19grpc_metadata_batchEEEEDTclptfp0_5FoundcvS2__EEEN4absl12lts_2021110211string_viewEPT_, symObjAddr: 0x6F8C, symBinAddr: 0xEAC4, symSize: 0x4C }
  - { offsetInCU: 0x653E0, offset: 0xFD777, size: 0x8, addend: 0x0, symName: __ZN9grpc_core15metadata_detail10NameLookupIJNS_20GrpcEncodingMetadataENS_27GrpcInternalEncodingRequestENS_26GrpcAcceptEncodingMetadataENS_18GrpcStatusMetadataENS_19GrpcTimeoutMetadataENS_31GrpcPreviousRpcAttemptsMetadataENS_27GrpcRetryPushbackMsMetadataENS_17UserAgentMetadataENS_19GrpcMessageMetadataENS_12HostMetadataENS_31XEndpointLoadMetricsBinMetadataENS_26GrpcServerStatsBinMetadataENS_20GrpcTraceBinMetadataENS_19GrpcTagsBinMetadataENS_25GrpcLbClientStatsMetadataENS_17LbCostBinMetadataENS_15LbTokenMetadataEEE6LookupINS0_12AppendHelperI19grpc_metadata_batchEEEEDTclptfp0_5FoundcvS2__EEEN4absl12lts_2021110211string_viewEPT_, symObjAddr: 0x6F8C, symBinAddr: 0xEAC4, symSize: 0x4C }
  - { offsetInCU: 0x6542D, offset: 0xFD7C4, size: 0x8, addend: 0x0, symName: __ZN9grpc_core15metadata_detail12AppendHelperI19grpc_metadata_batchE5FoundINS_10TeMetadataEEEvT_, symObjAddr: 0x6F50, symBinAddr: 0xEA88, symSize: 0x3C }
  - { offsetInCU: 0x65554, offset: 0xFD8EB, size: 0x8, addend: 0x0, symName: __ZN9grpc_core19ContentTypeMetadata12ParseMementoENS_5SliceEN4absl12lts_2021110211FunctionRefIFvNS3_11string_viewERKS1_EEE, symObjAddr: 0x6E40, symBinAddr: 0xE978, symSize: 0x110 }
  - { offsetInCU: 0x657AA, offset: 0xFDB41, size: 0x8, addend: 0x0, symName: __ZN9grpc_core15metadata_detail10ParseValueIFNS_10TeMetadata9ValueTypeENS_5SliceEN4absl12lts_2021110211FunctionRefIFvNS6_11string_viewERKS4_EEEEFS3_S3_EE5ParseIXadL_ZNS2_12ParseMementoES4_SC_EEXadL_ZNS2_14MementoToValueES3_EEEEDTclT0_clT_clL_ZNSt3__14moveB7v160006IRS4_EEOu20__remove_reference_tIT_EOSK_Edefp_Efp0_EEEPS4_SC_, symObjAddr: 0x6FD8, symBinAddr: 0xEB10, symSize: 0x88 }
  - { offsetInCU: 0x658DB, offset: 0xFDC72, size: 0x8, addend: 0x0, symName: __ZN9grpc_core10TeMetadata12ParseMementoENS_5SliceEN4absl12lts_2021110211FunctionRefIFvNS3_11string_viewERKS1_EEE, symObjAddr: 0x7060, symBinAddr: 0xEB98, symSize: 0x78 }
  - { offsetInCU: 0x658F2, offset: 0xFDC89, size: 0x8, addend: 0x0, symName: __ZN9grpc_core15metadata_detail10NameLookupIJNS_27GrpcInternalEncodingRequestENS_26GrpcAcceptEncodingMetadataENS_18GrpcStatusMetadataENS_19GrpcTimeoutMetadataENS_31GrpcPreviousRpcAttemptsMetadataENS_27GrpcRetryPushbackMsMetadataENS_17UserAgentMetadataENS_19GrpcMessageMetadataENS_12HostMetadataENS_31XEndpointLoadMetricsBinMetadataENS_26GrpcServerStatsBinMetadataENS_20GrpcTraceBinMetadataENS_19GrpcTagsBinMetadataENS_25GrpcLbClientStatsMetadataENS_17LbCostBinMetadataENS_15LbTokenMetadataEEE6LookupINS0_12AppendHelperI19grpc_metadata_batchEEEEDTclptfp0_5FoundcvS2__EEEN4absl12lts_2021110211string_viewEPT_, symObjAddr: 0x7114, symBinAddr: 0xEC4C, symSize: 0x80 }
  - { offsetInCU: 0x65926, offset: 0xFDCBD, size: 0x8, addend: 0x0, symName: __ZN9grpc_core15metadata_detail10NameLookupIJNS_27GrpcInternalEncodingRequestENS_26GrpcAcceptEncodingMetadataENS_18GrpcStatusMetadataENS_19GrpcTimeoutMetadataENS_31GrpcPreviousRpcAttemptsMetadataENS_27GrpcRetryPushbackMsMetadataENS_17UserAgentMetadataENS_19GrpcMessageMetadataENS_12HostMetadataENS_31XEndpointLoadMetricsBinMetadataENS_26GrpcServerStatsBinMetadataENS_20GrpcTraceBinMetadataENS_19GrpcTagsBinMetadataENS_25GrpcLbClientStatsMetadataENS_17LbCostBinMetadataENS_15LbTokenMetadataEEE6LookupINS0_12AppendHelperI19grpc_metadata_batchEEEEDTclptfp0_5FoundcvS2__EEEN4absl12lts_2021110211string_viewEPT_, symObjAddr: 0x7114, symBinAddr: 0xEC4C, symSize: 0x80 }
  - { offsetInCU: 0x65973, offset: 0xFDD0A, size: 0x8, addend: 0x0, symName: __ZN9grpc_core15metadata_detail12AppendHelperI19grpc_metadata_batchE5FoundINS_20GrpcEncodingMetadataEEEvT_, symObjAddr: 0x70D8, symBinAddr: 0xEC10, symSize: 0x3C }
  - { offsetInCU: 0x65A9A, offset: 0xFDE31, size: 0x8, addend: 0x0, symName: __ZN9grpc_core10TeMetadata12ParseMementoENS_5SliceEN4absl12lts_2021110211FunctionRefIFvNS3_11string_viewERKS1_EEE, symObjAddr: 0x7060, symBinAddr: 0xEB98, symSize: 0x78 }
  - { offsetInCU: 0x65C7B, offset: 0xFE012, size: 0x8, addend: 0x0, symName: __ZN9grpc_core15metadata_detail10ParseValueIF26grpc_compression_algorithmNS_5SliceEN4absl12lts_2021110211FunctionRefIFvNS5_11string_viewERKS3_EEEEFS2_S2_EE5ParseIXadL_ZNS_33CompressionAlgorithmBasedMetadata12ParseMementoES3_SB_EEXadL_ZNSG_14MementoToValueES2_EEEEDTclT0_clT_clL_ZNSt3__14moveB7v160006IRS3_EEOu20__remove_reference_tIT_EOSK_Edefp_Efp0_EEEPS3_SB_, symObjAddr: 0x7194, symBinAddr: 0xECCC, symSize: 0x88 }
  - { offsetInCU: 0x65DAC, offset: 0xFE143, size: 0x8, addend: 0x0, symName: __ZN9grpc_core33CompressionAlgorithmBasedMetadata12ParseMementoENS_5SliceEN4absl12lts_2021110211FunctionRefIFvNS3_11string_viewERKS1_EEE, symObjAddr: 0x721C, symBinAddr: 0xED54, symSize: 0x60 }
  - { offsetInCU: 0x65DC3, offset: 0xFE15A, size: 0x8, addend: 0x0, symName: __ZN9grpc_core15metadata_detail10NameLookupIJNS_26GrpcAcceptEncodingMetadataENS_18GrpcStatusMetadataENS_19GrpcTimeoutMetadataENS_31GrpcPreviousRpcAttemptsMetadataENS_27GrpcRetryPushbackMsMetadataENS_17UserAgentMetadataENS_19GrpcMessageMetadataENS_12HostMetadataENS_31XEndpointLoadMetricsBinMetadataENS_26GrpcServerStatsBinMetadataENS_20GrpcTraceBinMetadataENS_19GrpcTagsBinMetadataENS_25GrpcLbClientStatsMetadataENS_17LbCostBinMetadataENS_15LbTokenMetadataEEE6LookupINS0_12AppendHelperI19grpc_metadata_batchEEEEDTclptfp0_5FoundcvS2__EEEN4absl12lts_2021110211string_viewEPT_, symObjAddr: 0x72B8, symBinAddr: 0xEDF0, symSize: 0x5C }
  - { offsetInCU: 0x65DF7, offset: 0xFE18E, size: 0x8, addend: 0x0, symName: __ZN9grpc_core15metadata_detail10NameLookupIJNS_26GrpcAcceptEncodingMetadataENS_18GrpcStatusMetadataENS_19GrpcTimeoutMetadataENS_31GrpcPreviousRpcAttemptsMetadataENS_27GrpcRetryPushbackMsMetadataENS_17UserAgentMetadataENS_19GrpcMessageMetadataENS_12HostMetadataENS_31XEndpointLoadMetricsBinMetadataENS_26GrpcServerStatsBinMetadataENS_20GrpcTraceBinMetadataENS_19GrpcTagsBinMetadataENS_25GrpcLbClientStatsMetadataENS_17LbCostBinMetadataENS_15LbTokenMetadataEEE6LookupINS0_12AppendHelperI19grpc_metadata_batchEEEEDTclptfp0_5FoundcvS2__EEEN4absl12lts_2021110211string_viewEPT_, symObjAddr: 0x72B8, symBinAddr: 0xEDF0, symSize: 0x5C }
  - { offsetInCU: 0x65E44, offset: 0xFE1DB, size: 0x8, addend: 0x0, symName: __ZN9grpc_core15metadata_detail12AppendHelperI19grpc_metadata_batchE5FoundINS_27GrpcInternalEncodingRequestEEEvT_, symObjAddr: 0x727C, symBinAddr: 0xEDB4, symSize: 0x3C }
  - { offsetInCU: 0x65F6B, offset: 0xFE302, size: 0x8, addend: 0x0, symName: __ZN9grpc_core33CompressionAlgorithmBasedMetadata12ParseMementoENS_5SliceEN4absl12lts_2021110211FunctionRefIFvNS3_11string_viewERKS1_EEE, symObjAddr: 0x721C, symBinAddr: 0xED54, symSize: 0x60 }
  - { offsetInCU: 0x66167, offset: 0xFE4FE, size: 0x8, addend: 0x0, symName: __ZN9grpc_core15metadata_detail10NameLookupIJNS_18GrpcStatusMetadataENS_19GrpcTimeoutMetadataENS_31GrpcPreviousRpcAttemptsMetadataENS_27GrpcRetryPushbackMsMetadataENS_17UserAgentMetadataENS_19GrpcMessageMetadataENS_12HostMetadataENS_31XEndpointLoadMetricsBinMetadataENS_26GrpcServerStatsBinMetadataENS_20GrpcTraceBinMetadataENS_19GrpcTagsBinMetadataENS_25GrpcLbClientStatsMetadataENS_17LbCostBinMetadataENS_15LbTokenMetadataEEE6LookupINS0_12AppendHelperI19grpc_metadata_batchEEEEDTclptfp0_5FoundcvS2__EEEN4absl12lts_2021110211string_viewEPT_, symObjAddr: 0x7350, symBinAddr: 0xEE88, symSize: 0x4C }
  - { offsetInCU: 0x6619B, offset: 0xFE532, size: 0x8, addend: 0x0, symName: __ZN9grpc_core15metadata_detail10NameLookupIJNS_18GrpcStatusMetadataENS_19GrpcTimeoutMetadataENS_31GrpcPreviousRpcAttemptsMetadataENS_27GrpcRetryPushbackMsMetadataENS_17UserAgentMetadataENS_19GrpcMessageMetadataENS_12HostMetadataENS_31XEndpointLoadMetricsBinMetadataENS_26GrpcServerStatsBinMetadataENS_20GrpcTraceBinMetadataENS_19GrpcTagsBinMetadataENS_25GrpcLbClientStatsMetadataENS_17LbCostBinMetadataENS_15LbTokenMetadataEEE6LookupINS0_12AppendHelperI19grpc_metadata_batchEEEEDTclptfp0_5FoundcvS2__EEEN4absl12lts_2021110211string_viewEPT_, symObjAddr: 0x7350, symBinAddr: 0xEE88, symSize: 0x4C }
  - { offsetInCU: 0x661E8, offset: 0xFE57F, size: 0x8, addend: 0x0, symName: __ZN9grpc_core15metadata_detail12AppendHelperI19grpc_metadata_batchE5FoundINS_26GrpcAcceptEncodingMetadataEEEvT_, symObjAddr: 0x7314, symBinAddr: 0xEE4C, symSize: 0x3C }
  - { offsetInCU: 0x6644C, offset: 0xFE7E3, size: 0x8, addend: 0x0, symName: __ZN9grpc_core15metadata_detail10ParseValueIFNS_23CompressionAlgorithmSetENS_5SliceEN4absl12lts_2021110211FunctionRefIFvNS5_11string_viewERKS3_EEEEFS2_S2_EE5ParseIXadL_ZNS_26GrpcAcceptEncodingMetadata12ParseMementoES3_SB_EEXadL_ZNSG_14MementoToValueES2_EEEEDTclT0_clT_clL_ZNSt3__14moveB7v160006IRS3_EEOu20__remove_reference_tIT_EOSK_Edefp_Efp0_EEEPS3_SB_, symObjAddr: 0x739C, symBinAddr: 0xEED4, symSize: 0xD0 }
  - { offsetInCU: 0x66605, offset: 0xFE99C, size: 0x8, addend: 0x0, symName: __ZN9grpc_core15metadata_detail10NameLookupIJNS_19GrpcTimeoutMetadataENS_31GrpcPreviousRpcAttemptsMetadataENS_27GrpcRetryPushbackMsMetadataENS_17UserAgentMetadataENS_19GrpcMessageMetadataENS_12HostMetadataENS_31XEndpointLoadMetricsBinMetadataENS_26GrpcServerStatsBinMetadataENS_20GrpcTraceBinMetadataENS_19GrpcTagsBinMetadataENS_25GrpcLbClientStatsMetadataENS_17LbCostBinMetadataENS_15LbTokenMetadataEEE6LookupINS0_12AppendHelperI19grpc_metadata_batchEEEEDTclptfp0_5FoundcvS2__EEEN4absl12lts_2021110211string_viewEPT_, symObjAddr: 0x74A8, symBinAddr: 0xEFE0, symSize: 0x44 }
  - { offsetInCU: 0x66639, offset: 0xFE9D0, size: 0x8, addend: 0x0, symName: __ZN9grpc_core15metadata_detail10NameLookupIJNS_19GrpcTimeoutMetadataENS_31GrpcPreviousRpcAttemptsMetadataENS_27GrpcRetryPushbackMsMetadataENS_17UserAgentMetadataENS_19GrpcMessageMetadataENS_12HostMetadataENS_31XEndpointLoadMetricsBinMetadataENS_26GrpcServerStatsBinMetadataENS_20GrpcTraceBinMetadataENS_19GrpcTagsBinMetadataENS_25GrpcLbClientStatsMetadataENS_17LbCostBinMetadataENS_15LbTokenMetadataEEE6LookupINS0_12AppendHelperI19grpc_metadata_batchEEEEDTclptfp0_5FoundcvS2__EEEN4absl12lts_2021110211string_viewEPT_, symObjAddr: 0x74A8, symBinAddr: 0xEFE0, symSize: 0x44 }
  - { offsetInCU: 0x66686, offset: 0xFEA1D, size: 0x8, addend: 0x0, symName: __ZN9grpc_core15metadata_detail12AppendHelperI19grpc_metadata_batchE5FoundINS_18GrpcStatusMetadataEEEvT_, symObjAddr: 0x746C, symBinAddr: 0xEFA4, symSize: 0x3C }
  - { offsetInCU: 0x66908, offset: 0xFEC9F, size: 0x8, addend: 0x0, symName: __ZN9grpc_core15metadata_detail10ParseValueIF16grpc_status_codeNS_5SliceEN4absl12lts_2021110211FunctionRefIFvNS5_11string_viewERKS3_EEEEFS2_S2_EE5ParseIXadL_ZNS_22SimpleIntBasedMetadataIS2_LS2_2EE12ParseMementoES3_SB_EEXadL_ZNS_26SimpleIntBasedMetadataBaseIS2_E14MementoToValueES2_EEEEDTclT0_clT_clL_ZNSt3__14moveB7v160006IRS3_EEOu20__remove_reference_tIT_EOSN_Edefp_Efp0_EEEPS3_SB_, symObjAddr: 0x74EC, symBinAddr: 0xF024, symSize: 0x88 }
  - { offsetInCU: 0x66A39, offset: 0xFEDD0, size: 0x8, addend: 0x0, symName: __ZN9grpc_core22SimpleIntBasedMetadataI16grpc_status_codeLS1_2EE12ParseMementoENS_5SliceEN4absl12lts_2021110211FunctionRefIFvNS5_11string_viewERKS3_EEE, symObjAddr: 0x7574, symBinAddr: 0xF0AC, symSize: 0x6C }
  - { offsetInCU: 0x66A50, offset: 0xFEDE7, size: 0x8, addend: 0x0, symName: __ZN9grpc_core15metadata_detail10NameLookupIJNS_31GrpcPreviousRpcAttemptsMetadataENS_27GrpcRetryPushbackMsMetadataENS_17UserAgentMetadataENS_19GrpcMessageMetadataENS_12HostMetadataENS_31XEndpointLoadMetricsBinMetadataENS_26GrpcServerStatsBinMetadataENS_20GrpcTraceBinMetadataENS_19GrpcTagsBinMetadataENS_25GrpcLbClientStatsMetadataENS_17LbCostBinMetadataENS_15LbTokenMetadataEEE6LookupINS0_12AppendHelperI19grpc_metadata_batchEEEEDTclptfp0_5FoundcvS2__EEEN4absl12lts_2021110211string_viewEPT_, symObjAddr: 0x761C, symBinAddr: 0xF154, symSize: 0x74 }
  - { offsetInCU: 0x66A84, offset: 0xFEE1B, size: 0x8, addend: 0x0, symName: __ZN9grpc_core15metadata_detail10NameLookupIJNS_31GrpcPreviousRpcAttemptsMetadataENS_27GrpcRetryPushbackMsMetadataENS_17UserAgentMetadataENS_19GrpcMessageMetadataENS_12HostMetadataENS_31XEndpointLoadMetricsBinMetadataENS_26GrpcServerStatsBinMetadataENS_20GrpcTraceBinMetadataENS_19GrpcTagsBinMetadataENS_25GrpcLbClientStatsMetadataENS_17LbCostBinMetadataENS_15LbTokenMetadataEEE6LookupINS0_12AppendHelperI19grpc_metadata_batchEEEEDTclptfp0_5FoundcvS2__EEEN4absl12lts_2021110211string_viewEPT_, symObjAddr: 0x761C, symBinAddr: 0xF154, symSize: 0x74 }
  - { offsetInCU: 0x66AD1, offset: 0xFEE68, size: 0x8, addend: 0x0, symName: __ZN9grpc_core15metadata_detail12AppendHelperI19grpc_metadata_batchE5FoundINS_19GrpcTimeoutMetadataEEEvT_, symObjAddr: 0x75E0, symBinAddr: 0xF118, symSize: 0x3C }
  - { offsetInCU: 0x66BF8, offset: 0xFEF8F, size: 0x8, addend: 0x0, symName: __ZN9grpc_core22SimpleIntBasedMetadataI16grpc_status_codeLS1_2EE12ParseMementoENS_5SliceEN4absl12lts_2021110211FunctionRefIFvNS5_11string_viewERKS3_EEE, symObjAddr: 0x7574, symBinAddr: 0xF0AC, symSize: 0x6C }
  - { offsetInCU: 0x66E42, offset: 0xFF1D9, size: 0x8, addend: 0x0, symName: __ZN9grpc_core15metadata_detail10ParseValueIFxNS_5SliceEN4absl12lts_2021110211FunctionRefIFvNS4_11string_viewERKS2_EEEEFxxEE5ParseIXadL_ZNS_19GrpcTimeoutMetadata12ParseMementoES2_SA_EEXadL_ZNSF_14MementoToValueExEEEEDTclT0_clT_clL_ZNSt3__14moveB7v160006IRS2_EEOu20__remove_reference_tIT_EOSJ_Edefp_Efp0_EEEPS2_SA_, symObjAddr: 0x7690, symBinAddr: 0xF1C8, symSize: 0xBC }
  - { offsetInCU: 0x67000, offset: 0xFF397, size: 0x8, addend: 0x0, symName: __ZN9grpc_core19GrpcTimeoutMetadata14MementoToValueEx, symObjAddr: 0x774C, symBinAddr: 0xF284, symSize: 0x38 }
  - { offsetInCU: 0x6700D, offset: 0xFF3A4, size: 0x8, addend: 0x0, symName: __ZN9grpc_core15metadata_detail10NameLookupIJNS_27GrpcRetryPushbackMsMetadataENS_17UserAgentMetadataENS_19GrpcMessageMetadataENS_12HostMetadataENS_31XEndpointLoadMetricsBinMetadataENS_26GrpcServerStatsBinMetadataENS_20GrpcTraceBinMetadataENS_19GrpcTagsBinMetadataENS_25GrpcLbClientStatsMetadataENS_17LbCostBinMetadataENS_15LbTokenMetadataEEE6LookupINS0_12AppendHelperI19grpc_metadata_batchEEEEDTclptfp0_5FoundcvS2__EEEN4absl12lts_2021110211string_viewEPT_, symObjAddr: 0x77C0, symBinAddr: 0xF2F8, symSize: 0x64 }
  - { offsetInCU: 0x67041, offset: 0xFF3D8, size: 0x8, addend: 0x0, symName: __ZN9grpc_core15metadata_detail10NameLookupIJNS_27GrpcRetryPushbackMsMetadataENS_17UserAgentMetadataENS_19GrpcMessageMetadataENS_12HostMetadataENS_31XEndpointLoadMetricsBinMetadataENS_26GrpcServerStatsBinMetadataENS_20GrpcTraceBinMetadataENS_19GrpcTagsBinMetadataENS_25GrpcLbClientStatsMetadataENS_17LbCostBinMetadataENS_15LbTokenMetadataEEE6LookupINS0_12AppendHelperI19grpc_metadata_batchEEEEDTclptfp0_5FoundcvS2__EEEN4absl12lts_2021110211string_viewEPT_, symObjAddr: 0x77C0, symBinAddr: 0xF2F8, symSize: 0x64 }
  - { offsetInCU: 0x6708E, offset: 0xFF425, size: 0x8, addend: 0x0, symName: __ZN9grpc_core15metadata_detail12AppendHelperI19grpc_metadata_batchE5FoundINS_31GrpcPreviousRpcAttemptsMetadataEEEvT_, symObjAddr: 0x7784, symBinAddr: 0xF2BC, symSize: 0x3C }
  - { offsetInCU: 0x67249, offset: 0xFF5E0, size: 0x8, addend: 0x0, symName: __ZN9grpc_core19GrpcTimeoutMetadata14MementoToValueEx, symObjAddr: 0x774C, symBinAddr: 0xF284, symSize: 0x38 }
  - { offsetInCU: 0x67393, offset: 0xFF72A, size: 0x8, addend: 0x0, symName: __ZN9grpc_core15metadata_detail10NameLookupIJNS_17UserAgentMetadataENS_19GrpcMessageMetadataENS_12HostMetadataENS_31XEndpointLoadMetricsBinMetadataENS_26GrpcServerStatsBinMetadataENS_20GrpcTraceBinMetadataENS_19GrpcTagsBinMetadataENS_25GrpcLbClientStatsMetadataENS_17LbCostBinMetadataENS_15LbTokenMetadataEEE6LookupINS0_12AppendHelperI19grpc_metadata_batchEEEEDTclptfp0_5FoundcvS2__EEEN4absl12lts_2021110211string_viewEPT_, symObjAddr: 0x7860, symBinAddr: 0xF398, symSize: 0x40 }
  - { offsetInCU: 0x673C7, offset: 0xFF75E, size: 0x8, addend: 0x0, symName: __ZN9grpc_core15metadata_detail10NameLookupIJNS_17UserAgentMetadataENS_19GrpcMessageMetadataENS_12HostMetadataENS_31XEndpointLoadMetricsBinMetadataENS_26GrpcServerStatsBinMetadataENS_20GrpcTraceBinMetadataENS_19GrpcTagsBinMetadataENS_25GrpcLbClientStatsMetadataENS_17LbCostBinMetadataENS_15LbTokenMetadataEEE6LookupINS0_12AppendHelperI19grpc_metadata_batchEEEEDTclptfp0_5FoundcvS2__EEEN4absl12lts_2021110211string_viewEPT_, symObjAddr: 0x7860, symBinAddr: 0xF398, symSize: 0x40 }
  - { offsetInCU: 0x67414, offset: 0xFF7AB, size: 0x8, addend: 0x0, symName: __ZN9grpc_core15metadata_detail12AppendHelperI19grpc_metadata_batchE5FoundINS_27GrpcRetryPushbackMsMetadataEEEvT_, symObjAddr: 0x7824, symBinAddr: 0xF35C, symSize: 0x3C }
  - { offsetInCU: 0x6764B, offset: 0xFF9E2, size: 0x8, addend: 0x0, symName: __ZN9grpc_core15metadata_detail10ParseValueIFxNS_5SliceEN4absl12lts_2021110211FunctionRefIFvNS4_11string_viewERKS2_EEEEFxxEE5ParseIXadL_ZNS_22SimpleIntBasedMetadataIxLxn9223372036854775808EE12ParseMementoES2_SA_EEXadL_ZNS_26SimpleIntBasedMetadataBaseIxE14MementoToValueExEEEEDTclT0_clT_clL_ZNSt3__14moveB7v160006IRS2_EEOu20__remove_reference_tIT_EOSM_Edefp_Efp0_EEEPS2_SA_, symObjAddr: 0x78A0, symBinAddr: 0xF3D8, symSize: 0x88 }
  - { offsetInCU: 0x6777C, offset: 0xFFB13, size: 0x8, addend: 0x0, symName: __ZN9grpc_core22SimpleIntBasedMetadataIxLxn9223372036854775808EE12ParseMementoENS_5SliceEN4absl12lts_2021110211FunctionRefIFvNS4_11string_viewERKS2_EEE, symObjAddr: 0x7928, symBinAddr: 0xF460, symSize: 0x6C }
  - { offsetInCU: 0x67793, offset: 0xFFB2A, size: 0x8, addend: 0x0, symName: __ZN9grpc_core15metadata_detail10NameLookupIJNS_19GrpcMessageMetadataENS_12HostMetadataENS_31XEndpointLoadMetricsBinMetadataENS_26GrpcServerStatsBinMetadataENS_20GrpcTraceBinMetadataENS_19GrpcTagsBinMetadataENS_25GrpcLbClientStatsMetadataENS_17LbCostBinMetadataENS_15LbTokenMetadataEEE6LookupINS0_12AppendHelperI19grpc_metadata_batchEEEEDTclptfp0_5FoundcvS2__EEEN4absl12lts_2021110211string_viewEPT_, symObjAddr: 0x7A20, symBinAddr: 0xF558, symSize: 0x44 }
  - { offsetInCU: 0x677C7, offset: 0xFFB5E, size: 0x8, addend: 0x0, symName: __ZN9grpc_core15metadata_detail10NameLookupIJNS_19GrpcMessageMetadataENS_12HostMetadataENS_31XEndpointLoadMetricsBinMetadataENS_26GrpcServerStatsBinMetadataENS_20GrpcTraceBinMetadataENS_19GrpcTagsBinMetadataENS_25GrpcLbClientStatsMetadataENS_17LbCostBinMetadataENS_15LbTokenMetadataEEE6LookupINS0_12AppendHelperI19grpc_metadata_batchEEEEDTclptfp0_5FoundcvS2__EEEN4absl12lts_2021110211string_viewEPT_, symObjAddr: 0x7A20, symBinAddr: 0xF558, symSize: 0x44 }
  - { offsetInCU: 0x67814, offset: 0xFFBAB, size: 0x8, addend: 0x0, symName: __ZN9grpc_core15metadata_detail12AppendHelperI19grpc_metadata_batchE5FoundINS_17UserAgentMetadataEEEvT_, symObjAddr: 0x7994, symBinAddr: 0xF4CC, symSize: 0x8C }
  - { offsetInCU: 0x6793D, offset: 0xFFCD4, size: 0x8, addend: 0x0, symName: __ZN9grpc_core22SimpleIntBasedMetadataIxLxn9223372036854775808EE12ParseMementoENS_5SliceEN4absl12lts_2021110211FunctionRefIFvNS4_11string_viewERKS2_EEE, symObjAddr: 0x7928, symBinAddr: 0xF460, symSize: 0x6C }
  - { offsetInCU: 0x67ABC, offset: 0xFFE53, size: 0x8, addend: 0x0, symName: __ZN9grpc_core5TableIJNS_15metadata_detail5ValueINS_16HttpPathMetadataEvEENS2_INS_21HttpAuthorityMetadataEvEENS2_INS_18HttpMethodMetadataEvEENS2_INS_18HttpStatusMetadataEvEENS2_INS_18HttpSchemeMetadataEvEENS2_INS_19ContentTypeMetadataEvEENS2_INS_10TeMetadataEvEENS2_INS_20GrpcEncodingMetadataEvEENS2_INS_27GrpcInternalEncodingRequestEvEENS2_INS_26GrpcAcceptEncodingMetadataEvEENS2_INS_18GrpcStatusMetadataEvEENS2_INS_19GrpcTimeoutMetadataEvEENS2_INS_31GrpcPreviousRpcAttemptsMetadataEvEENS2_INS_27GrpcRetryPushbackMsMetadataEvEENS2_INS_17UserAgentMetadataEvEENS2_INS_19GrpcMessageMetadataEvEENS2_INS_12HostMetadataEvEENS2_INS_31XEndpointLoadMetricsBinMetadataEvEENS2_INS_26GrpcServerStatsBinMetadataEvEENS2_INS_20GrpcTraceBinMetadataEvEENS2_INS_19GrpcTagsBinMetadataEvEENS2_INS_25GrpcLbClientStatsMetadataEvEENS2_INS_17LbCostBinMetadataEvEENS2_INS_15LbTokenMetadataEvEEEE3setILm14EJNS_5SliceEEEEPNS_12table_detail15TypeIndexStructIXT_EJS4_S6_S8_SA_SC_SE_SG_SI_SK_SM_SO_SQ_SS_SU_SW_SY_S10_S12_S14_S16_S18_S1A_S1C_S1E_EE4TypeEDpOT0_, symObjAddr: 0x7A64, symBinAddr: 0xF59C, symSize: 0x9C }
  - { offsetInCU: 0x68033, offset: 0x1003CA, size: 0x8, addend: 0x0, symName: __ZN9grpc_core15metadata_detail10NameLookupIJNS_12HostMetadataENS_31XEndpointLoadMetricsBinMetadataENS_26GrpcServerStatsBinMetadataENS_20GrpcTraceBinMetadataENS_19GrpcTagsBinMetadataENS_25GrpcLbClientStatsMetadataENS_17LbCostBinMetadataENS_15LbTokenMetadataEEE6LookupINS0_12AppendHelperI19grpc_metadata_batchEEEEDTclptfp0_5FoundcvS2__EEEN4absl12lts_2021110211string_viewEPT_, symObjAddr: 0x7B8C, symBinAddr: 0xF6C4, symSize: 0x28 }
  - { offsetInCU: 0x68067, offset: 0x1003FE, size: 0x8, addend: 0x0, symName: __ZN9grpc_core15metadata_detail10NameLookupIJNS_12HostMetadataENS_31XEndpointLoadMetricsBinMetadataENS_26GrpcServerStatsBinMetadataENS_20GrpcTraceBinMetadataENS_19GrpcTagsBinMetadataENS_25GrpcLbClientStatsMetadataENS_17LbCostBinMetadataENS_15LbTokenMetadataEEE6LookupINS0_12AppendHelperI19grpc_metadata_batchEEEEDTclptfp0_5FoundcvS2__EEEN4absl12lts_2021110211string_viewEPT_, symObjAddr: 0x7B8C, symBinAddr: 0xF6C4, symSize: 0x28 }
  - { offsetInCU: 0x680B4, offset: 0x10044B, size: 0x8, addend: 0x0, symName: __ZN9grpc_core15metadata_detail12AppendHelperI19grpc_metadata_batchE5FoundINS_19GrpcMessageMetadataEEEvT_, symObjAddr: 0x7B00, symBinAddr: 0xF638, symSize: 0x8C }
  - { offsetInCU: 0x682C5, offset: 0x10065C, size: 0x8, addend: 0x0, symName: __ZN9grpc_core5TableIJNS_15metadata_detail5ValueINS_16HttpPathMetadataEvEENS2_INS_21HttpAuthorityMetadataEvEENS2_INS_18HttpMethodMetadataEvEENS2_INS_18HttpStatusMetadataEvEENS2_INS_18HttpSchemeMetadataEvEENS2_INS_19ContentTypeMetadataEvEENS2_INS_10TeMetadataEvEENS2_INS_20GrpcEncodingMetadataEvEENS2_INS_27GrpcInternalEncodingRequestEvEENS2_INS_26GrpcAcceptEncodingMetadataEvEENS2_INS_18GrpcStatusMetadataEvEENS2_INS_19GrpcTimeoutMetadataEvEENS2_INS_31GrpcPreviousRpcAttemptsMetadataEvEENS2_INS_27GrpcRetryPushbackMsMetadataEvEENS2_INS_17UserAgentMetadataEvEENS2_INS_19GrpcMessageMetadataEvEENS2_INS_12HostMetadataEvEENS2_INS_31XEndpointLoadMetricsBinMetadataEvEENS2_INS_26GrpcServerStatsBinMetadataEvEENS2_INS_20GrpcTraceBinMetadataEvEENS2_INS_19GrpcTagsBinMetadataEvEENS2_INS_25GrpcLbClientStatsMetadataEvEENS2_INS_17LbCostBinMetadataEvEENS2_INS_15LbTokenMetadataEvEEEE3setILm15EJNS_5SliceEEEEPNS_12table_detail15TypeIndexStructIXT_EJS4_S6_S8_SA_SC_SE_SG_SI_SK_SM_SO_SQ_SS_SU_SW_SY_S10_S12_S14_S16_S18_S1A_S1C_S1E_EE4TypeEDpOT0_, symObjAddr: 0x7BB4, symBinAddr: 0xF6EC, symSize: 0x9C }
  - { offsetInCU: 0x6885A, offset: 0x100BF1, size: 0x8, addend: 0x0, symName: __ZN9grpc_core15metadata_detail10NameLookupIJNS_31XEndpointLoadMetricsBinMetadataENS_26GrpcServerStatsBinMetadataENS_20GrpcTraceBinMetadataENS_19GrpcTagsBinMetadataENS_25GrpcLbClientStatsMetadataENS_17LbCostBinMetadataENS_15LbTokenMetadataEEE6LookupINS0_12AppendHelperI19grpc_metadata_batchEEEEDTclptfp0_5FoundcvS2__EEEN4absl12lts_2021110211string_viewEPT_, symObjAddr: 0x7CDC, symBinAddr: 0xF814, symSize: 0x80 }
  - { offsetInCU: 0x6888E, offset: 0x100C25, size: 0x8, addend: 0x0, symName: __ZN9grpc_core15metadata_detail10NameLookupIJNS_31XEndpointLoadMetricsBinMetadataENS_26GrpcServerStatsBinMetadataENS_20GrpcTraceBinMetadataENS_19GrpcTagsBinMetadataENS_25GrpcLbClientStatsMetadataENS_17LbCostBinMetadataENS_15LbTokenMetadataEEE6LookupINS0_12AppendHelperI19grpc_metadata_batchEEEEDTclptfp0_5FoundcvS2__EEEN4absl12lts_2021110211string_viewEPT_, symObjAddr: 0x7CDC, symBinAddr: 0xF814, symSize: 0x80 }
  - { offsetInCU: 0x688DB, offset: 0x100C72, size: 0x8, addend: 0x0, symName: __ZN9grpc_core15metadata_detail12AppendHelperI19grpc_metadata_batchE5FoundINS_12HostMetadataEEEvT_, symObjAddr: 0x7C50, symBinAddr: 0xF788, symSize: 0x8C }
  - { offsetInCU: 0x68AEC, offset: 0x100E83, size: 0x8, addend: 0x0, symName: __ZN9grpc_core5TableIJNS_15metadata_detail5ValueINS_16HttpPathMetadataEvEENS2_INS_21HttpAuthorityMetadataEvEENS2_INS_18HttpMethodMetadataEvEENS2_INS_18HttpStatusMetadataEvEENS2_INS_18HttpSchemeMetadataEvEENS2_INS_19ContentTypeMetadataEvEENS2_INS_10TeMetadataEvEENS2_INS_20GrpcEncodingMetadataEvEENS2_INS_27GrpcInternalEncodingRequestEvEENS2_INS_26GrpcAcceptEncodingMetadataEvEENS2_INS_18GrpcStatusMetadataEvEENS2_INS_19GrpcTimeoutMetadataEvEENS2_INS_31GrpcPreviousRpcAttemptsMetadataEvEENS2_INS_27GrpcRetryPushbackMsMetadataEvEENS2_INS_17UserAgentMetadataEvEENS2_INS_19GrpcMessageMetadataEvEENS2_INS_12HostMetadataEvEENS2_INS_31XEndpointLoadMetricsBinMetadataEvEENS2_INS_26GrpcServerStatsBinMetadataEvEENS2_INS_20GrpcTraceBinMetadataEvEENS2_INS_19GrpcTagsBinMetadataEvEENS2_INS_25GrpcLbClientStatsMetadataEvEENS2_INS_17LbCostBinMetadataEvEENS2_INS_15LbTokenMetadataEvEEEE3setILm16EJNS_5SliceEEEEPNS_12table_detail15TypeIndexStructIXT_EJS4_S6_S8_SA_SC_SE_SG_SI_SK_SM_SO_SQ_SS_SU_SW_SY_S10_S12_S14_S16_S18_S1A_S1C_S1E_EE4TypeEDpOT0_, symObjAddr: 0x7D5C, symBinAddr: 0xF894, symSize: 0x9C }
  - { offsetInCU: 0x6909F, offset: 0x101436, size: 0x8, addend: 0x0, symName: __ZN9grpc_core15metadata_detail10NameLookupIJNS_26GrpcServerStatsBinMetadataENS_20GrpcTraceBinMetadataENS_19GrpcTagsBinMetadataENS_25GrpcLbClientStatsMetadataENS_17LbCostBinMetadataENS_15LbTokenMetadataEEE6LookupINS0_12AppendHelperI19grpc_metadata_batchEEEEDTclptfp0_5FoundcvS2__EEEN4absl12lts_2021110211string_viewEPT_, symObjAddr: 0x7E84, symBinAddr: 0xF9BC, symSize: 0x64 }
  - { offsetInCU: 0x690D3, offset: 0x10146A, size: 0x8, addend: 0x0, symName: __ZN9grpc_core15metadata_detail10NameLookupIJNS_26GrpcServerStatsBinMetadataENS_20GrpcTraceBinMetadataENS_19GrpcTagsBinMetadataENS_25GrpcLbClientStatsMetadataENS_17LbCostBinMetadataENS_15LbTokenMetadataEEE6LookupINS0_12AppendHelperI19grpc_metadata_batchEEEEDTclptfp0_5FoundcvS2__EEEN4absl12lts_2021110211string_viewEPT_, symObjAddr: 0x7E84, symBinAddr: 0xF9BC, symSize: 0x64 }
  - { offsetInCU: 0x69120, offset: 0x1014B7, size: 0x8, addend: 0x0, symName: __ZN9grpc_core15metadata_detail12AppendHelperI19grpc_metadata_batchE5FoundINS_31XEndpointLoadMetricsBinMetadataEEEvT_, symObjAddr: 0x7DF8, symBinAddr: 0xF930, symSize: 0x8C }
  - { offsetInCU: 0x69331, offset: 0x1016C8, size: 0x8, addend: 0x0, symName: __ZN9grpc_core5TableIJNS_15metadata_detail5ValueINS_16HttpPathMetadataEvEENS2_INS_21HttpAuthorityMetadataEvEENS2_INS_18HttpMethodMetadataEvEENS2_INS_18HttpStatusMetadataEvEENS2_INS_18HttpSchemeMetadataEvEENS2_INS_19ContentTypeMetadataEvEENS2_INS_10TeMetadataEvEENS2_INS_20GrpcEncodingMetadataEvEENS2_INS_27GrpcInternalEncodingRequestEvEENS2_INS_26GrpcAcceptEncodingMetadataEvEENS2_INS_18GrpcStatusMetadataEvEENS2_INS_19GrpcTimeoutMetadataEvEENS2_INS_31GrpcPreviousRpcAttemptsMetadataEvEENS2_INS_27GrpcRetryPushbackMsMetadataEvEENS2_INS_17UserAgentMetadataEvEENS2_INS_19GrpcMessageMetadataEvEENS2_INS_12HostMetadataEvEENS2_INS_31XEndpointLoadMetricsBinMetadataEvEENS2_INS_26GrpcServerStatsBinMetadataEvEENS2_INS_20GrpcTraceBinMetadataEvEENS2_INS_19GrpcTagsBinMetadataEvEENS2_INS_25GrpcLbClientStatsMetadataEvEENS2_INS_17LbCostBinMetadataEvEENS2_INS_15LbTokenMetadataEvEEEE3setILm17EJNS_5SliceEEEEPNS_12table_detail15TypeIndexStructIXT_EJS4_S6_S8_SA_SC_SE_SG_SI_SK_SM_SO_SQ_SS_SU_SW_SY_S10_S12_S14_S16_S18_S1A_S1C_S1E_EE4TypeEDpOT0_, symObjAddr: 0x7EE8, symBinAddr: 0xFA20, symSize: 0x9C }
  - { offsetInCU: 0x69902, offset: 0x101C99, size: 0x8, addend: 0x0, symName: __ZN9grpc_core15metadata_detail10NameLookupIJNS_20GrpcTraceBinMetadataENS_19GrpcTagsBinMetadataENS_25GrpcLbClientStatsMetadataENS_17LbCostBinMetadataENS_15LbTokenMetadataEEE6LookupINS0_12AppendHelperI19grpc_metadata_batchEEEEDTclptfp0_5FoundcvS2__EEEN4absl12lts_2021110211string_viewEPT_, symObjAddr: 0x8010, symBinAddr: 0xFB48, symSize: 0x4C }
  - { offsetInCU: 0x69936, offset: 0x101CCD, size: 0x8, addend: 0x0, symName: __ZN9grpc_core15metadata_detail10NameLookupIJNS_20GrpcTraceBinMetadataENS_19GrpcTagsBinMetadataENS_25GrpcLbClientStatsMetadataENS_17LbCostBinMetadataENS_15LbTokenMetadataEEE6LookupINS0_12AppendHelperI19grpc_metadata_batchEEEEDTclptfp0_5FoundcvS2__EEEN4absl12lts_2021110211string_viewEPT_, symObjAddr: 0x8010, symBinAddr: 0xFB48, symSize: 0x4C }
  - { offsetInCU: 0x69983, offset: 0x101D1A, size: 0x8, addend: 0x0, symName: __ZN9grpc_core15metadata_detail12AppendHelperI19grpc_metadata_batchE5FoundINS_26GrpcServerStatsBinMetadataEEEvT_, symObjAddr: 0x7F84, symBinAddr: 0xFABC, symSize: 0x8C }
  - { offsetInCU: 0x69B94, offset: 0x101F2B, size: 0x8, addend: 0x0, symName: __ZN9grpc_core5TableIJNS_15metadata_detail5ValueINS_16HttpPathMetadataEvEENS2_INS_21HttpAuthorityMetadataEvEENS2_INS_18HttpMethodMetadataEvEENS2_INS_18HttpStatusMetadataEvEENS2_INS_18HttpSchemeMetadataEvEENS2_INS_19ContentTypeMetadataEvEENS2_INS_10TeMetadataEvEENS2_INS_20GrpcEncodingMetadataEvEENS2_INS_27GrpcInternalEncodingRequestEvEENS2_INS_26GrpcAcceptEncodingMetadataEvEENS2_INS_18GrpcStatusMetadataEvEENS2_INS_19GrpcTimeoutMetadataEvEENS2_INS_31GrpcPreviousRpcAttemptsMetadataEvEENS2_INS_27GrpcRetryPushbackMsMetadataEvEENS2_INS_17UserAgentMetadataEvEENS2_INS_19GrpcMessageMetadataEvEENS2_INS_12HostMetadataEvEENS2_INS_31XEndpointLoadMetricsBinMetadataEvEENS2_INS_26GrpcServerStatsBinMetadataEvEENS2_INS_20GrpcTraceBinMetadataEvEENS2_INS_19GrpcTagsBinMetadataEvEENS2_INS_25GrpcLbClientStatsMetadataEvEENS2_INS_17LbCostBinMetadataEvEENS2_INS_15LbTokenMetadataEvEEEE3setILm18EJNS_5SliceEEEEPNS_12table_detail15TypeIndexStructIXT_EJS4_S6_S8_SA_SC_SE_SG_SI_SK_SM_SO_SQ_SS_SU_SW_SY_S10_S12_S14_S16_S18_S1A_S1C_S1E_EE4TypeEDpOT0_, symObjAddr: 0x805C, symBinAddr: 0xFB94, symSize: 0x9C }
  - { offsetInCU: 0x6A183, offset: 0x10251A, size: 0x8, addend: 0x0, symName: __ZN9grpc_core15metadata_detail10NameLookupIJNS_19GrpcTagsBinMetadataENS_25GrpcLbClientStatsMetadataENS_17LbCostBinMetadataENS_15LbTokenMetadataEEE6LookupINS0_12AppendHelperI19grpc_metadata_batchEEEEDTclptfp0_5FoundcvS2__EEEN4absl12lts_2021110211string_viewEPT_, symObjAddr: 0x8184, symBinAddr: 0xFCBC, symSize: 0x4C }
  - { offsetInCU: 0x6A1B7, offset: 0x10254E, size: 0x8, addend: 0x0, symName: __ZN9grpc_core15metadata_detail10NameLookupIJNS_19GrpcTagsBinMetadataENS_25GrpcLbClientStatsMetadataENS_17LbCostBinMetadataENS_15LbTokenMetadataEEE6LookupINS0_12AppendHelperI19grpc_metadata_batchEEEEDTclptfp0_5FoundcvS2__EEEN4absl12lts_2021110211string_viewEPT_, symObjAddr: 0x8184, symBinAddr: 0xFCBC, symSize: 0x4C }
  - { offsetInCU: 0x6A204, offset: 0x10259B, size: 0x8, addend: 0x0, symName: __ZN9grpc_core15metadata_detail12AppendHelperI19grpc_metadata_batchE5FoundINS_20GrpcTraceBinMetadataEEEvT_, symObjAddr: 0x80F8, symBinAddr: 0xFC30, symSize: 0x8C }
  - { offsetInCU: 0x6A415, offset: 0x1027AC, size: 0x8, addend: 0x0, symName: __ZN9grpc_core5TableIJNS_15metadata_detail5ValueINS_16HttpPathMetadataEvEENS2_INS_21HttpAuthorityMetadataEvEENS2_INS_18HttpMethodMetadataEvEENS2_INS_18HttpStatusMetadataEvEENS2_INS_18HttpSchemeMetadataEvEENS2_INS_19ContentTypeMetadataEvEENS2_INS_10TeMetadataEvEENS2_INS_20GrpcEncodingMetadataEvEENS2_INS_27GrpcInternalEncodingRequestEvEENS2_INS_26GrpcAcceptEncodingMetadataEvEENS2_INS_18GrpcStatusMetadataEvEENS2_INS_19GrpcTimeoutMetadataEvEENS2_INS_31GrpcPreviousRpcAttemptsMetadataEvEENS2_INS_27GrpcRetryPushbackMsMetadataEvEENS2_INS_17UserAgentMetadataEvEENS2_INS_19GrpcMessageMetadataEvEENS2_INS_12HostMetadataEvEENS2_INS_31XEndpointLoadMetricsBinMetadataEvEENS2_INS_26GrpcServerStatsBinMetadataEvEENS2_INS_20GrpcTraceBinMetadataEvEENS2_INS_19GrpcTagsBinMetadataEvEENS2_INS_25GrpcLbClientStatsMetadataEvEENS2_INS_17LbCostBinMetadataEvEENS2_INS_15LbTokenMetadataEvEEEE3setILm19EJNS_5SliceEEEEPNS_12table_detail15TypeIndexStructIXT_EJS4_S6_S8_SA_SC_SE_SG_SI_SK_SM_SO_SQ_SS_SU_SW_SY_S10_S12_S14_S16_S18_S1A_S1C_S1E_EE4TypeEDpOT0_, symObjAddr: 0x81D0, symBinAddr: 0xFD08, symSize: 0x9C }
  - { offsetInCU: 0x6AA22, offset: 0x102DB9, size: 0x8, addend: 0x0, symName: __ZN9grpc_core15metadata_detail10NameLookupIJNS_25GrpcLbClientStatsMetadataENS_17LbCostBinMetadataENS_15LbTokenMetadataEEE6LookupINS0_12AppendHelperI19grpc_metadata_batchEEEEDTclptfp0_5FoundcvS2__EEEN4absl12lts_2021110211string_viewEPT_, symObjAddr: 0x82F8, symBinAddr: 0xFE30, symSize: 0x64 }
  - { offsetInCU: 0x6AA56, offset: 0x102DED, size: 0x8, addend: 0x0, symName: __ZN9grpc_core15metadata_detail10NameLookupIJNS_25GrpcLbClientStatsMetadataENS_17LbCostBinMetadataENS_15LbTokenMetadataEEE6LookupINS0_12AppendHelperI19grpc_metadata_batchEEEEDTclptfp0_5FoundcvS2__EEEN4absl12lts_2021110211string_viewEPT_, symObjAddr: 0x82F8, symBinAddr: 0xFE30, symSize: 0x64 }
  - { offsetInCU: 0x6AAA3, offset: 0x102E3A, size: 0x8, addend: 0x0, symName: __ZN9grpc_core15metadata_detail12AppendHelperI19grpc_metadata_batchE5FoundINS_19GrpcTagsBinMetadataEEEvT_, symObjAddr: 0x826C, symBinAddr: 0xFDA4, symSize: 0x8C }
  - { offsetInCU: 0x6ACB4, offset: 0x10304B, size: 0x8, addend: 0x0, symName: __ZN9grpc_core5TableIJNS_15metadata_detail5ValueINS_16HttpPathMetadataEvEENS2_INS_21HttpAuthorityMetadataEvEENS2_INS_18HttpMethodMetadataEvEENS2_INS_18HttpStatusMetadataEvEENS2_INS_18HttpSchemeMetadataEvEENS2_INS_19ContentTypeMetadataEvEENS2_INS_10TeMetadataEvEENS2_INS_20GrpcEncodingMetadataEvEENS2_INS_27GrpcInternalEncodingRequestEvEENS2_INS_26GrpcAcceptEncodingMetadataEvEENS2_INS_18GrpcStatusMetadataEvEENS2_INS_19GrpcTimeoutMetadataEvEENS2_INS_31GrpcPreviousRpcAttemptsMetadataEvEENS2_INS_27GrpcRetryPushbackMsMetadataEvEENS2_INS_17UserAgentMetadataEvEENS2_INS_19GrpcMessageMetadataEvEENS2_INS_12HostMetadataEvEENS2_INS_31XEndpointLoadMetricsBinMetadataEvEENS2_INS_26GrpcServerStatsBinMetadataEvEENS2_INS_20GrpcTraceBinMetadataEvEENS2_INS_19GrpcTagsBinMetadataEvEENS2_INS_25GrpcLbClientStatsMetadataEvEENS2_INS_17LbCostBinMetadataEvEENS2_INS_15LbTokenMetadataEvEEEE3setILm20EJNS_5SliceEEEEPNS_12table_detail15TypeIndexStructIXT_EJS4_S6_S8_SA_SC_SE_SG_SI_SK_SM_SO_SQ_SS_SU_SW_SY_S10_S12_S14_S16_S18_S1A_S1C_S1E_EE4TypeEDpOT0_, symObjAddr: 0x835C, symBinAddr: 0xFE94, symSize: 0x9C }
  - { offsetInCU: 0x6B2DF, offset: 0x103676, size: 0x8, addend: 0x0, symName: __ZN9grpc_core15metadata_detail10NameLookupIJNS_17LbCostBinMetadataENS_15LbTokenMetadataEEE6LookupINS0_12AppendHelperI19grpc_metadata_batchEEEEDTclptfp0_5FoundcvS2__EEEN4absl12lts_2021110211string_viewEPT_, symObjAddr: 0x8434, symBinAddr: 0xFF6C, symSize: 0x4C }
  - { offsetInCU: 0x6B313, offset: 0x1036AA, size: 0x8, addend: 0x0, symName: __ZN9grpc_core15metadata_detail10NameLookupIJNS_17LbCostBinMetadataENS_15LbTokenMetadataEEE6LookupINS0_12AppendHelperI19grpc_metadata_batchEEEEDTclptfp0_5FoundcvS2__EEEN4absl12lts_2021110211string_viewEPT_, symObjAddr: 0x8434, symBinAddr: 0xFF6C, symSize: 0x4C }
  - { offsetInCU: 0x6B360, offset: 0x1036F7, size: 0x8, addend: 0x0, symName: __ZN9grpc_core15metadata_detail12AppendHelperI19grpc_metadata_batchE5FoundINS_25GrpcLbClientStatsMetadataEEEvT_, symObjAddr: 0x83F8, symBinAddr: 0xFF30, symSize: 0x3C }
  - { offsetInCU: 0x6B5FB, offset: 0x103992, size: 0x8, addend: 0x0, symName: __ZN9grpc_core15metadata_detail10ParseValueIFPNS_17GrpcLbClientStatsENS_5SliceEN4absl12lts_2021110211FunctionRefIFvNS6_11string_viewERKS4_EEEEFS3_S3_EE5ParseIXadL_ZNS_25GrpcLbClientStatsMetadata12ParseMementoES4_SC_EEXadL_ZNSH_14MementoToValueES3_EEEEDTclT0_clT_clL_ZNSt3__14moveB7v160006IRS4_EEOu20__remove_reference_tIT_EOSL_Edefp_Efp0_EEEPS4_SC_, symObjAddr: 0x8480, symBinAddr: 0xFFB8, symSize: 0x60 }
  - { offsetInCU: 0x6B6DE, offset: 0x103A75, size: 0x8, addend: 0x0, symName: __ZN9grpc_core15metadata_detail10NameLookupIJNS_15LbTokenMetadataEEE6LookupINS0_12AppendHelperI19grpc_metadata_batchEEEEDTclptfp0_5FoundcvS2__EEEN4absl12lts_2021110211string_viewEPT_, symObjAddr: 0x856C, symBinAddr: 0x100A4, symSize: 0x40 }
  - { offsetInCU: 0x6B782, offset: 0x103B19, size: 0x8, addend: 0x0, symName: __ZN9grpc_core15metadata_detail12AppendHelperI19grpc_metadata_batchE5FoundINS_17LbCostBinMetadataEEEvT_, symObjAddr: 0x84E0, symBinAddr: 0x10018, symSize: 0x8C }
  - { offsetInCU: 0x6C2A5, offset: 0x10463C, size: 0x8, addend: 0x0, symName: __ZN9grpc_core15metadata_detail10ParseValueIFNS_17LbCostBinMetadata9ValueTypeENS_5SliceEN4absl12lts_2021110211FunctionRefIFvNS6_11string_viewERKS4_EEEEFS3_S3_EE5ParseIXadL_ZNS2_12ParseMementoES4_SC_EEXadL_ZNS2_14MementoToValueES3_EEEEDTclT0_clT_clL_ZNSt3__14moveB7v160006IRS4_EEOu20__remove_reference_tIT_EOSK_Edefp_Efp0_EEEPS4_SC_, symObjAddr: 0x85AC, symBinAddr: 0x100E4, symSize: 0xA8 }
  - { offsetInCU: 0x6C4A4, offset: 0x10483B, size: 0x8, addend: 0x0, symName: __ZN9grpc_core17LbCostBinMetadata12ParseMementoENS_5SliceEN4absl12lts_2021110211FunctionRefIFvNS3_11string_viewERKS1_EEE, symObjAddr: 0x8808, symBinAddr: 0x10340, symSize: 0xD0 }
  - { offsetInCU: 0x6C4BB, offset: 0x104852, size: 0x8, addend: 0x0, symName: __ZN4absl12lts_2021110223inlined_vector_internal7StorageIN9grpc_core17LbCostBinMetadata9ValueTypeELm1ENSt3__19allocatorIS5_EEE11EmplaceBackIJS5_EEERS5_DpOT_, symObjAddr: 0x8654, symBinAddr: 0x1018C, symSize: 0x60 }
  - { offsetInCU: 0x6C517, offset: 0x1048AE, size: 0x8, addend: 0x0, symName: __ZN4absl12lts_2021110223inlined_vector_internal7StorageIN9grpc_core17LbCostBinMetadata9ValueTypeELm1ENSt3__19allocatorIS5_EEE11EmplaceBackIJS5_EEERS5_DpOT_, symObjAddr: 0x8654, symBinAddr: 0x1018C, symSize: 0x60 }
  - { offsetInCU: 0x6C534, offset: 0x1048CB, size: 0x8, addend: 0x0, symName: __ZN4absl12lts_2021110223inlined_vector_internal7StorageIN9grpc_core17LbCostBinMetadata9ValueTypeELm1ENSt3__19allocatorIS5_EEE11EmplaceBackIJS5_EEERS5_DpOT_, symObjAddr: 0x8654, symBinAddr: 0x1018C, symSize: 0x60 }
  - { offsetInCU: 0x6C709, offset: 0x104AA0, size: 0x8, addend: 0x0, symName: __ZN9grpc_core15metadata_detail12AppendHelperI19grpc_metadata_batchE8NotFoundEN4absl12lts_2021110211string_viewE, symObjAddr: 0x8A00, symBinAddr: 0x10538, symSize: 0x90 }
  - { offsetInCU: 0x6C838, offset: 0x104BCF, size: 0x8, addend: 0x0, symName: __ZN9grpc_core15metadata_detail12AppendHelperI19grpc_metadata_batchE5FoundINS_15LbTokenMetadataEEEvT_, symObjAddr: 0x88D8, symBinAddr: 0x10410, symSize: 0x8C }
  - { offsetInCU: 0x6C9BA, offset: 0x104D51, size: 0x8, addend: 0x0, symName: __ZN9grpc_core17LbCostBinMetadata12ParseMementoENS_5SliceEN4absl12lts_2021110211FunctionRefIFvNS3_11string_viewERKS1_EEE, symObjAddr: 0x8808, symBinAddr: 0x10340, symSize: 0xD0 }
  - { offsetInCU: 0x6CC79, offset: 0x105010, size: 0x8, addend: 0x0, symName: __ZN4absl12lts_2021110223inlined_vector_internal7StorageIN9grpc_core17LbCostBinMetadata9ValueTypeELm1ENSt3__19allocatorIS5_EEE15EmplaceBackSlowIJS5_EEERS5_DpOT_, symObjAddr: 0x86B4, symBinAddr: 0x101EC, symSize: 0x120 }
  - { offsetInCU: 0x6D54F, offset: 0x1058E6, size: 0x8, addend: 0x0, symName: __ZN4absl12lts_2021110223inlined_vector_internal13MallocAdapterINSt3__19allocatorIN9grpc_core17LbCostBinMetadata9ValueTypeEEELb0EE8AllocateERS8_m, symObjAddr: 0x87D4, symBinAddr: 0x1030C, symSize: 0x34 }
  - { offsetInCU: 0x6D60D, offset: 0x1059A4, size: 0x8, addend: 0x0, symName: __ZN9grpc_core17LbCostBinMetadata12ParseMementoENS_5SliceEN4absl12lts_2021110211FunctionRefIFvNS3_11string_viewERKS1_EEE, symObjAddr: 0x8808, symBinAddr: 0x10340, symSize: 0xD0 }
  - { offsetInCU: 0x6D774, offset: 0x105B0B, size: 0x8, addend: 0x0, symName: __ZN9grpc_core5TableIJNS_15metadata_detail5ValueINS_16HttpPathMetadataEvEENS2_INS_21HttpAuthorityMetadataEvEENS2_INS_18HttpMethodMetadataEvEENS2_INS_18HttpStatusMetadataEvEENS2_INS_18HttpSchemeMetadataEvEENS2_INS_19ContentTypeMetadataEvEENS2_INS_10TeMetadataEvEENS2_INS_20GrpcEncodingMetadataEvEENS2_INS_27GrpcInternalEncodingRequestEvEENS2_INS_26GrpcAcceptEncodingMetadataEvEENS2_INS_18GrpcStatusMetadataEvEENS2_INS_19GrpcTimeoutMetadataEvEENS2_INS_31GrpcPreviousRpcAttemptsMetadataEvEENS2_INS_27GrpcRetryPushbackMsMetadataEvEENS2_INS_17UserAgentMetadataEvEENS2_INS_19GrpcMessageMetadataEvEENS2_INS_12HostMetadataEvEENS2_INS_31XEndpointLoadMetricsBinMetadataEvEENS2_INS_26GrpcServerStatsBinMetadataEvEENS2_INS_20GrpcTraceBinMetadataEvEENS2_INS_19GrpcTagsBinMetadataEvEENS2_INS_25GrpcLbClientStatsMetadataEvEENS2_INS_17LbCostBinMetadataEvEENS2_INS_15LbTokenMetadataEvEEEE3setILm23EJNS_5SliceEEEEPNS_12table_detail15TypeIndexStructIXT_EJS4_S6_S8_SA_SC_SE_SG_SI_SK_SM_SO_SQ_SS_SU_SW_SY_S10_S12_S14_S16_S18_S1A_S1C_S1E_EE4TypeEDpOT0_, symObjAddr: 0x8964, symBinAddr: 0x1049C, symSize: 0x9C }
  - { offsetInCU: 0x6DB98, offset: 0x105F2F, size: 0x8, addend: 0x0, symName: __ZN9grpc_core11MetadataMapI19grpc_metadata_batchJNS_16HttpPathMetadataENS_21HttpAuthorityMetadataENS_18HttpMethodMetadataENS_18HttpStatusMetadataENS_18HttpSchemeMetadataENS_19ContentTypeMetadataENS_10TeMetadataENS_20GrpcEncodingMetadataENS_27GrpcInternalEncodingRequestENS_26GrpcAcceptEncodingMetadataENS_18GrpcStatusMetadataENS_19GrpcTimeoutMetadataENS_31GrpcPreviousRpcAttemptsMetadataENS_27GrpcRetryPushbackMsMetadataENS_17UserAgentMetadataENS_19GrpcMessageMetadataENS_12HostMetadataENS_31XEndpointLoadMetricsBinMetadataENS_26GrpcServerStatsBinMetadataENS_20GrpcTraceBinMetadataENS_19GrpcTagsBinMetadataENS_25GrpcLbClientStatsMetadataENS_17LbCostBinMetadataENS_15LbTokenMetadataEEE13AppendUnknownEN4absl12lts_2021110211string_viewENS_5SliceE, symObjAddr: 0x8A90, symBinAddr: 0x105C8, symSize: 0xD4 }
  - { offsetInCU: 0x6E155, offset: 0x1064EC, size: 0x8, addend: 0x0, symName: __ZN9grpc_core13ChunkedVectorINSt3__14pairINS_5SliceES3_EELm10EE10AppendSlotEv, symObjAddr: 0x8B64, symBinAddr: 0x1069C, symSize: 0xF4 }
  - { offsetInCU: 0x6E346, offset: 0x1066DD, size: 0x8, addend: 0x0, symName: '__ZN4absl12lts_2021110219functional_internal12InvokeObjectIZL14AssignMetadataP19grpc_metadata_batchRKNSt3__16vectorINS5_4pairINS5_12basic_stringIcNS5_11char_traitsIcEENS5_9allocatorIcEEEESD_EENSB_ISE_EEEEE3$_2vJNS0_11string_viewERKN9grpc_core5SliceEEEET0_NS1_7VoidPtrEDpNS1_8ForwardTIT1_E4typeE', symObjAddr: 0x8C58, symBinAddr: 0x10790, symSize: 0x108 }
  - { offsetInCU: 0x6E3E4, offset: 0x10677B, size: 0x8, addend: 0x0, symName: __ZN9grpc_core13ChunkedVectorINSt3__14pairINS_5SliceES3_EELm10EE10AppendSlotEv.cold.1, symObjAddr: 0xB444, symBinAddr: 0x48980, symSize: 0x34 }
  - { offsetInCU: 0x6E6AE, offset: 0x106A45, size: 0x8, addend: 0x0, symName: '__ZNSt3__110__function6__funcIZL24perform_stream_op_lockedPvP10grpc_errorE3$_4NS_9allocatorIS5_EEFvN4absl12lts_202111028StatusOrINS_12basic_stringIcNS_11char_traitsIcEENS6_IcEEEEEEEED1Ev', symObjAddr: 0x8E18, symBinAddr: 0x10898, symSize: 0x4 }
  - { offsetInCU: 0x6E6DA, offset: 0x106A71, size: 0x8, addend: 0x0, symName: '__ZNSt3__110__function6__funcIZL24perform_stream_op_lockedPvP10grpc_errorE3$_4NS_9allocatorIS5_EEFvN4absl12lts_202111028StatusOrINS_12basic_stringIcNS_11char_traitsIcEENS6_IcEEEEEEEED0Ev', symObjAddr: 0x8E1C, symBinAddr: 0x1089C, symSize: 0x4 }
  - { offsetInCU: 0x6E8C7, offset: 0x106C5E, size: 0x8, addend: 0x0, symName: '__ZNKSt3__110__function6__funcIZL24perform_stream_op_lockedPvP10grpc_errorE3$_4NS_9allocatorIS5_EEFvN4absl12lts_202111028StatusOrINS_12basic_stringIcNS_11char_traitsIcEENS6_IcEEEEEEEE7__cloneEv', symObjAddr: 0x8E20, symBinAddr: 0x108A0, symSize: 0x40 }
  - { offsetInCU: 0x6EBFF, offset: 0x106F96, size: 0x8, addend: 0x0, symName: '__ZNKSt3__110__function6__funcIZL24perform_stream_op_lockedPvP10grpc_errorE3$_4NS_9allocatorIS5_EEFvN4absl12lts_202111028StatusOrINS_12basic_stringIcNS_11char_traitsIcEENS6_IcEEEEEEEE7__cloneEPNS0_6__baseISH_EE', symObjAddr: 0x8E60, symBinAddr: 0x108E0, symSize: 0x20 }
  - { offsetInCU: 0x6EC38, offset: 0x106FCF, size: 0x8, addend: 0x0, symName: '__ZNKSt3__110__function6__funcIZL24perform_stream_op_lockedPvP10grpc_errorE3$_4NS_9allocatorIS5_EEFvN4absl12lts_202111028StatusOrINS_12basic_stringIcNS_11char_traitsIcEENS6_IcEEEEEEEE7__cloneEPNS0_6__baseISH_EE', symObjAddr: 0x8E60, symBinAddr: 0x108E0, symSize: 0x20 }
  - { offsetInCU: 0x6EC67, offset: 0x106FFE, size: 0x8, addend: 0x0, symName: '__ZNKSt3__110__function6__funcIZL24perform_stream_op_lockedPvP10grpc_errorE3$_4NS_9allocatorIS5_EEFvN4absl12lts_202111028StatusOrINS_12basic_stringIcNS_11char_traitsIcEENS6_IcEEEEEEEE7__cloneEPNS0_6__baseISH_EE', symObjAddr: 0x8E60, symBinAddr: 0x108E0, symSize: 0x20 }
  - { offsetInCU: 0x6ED7E, offset: 0x107115, size: 0x8, addend: 0x0, symName: '__ZNSt3__110__function6__funcIZL24perform_stream_op_lockedPvP10grpc_errorE3$_4NS_9allocatorIS5_EEFvN4absl12lts_202111028StatusOrINS_12basic_stringIcNS_11char_traitsIcEENS6_IcEEEEEEEE7destroyEv', symObjAddr: 0x8E80, symBinAddr: 0x10900, symSize: 0x4 }
  - { offsetInCU: 0x6EDD1, offset: 0x107168, size: 0x8, addend: 0x0, symName: '__ZNSt3__110__function6__funcIZL24perform_stream_op_lockedPvP10grpc_errorE3$_4NS_9allocatorIS5_EEFvN4absl12lts_202111028StatusOrINS_12basic_stringIcNS_11char_traitsIcEENS6_IcEEEEEEEE18destroy_deallocateEv', symObjAddr: 0x8E84, symBinAddr: 0x10904, symSize: 0x4 }
  - { offsetInCU: 0x6EE08, offset: 0x10719F, size: 0x8, addend: 0x0, symName: '__ZNSt3__110__function6__funcIZL24perform_stream_op_lockedPvP10grpc_errorE3$_4NS_9allocatorIS5_EEFvN4absl12lts_202111028StatusOrINS_12basic_stringIcNS_11char_traitsIcEENS6_IcEEEEEEEE18destroy_deallocateEv', symObjAddr: 0x8E84, symBinAddr: 0x10904, symSize: 0x4 }
  - { offsetInCU: 0x6EE2C, offset: 0x1071C3, size: 0x8, addend: 0x0, symName: '__ZNSt3__110__function6__funcIZL24perform_stream_op_lockedPvP10grpc_errorE3$_4NS_9allocatorIS5_EEFvN4absl12lts_202111028StatusOrINS_12basic_stringIcNS_11char_traitsIcEENS6_IcEEEEEEEE18destroy_deallocateEv', symObjAddr: 0x8E84, symBinAddr: 0x10904, symSize: 0x4 }
  - { offsetInCU: 0x6EE58, offset: 0x1071EF, size: 0x8, addend: 0x0, symName: '__ZNSt3__110__function6__funcIZL24perform_stream_op_lockedPvP10grpc_errorE3$_4NS_9allocatorIS5_EEFvN4absl12lts_202111028StatusOrINS_12basic_stringIcNS_11char_traitsIcEENS6_IcEEEEEEEE18destroy_deallocateEv', symObjAddr: 0x8E84, symBinAddr: 0x10904, symSize: 0x4 }
  - { offsetInCU: 0x6EE7F, offset: 0x107216, size: 0x8, addend: 0x0, symName: '__ZNSt3__110__function6__funcIZL24perform_stream_op_lockedPvP10grpc_errorE3$_4NS_9allocatorIS5_EEFvN4absl12lts_202111028StatusOrINS_12basic_stringIcNS_11char_traitsIcEENS6_IcEEEEEEEE18destroy_deallocateEv', symObjAddr: 0x8E84, symBinAddr: 0x10904, symSize: 0x4 }
  - { offsetInCU: 0x6F036, offset: 0x1073CD, size: 0x8, addend: 0x0, symName: '__ZNSt3__110__function6__funcIZL24perform_stream_op_lockedPvP10grpc_errorE3$_4NS_9allocatorIS5_EEFvN4absl12lts_202111028StatusOrINS_12basic_stringIcNS_11char_traitsIcEENS6_IcEEEEEEEEclEOSG_', symObjAddr: 0x8E88, symBinAddr: 0x10908, symSize: 0xF8 }
  - { offsetInCU: 0x6F511, offset: 0x1078A8, size: 0x8, addend: 0x0, symName: __ZN4absl12lts_2021110217internal_statusor12StatusOrDataINSt3__112basic_stringIcNS3_11char_traitsIcEENS3_9allocatorIcEEEEEaSEOSA_, symObjAddr: 0x9260, symBinAddr: 0x10CE0, symSize: 0x48 }
  - { offsetInCU: 0x6F5AD, offset: 0x107944, size: 0x8, addend: 0x0, symName: '__ZNKSt3__110__function6__funcIZL24perform_stream_op_lockedPvP10grpc_errorE3$_4NS_9allocatorIS5_EEFvN4absl12lts_202111028StatusOrINS_12basic_stringIcNS_11char_traitsIcEENS6_IcEEEEEEEE6targetERKSt9type_info', symObjAddr: 0x8F80, symBinAddr: 0x10A00, symSize: 0x3C }
  - { offsetInCU: 0x6F5FD, offset: 0x107994, size: 0x8, addend: 0x0, symName: '__ZNKSt3__110__function6__funcIZL24perform_stream_op_lockedPvP10grpc_errorE3$_4NS_9allocatorIS5_EEFvN4absl12lts_202111028StatusOrINS_12basic_stringIcNS_11char_traitsIcEENS6_IcEEEEEEEE11target_typeEv', symObjAddr: 0x8FBC, symBinAddr: 0x10A3C, symSize: 0xC }
  - { offsetInCU: 0x6F622, offset: 0x1079B9, size: 0x8, addend: 0x0, symName: __ZL19recv_message_lockedPvP10grpc_error, symObjAddr: 0x8FC8, symBinAddr: 0x10A48, symSize: 0x298 }
  - { offsetInCU: 0x6FEDE, offset: 0x108275, size: 0x8, addend: 0x0, symName: __ZL19recv_message_lockedPvP10grpc_error.cold.1, symObjAddr: 0xB478, symBinAddr: 0x489B4, symSize: 0x34 }
  - { offsetInCU: 0x6FF0C, offset: 0x1082A3, size: 0x8, addend: 0x0, symName: __ZL19recv_message_lockedPvP10grpc_error.cold.2, symObjAddr: 0xB4AC, symBinAddr: 0x489E8, symSize: 0x34 }
  - { offsetInCU: 0x6FF3A, offset: 0x1082D1, size: 0x8, addend: 0x0, symName: __ZN4absl12lts_2021110217internal_statusor12StatusOrDataINSt3__112basic_stringIcNS3_11char_traitsIcEENS3_9allocatorIcEEEEE12AssignStatusINS0_6StatusEEEvOT_, symObjAddr: 0x9350, symBinAddr: 0x10DD0, symSize: 0xB0 }
  - { offsetInCU: 0x70249, offset: 0x1085E0, size: 0x8, addend: 0x0, symName: __ZN4absl12lts_2021110217internal_statusor12StatusOrDataINSt3__112basic_stringIcNS3_11char_traitsIcEENS3_9allocatorIcEEEEE6AssignIS9_EEvOT_, symObjAddr: 0x92A8, symBinAddr: 0x10D28, symSize: 0xA8 }
  - { offsetInCU: 0x7055F, offset: 0x1088F6, size: 0x8, addend: 0x0, symName: '__ZNSt3__110__function6__funcIZL24perform_stream_op_lockedPvP10grpc_errorE3$_5NS_9allocatorIS5_EEFvN4absl12lts_202111028StatusOrINS_6vectorINS_4pairINS_12basic_stringIcNS_11char_traitsIcEENS6_IcEEEESH_EENS6_ISI_EEEEEEiEED1Ev', symObjAddr: 0x9400, symBinAddr: 0x10E80, symSize: 0x4 }
  - { offsetInCU: 0x7058B, offset: 0x108922, size: 0x8, addend: 0x0, symName: '__ZNSt3__110__function6__funcIZL24perform_stream_op_lockedPvP10grpc_errorE3$_5NS_9allocatorIS5_EEFvN4absl12lts_202111028StatusOrINS_6vectorINS_4pairINS_12basic_stringIcNS_11char_traitsIcEENS6_IcEEEESH_EENS6_ISI_EEEEEEiEED0Ev', symObjAddr: 0x9404, symBinAddr: 0x10E84, symSize: 0x4 }
  - { offsetInCU: 0x70778, offset: 0x108B0F, size: 0x8, addend: 0x0, symName: '__ZNKSt3__110__function6__funcIZL24perform_stream_op_lockedPvP10grpc_errorE3$_5NS_9allocatorIS5_EEFvN4absl12lts_202111028StatusOrINS_6vectorINS_4pairINS_12basic_stringIcNS_11char_traitsIcEENS6_IcEEEESH_EENS6_ISI_EEEEEEiEE7__cloneEv', symObjAddr: 0x9408, symBinAddr: 0x10E88, symSize: 0x40 }
  - { offsetInCU: 0x70AB0, offset: 0x108E47, size: 0x8, addend: 0x0, symName: '__ZNKSt3__110__function6__funcIZL24perform_stream_op_lockedPvP10grpc_errorE3$_5NS_9allocatorIS5_EEFvN4absl12lts_202111028StatusOrINS_6vectorINS_4pairINS_12basic_stringIcNS_11char_traitsIcEENS6_IcEEEESH_EENS6_ISI_EEEEEEiEE7__cloneEPNS0_6__baseISM_EE', symObjAddr: 0x9448, symBinAddr: 0x10EC8, symSize: 0x20 }
  - { offsetInCU: 0x70AE9, offset: 0x108E80, size: 0x8, addend: 0x0, symName: '__ZNKSt3__110__function6__funcIZL24perform_stream_op_lockedPvP10grpc_errorE3$_5NS_9allocatorIS5_EEFvN4absl12lts_202111028StatusOrINS_6vectorINS_4pairINS_12basic_stringIcNS_11char_traitsIcEENS6_IcEEEESH_EENS6_ISI_EEEEEEiEE7__cloneEPNS0_6__baseISM_EE', symObjAddr: 0x9448, symBinAddr: 0x10EC8, symSize: 0x20 }
  - { offsetInCU: 0x70B18, offset: 0x108EAF, size: 0x8, addend: 0x0, symName: '__ZNKSt3__110__function6__funcIZL24perform_stream_op_lockedPvP10grpc_errorE3$_5NS_9allocatorIS5_EEFvN4absl12lts_202111028StatusOrINS_6vectorINS_4pairINS_12basic_stringIcNS_11char_traitsIcEENS6_IcEEEESH_EENS6_ISI_EEEEEEiEE7__cloneEPNS0_6__baseISM_EE', symObjAddr: 0x9448, symBinAddr: 0x10EC8, symSize: 0x20 }
  - { offsetInCU: 0x70C2F, offset: 0x108FC6, size: 0x8, addend: 0x0, symName: '__ZNSt3__110__function6__funcIZL24perform_stream_op_lockedPvP10grpc_errorE3$_5NS_9allocatorIS5_EEFvN4absl12lts_202111028StatusOrINS_6vectorINS_4pairINS_12basic_stringIcNS_11char_traitsIcEENS6_IcEEEESH_EENS6_ISI_EEEEEEiEE7destroyEv', symObjAddr: 0x9468, symBinAddr: 0x10EE8, symSize: 0x4 }
  - { offsetInCU: 0x70C82, offset: 0x109019, size: 0x8, addend: 0x0, symName: '__ZNSt3__110__function6__funcIZL24perform_stream_op_lockedPvP10grpc_errorE3$_5NS_9allocatorIS5_EEFvN4absl12lts_202111028StatusOrINS_6vectorINS_4pairINS_12basic_stringIcNS_11char_traitsIcEENS6_IcEEEESH_EENS6_ISI_EEEEEEiEE18destroy_deallocateEv', symObjAddr: 0x946C, symBinAddr: 0x10EEC, symSize: 0x4 }
  - { offsetInCU: 0x70CB9, offset: 0x109050, size: 0x8, addend: 0x0, symName: '__ZNSt3__110__function6__funcIZL24perform_stream_op_lockedPvP10grpc_errorE3$_5NS_9allocatorIS5_EEFvN4absl12lts_202111028StatusOrINS_6vectorINS_4pairINS_12basic_stringIcNS_11char_traitsIcEENS6_IcEEEESH_EENS6_ISI_EEEEEEiEE18destroy_deallocateEv', symObjAddr: 0x946C, symBinAddr: 0x10EEC, symSize: 0x4 }
  - { offsetInCU: 0x70CDD, offset: 0x109074, size: 0x8, addend: 0x0, symName: '__ZNSt3__110__function6__funcIZL24perform_stream_op_lockedPvP10grpc_errorE3$_5NS_9allocatorIS5_EEFvN4absl12lts_202111028StatusOrINS_6vectorINS_4pairINS_12basic_stringIcNS_11char_traitsIcEENS6_IcEEEESH_EENS6_ISI_EEEEEEiEE18destroy_deallocateEv', symObjAddr: 0x946C, symBinAddr: 0x10EEC, symSize: 0x4 }
  - { offsetInCU: 0x70D09, offset: 0x1090A0, size: 0x8, addend: 0x0, symName: '__ZNSt3__110__function6__funcIZL24perform_stream_op_lockedPvP10grpc_errorE3$_5NS_9allocatorIS5_EEFvN4absl12lts_202111028StatusOrINS_6vectorINS_4pairINS_12basic_stringIcNS_11char_traitsIcEENS6_IcEEEESH_EENS6_ISI_EEEEEEiEE18destroy_deallocateEv', symObjAddr: 0x946C, symBinAddr: 0x10EEC, symSize: 0x4 }
  - { offsetInCU: 0x70D30, offset: 0x1090C7, size: 0x8, addend: 0x0, symName: '__ZNSt3__110__function6__funcIZL24perform_stream_op_lockedPvP10grpc_errorE3$_5NS_9allocatorIS5_EEFvN4absl12lts_202111028StatusOrINS_6vectorINS_4pairINS_12basic_stringIcNS_11char_traitsIcEENS6_IcEEEESH_EENS6_ISI_EEEEEEiEE18destroy_deallocateEv', symObjAddr: 0x946C, symBinAddr: 0x10EEC, symSize: 0x4 }
  - { offsetInCU: 0x70E12, offset: 0x1091A9, size: 0x8, addend: 0x0, symName: '__ZNSt3__110__function6__funcIZL24perform_stream_op_lockedPvP10grpc_errorE3$_5NS_9allocatorIS5_EEFvN4absl12lts_202111028StatusOrINS_6vectorINS_4pairINS_12basic_stringIcNS_11char_traitsIcEENS6_IcEEEESH_EENS6_ISI_EEEEEEiEEclEOSL_Oi', symObjAddr: 0x9470, symBinAddr: 0x10EF0, symSize: 0x104 }
  - { offsetInCU: 0x712E8, offset: 0x10967F, size: 0x8, addend: 0x0, symName: '__ZNKSt3__110__function6__funcIZL24perform_stream_op_lockedPvP10grpc_errorE3$_5NS_9allocatorIS5_EEFvN4absl12lts_202111028StatusOrINS_6vectorINS_4pairINS_12basic_stringIcNS_11char_traitsIcEENS6_IcEEEESH_EENS6_ISI_EEEEEEiEE6targetERKSt9type_info', symObjAddr: 0x9574, symBinAddr: 0x10FF4, symSize: 0x3C }
  - { offsetInCU: 0x71338, offset: 0x1096CF, size: 0x8, addend: 0x0, symName: '__ZNKSt3__110__function6__funcIZL24perform_stream_op_lockedPvP10grpc_errorE3$_5NS_9allocatorIS5_EEFvN4absl12lts_202111028StatusOrINS_6vectorINS_4pairINS_12basic_stringIcNS_11char_traitsIcEENS6_IcEEEESH_EENS6_ISI_EEEEEEiEE11target_typeEv', symObjAddr: 0x95B0, symBinAddr: 0x11030, symSize: 0xC }
  - { offsetInCU: 0x7135D, offset: 0x1096F4, size: 0x8, addend: 0x0, symName: __ZL29recv_trailing_metadata_lockedPvP10grpc_error, symObjAddr: 0x95BC, symBinAddr: 0x1103C, symSize: 0x1E0 }
  - { offsetInCU: 0x71838, offset: 0x109BCF, size: 0x8, addend: 0x0, symName: __ZNR4absl12lts_202111028StatusOrINSt3__16vectorINS2_4pairINS2_12basic_stringIcNS2_11char_traitsIcEENS2_9allocatorIcEEEESA_EENS8_ISB_EEEEE5valueEv, symObjAddr: 0x979C, symBinAddr: 0x1121C, symSize: 0x68 }
  - { offsetInCU: 0x71997, offset: 0x109D2E, size: 0x8, addend: 0x0, symName: __ZL29recv_trailing_metadata_lockedPvP10grpc_error.cold.1, symObjAddr: 0xB4E0, symBinAddr: 0x48A1C, symSize: 0x34 }
  - { offsetInCU: 0x719C6, offset: 0x109D5D, size: 0x8, addend: 0x0, symName: __ZL29recv_trailing_metadata_lockedPvP10grpc_error.cold.2, symObjAddr: 0xB514, symBinAddr: 0x48A50, symSize: 0x34 }
  - { offsetInCU: 0x71BDE, offset: 0x109F75, size: 0x8, addend: 0x0, symName: __ZL27perform_transport_op_lockedPvP10grpc_error, symObjAddr: 0x9804, symBinAddr: 0x11284, symSize: 0x148 }
  - { offsetInCU: 0x71FA5, offset: 0x10A33C, size: 0x8, addend: 0x0, symName: __ZL22close_transport_lockedP21grpc_binder_transport, symObjAddr: 0x994C, symBinAddr: 0x113CC, symSize: 0x120 }
  - { offsetInCU: 0x721B8, offset: 0x10A54F, size: 0x8, addend: 0x0, symName: __ZL27grpc_binder_unref_transportP21grpc_binder_transportPKcS2_i, symObjAddr: 0x9A6C, symBinAddr: 0x114EC, symSize: 0x5C }
  - { offsetInCU: 0x722EA, offset: 0x10A681, size: 0x8, addend: 0x0, symName: __ZN4absl12lts_2021110218container_internal12raw_hash_setINS1_17FlatHashMapPolicyIiP18grpc_binder_streamEENS0_13hash_internal4HashIiEENSt3__18equal_toIiEENSA_9allocatorINSA_4pairIKiS5_EEEEE5beginEv, symObjAddr: 0x9AC8, symBinAddr: 0x11548, symSize: 0x38 }
  - { offsetInCU: 0x72397, offset: 0x10A72E, size: 0x8, addend: 0x0, symName: __ZN4absl12lts_2021110218container_internal12raw_hash_setINS1_17FlatHashMapPolicyIiP18grpc_binder_streamEENS0_13hash_internal4HashIiEENSt3__18equal_toIiEENSA_9allocatorINSA_4pairIKiS5_EEEEE8iterator21skip_empty_or_deletedEv, symObjAddr: 0x9B00, symBinAddr: 0x11580, symSize: 0x78 }
  - { offsetInCU: 0x723CD, offset: 0x10A764, size: 0x8, addend: 0x0, symName: __ZL22close_transport_lockedP21grpc_binder_transport.cold.1, symObjAddr: 0xB548, symBinAddr: 0x48A84, symSize: 0x24 }
  - { offsetInCU: 0x7245E, offset: 0x10A7F5, size: 0x8, addend: 0x0, symName: __ZN4absl12lts_2021110218container_internal12raw_hash_setINS1_17FlatHashMapPolicyIiP18grpc_binder_streamEENS0_13hash_internal4HashIiEENSt3__18equal_toIiEENSA_9allocatorINSA_4pairIKiS5_EEEEE8iterator21skip_empty_or_deletedEv, symObjAddr: 0x9B00, symBinAddr: 0x11580, symSize: 0x78 }
  - { offsetInCU: 0x7259D, offset: 0x10A934, size: 0x8, addend: 0x0, symName: __ZN4absl12lts_2021110218container_internal12raw_hash_setINS1_17FlatHashMapPolicyIiP18grpc_binder_streamEENS0_13hash_internal4HashIiEENSt3__18equal_toIiEENSA_9allocatorINSA_4pairIKiS5_EEEEE5beginEv.cold.1, symObjAddr: 0xB56C, symBinAddr: 0x48AA8, symSize: 0x24 }
  - { offsetInCU: 0x72637, offset: 0x10A9CE, size: 0x8, addend: 0x0, symName: __ZL21destroy_stream_lockedPvP10grpc_error, symObjAddr: 0x9B78, symBinAddr: 0x115F8, symSize: 0xA4 }
  - { offsetInCU: 0x7273B, offset: 0x10AAD2, size: 0x8, addend: 0x0, symName: __ZN18grpc_binder_streamD2Ev, symObjAddr: 0x9C1C, symBinAddr: 0x1169C, symSize: 0x88 }
  - { offsetInCU: 0x72A4C, offset: 0x10ADE3, size: 0x8, addend: 0x0, symName: __ZL24destroy_transport_lockedPvP10grpc_error, symObjAddr: 0x9CA4, symBinAddr: 0x11724, symSize: 0xE8 }
  - { offsetInCU: 0x72D62, offset: 0x10B0F9, size: 0x8, addend: 0x0, symName: __ZNSt3__110shared_ptrIN11grpc_binder23TransportStreamReceiverEEaSB7v160006EOS3_, symObjAddr: 0x9DC8, symBinAddr: 0x1180C, symSize: 0x64 }
  - { offsetInCU: 0x72F15, offset: 0x10B2AC, size: 0x8, addend: 0x0, symName: __ZN4absl12lts_2021110218container_internal12raw_hash_setINS1_17FlatHashMapPolicyIiP18grpc_binder_streamEENS0_13hash_internal4HashIiEENSt3__18equal_toIiEENSA_9allocatorINSA_4pairIKiS5_EEEEE13destroy_slotsEv.cold.1, symObjAddr: 0xB590, symBinAddr: 0x48ACC, symSize: 0x24 }
  - { offsetInCU: 0x72F78, offset: 0x10B30F, size: 0x8, addend: 0x0, symName: __ZNSt3__120__shared_ptr_emplaceIN11grpc_binder27TransportStreamReceiverImplENS_9allocatorIS2_EEED1Ev, symObjAddr: 0x9FAC, symBinAddr: 0x119F0, symSize: 0x14 }
  - { offsetInCU: 0x72F9B, offset: 0x10B332, size: 0x8, addend: 0x0, symName: __ZNSt3__120__shared_ptr_emplaceIN11grpc_binder27TransportStreamReceiverImplENS_9allocatorIS2_EEED1Ev, symObjAddr: 0x9FAC, symBinAddr: 0x119F0, symSize: 0x14 }
  - { offsetInCU: 0x72FD3, offset: 0x10B36A, size: 0x8, addend: 0x0, symName: __ZNSt3__120__shared_ptr_emplaceIN11grpc_binder27TransportStreamReceiverImplENS_9allocatorIS2_EEED0Ev, symObjAddr: 0x9FC0, symBinAddr: 0x11A04, symSize: 0x24 }
  - { offsetInCU: 0x7303B, offset: 0x10B3D2, size: 0x8, addend: 0x0, symName: __ZNSt3__120__shared_ptr_emplaceIN11grpc_binder27TransportStreamReceiverImplENS_9allocatorIS2_EEE16__on_zero_sharedEv, symObjAddr: 0x9FE4, symBinAddr: 0x11A28, symSize: 0xC }
  - { offsetInCU: 0x730CA, offset: 0x10B461, size: 0x8, addend: 0x0, symName: __ZNSt3__120__shared_ptr_emplaceIN11grpc_binder27TransportStreamReceiverImplENS_9allocatorIS2_EEE21__on_zero_shared_weakEv, symObjAddr: 0x9FF0, symBinAddr: 0x11A34, symSize: 0x4 }
  - { offsetInCU: 0x730FF, offset: 0x10B496, size: 0x8, addend: 0x0, symName: __ZNSt3__120__shared_ptr_emplaceIN11grpc_binder27TransportStreamReceiverImplENS_9allocatorIS2_EEE21__on_zero_shared_weakEv, symObjAddr: 0x9FF0, symBinAddr: 0x11A34, symSize: 0x4 }
  - { offsetInCU: 0x73123, offset: 0x10B4BA, size: 0x8, addend: 0x0, symName: __ZNSt3__120__shared_ptr_emplaceIN11grpc_binder27TransportStreamReceiverImplENS_9allocatorIS2_EEE21__on_zero_shared_weakEv, symObjAddr: 0x9FF0, symBinAddr: 0x11A34, symSize: 0x4 }
  - { offsetInCU: 0x73147, offset: 0x10B4DE, size: 0x8, addend: 0x0, symName: __ZNSt3__120__shared_ptr_emplaceIN11grpc_binder27TransportStreamReceiverImplENS_9allocatorIS2_EEE21__on_zero_shared_weakEv, symObjAddr: 0x9FF0, symBinAddr: 0x11A34, symSize: 0x4 }
  - { offsetInCU: 0x73175, offset: 0x10B50C, size: 0x8, addend: 0x0, symName: __ZNSt3__120__shared_ptr_emplaceIN11grpc_binder27TransportStreamReceiverImplENS_9allocatorIS2_EEE21__on_zero_shared_weakEv, symObjAddr: 0x9FF0, symBinAddr: 0x11A34, symSize: 0x4 }
  - { offsetInCU: 0x7319E, offset: 0x10B535, size: 0x8, addend: 0x0, symName: __ZNSt3__120__shared_ptr_emplaceIN11grpc_binder27TransportStreamReceiverImplENS_9allocatorIS2_EEE21__on_zero_shared_weakEv, symObjAddr: 0x9FF0, symBinAddr: 0x11A34, symSize: 0x4 }
  - { offsetInCU: 0x731C9, offset: 0x10B560, size: 0x8, addend: 0x0, symName: '__ZNSt3__110__function6__funcIZN21grpc_binder_transportC1ENS_10unique_ptrIN11grpc_binder6BinderENS_14default_deleteIS5_EEEEbNS_10shared_ptrIN4grpc12experimental6binder14SecurityPolicyEEEE3$_0NS_9allocatorISF_EEFvvEED1Ev', symObjAddr: 0x9FF4, symBinAddr: 0x11A38, symSize: 0x4 }
  - { offsetInCU: 0x731F5, offset: 0x10B58C, size: 0x8, addend: 0x0, symName: '__ZNSt3__110__function6__funcIZN21grpc_binder_transportC1ENS_10unique_ptrIN11grpc_binder6BinderENS_14default_deleteIS5_EEEEbNS_10shared_ptrIN4grpc12experimental6binder14SecurityPolicyEEEE3$_0NS_9allocatorISF_EEFvvEED0Ev', symObjAddr: 0x9FF8, symBinAddr: 0x11A3C, symSize: 0x4 }
  - { offsetInCU: 0x73409, offset: 0x10B7A0, size: 0x8, addend: 0x0, symName: '__ZNKSt3__110__function6__funcIZN21grpc_binder_transportC1ENS_10unique_ptrIN11grpc_binder6BinderENS_14default_deleteIS5_EEEEbNS_10shared_ptrIN4grpc12experimental6binder14SecurityPolicyEEEE3$_0NS_9allocatorISF_EEFvvEE7__cloneEv', symObjAddr: 0x9FFC, symBinAddr: 0x11A40, symSize: 0x34 }
  - { offsetInCU: 0x73714, offset: 0x10BAAB, size: 0x8, addend: 0x0, symName: '__ZNKSt3__110__function6__funcIZN21grpc_binder_transportC1ENS_10unique_ptrIN11grpc_binder6BinderENS_14default_deleteIS5_EEEEbNS_10shared_ptrIN4grpc12experimental6binder14SecurityPolicyEEEE3$_0NS_9allocatorISF_EEFvvEE7__cloneEPNS0_6__baseISI_EE', symObjAddr: 0xA030, symBinAddr: 0x11A74, symSize: 0x14 }
  - { offsetInCU: 0x7374D, offset: 0x10BAE4, size: 0x8, addend: 0x0, symName: '__ZNKSt3__110__function6__funcIZN21grpc_binder_transportC1ENS_10unique_ptrIN11grpc_binder6BinderENS_14default_deleteIS5_EEEEbNS_10shared_ptrIN4grpc12experimental6binder14SecurityPolicyEEEE3$_0NS_9allocatorISF_EEFvvEE7__cloneEPNS0_6__baseISI_EE', symObjAddr: 0xA030, symBinAddr: 0x11A74, symSize: 0x14 }
  - { offsetInCU: 0x7377C, offset: 0x10BB13, size: 0x8, addend: 0x0, symName: '__ZNKSt3__110__function6__funcIZN21grpc_binder_transportC1ENS_10unique_ptrIN11grpc_binder6BinderENS_14default_deleteIS5_EEEEbNS_10shared_ptrIN4grpc12experimental6binder14SecurityPolicyEEEE3$_0NS_9allocatorISF_EEFvvEE7__cloneEPNS0_6__baseISI_EE', symObjAddr: 0xA030, symBinAddr: 0x11A74, symSize: 0x14 }
  - { offsetInCU: 0x737AB, offset: 0x10BB42, size: 0x8, addend: 0x0, symName: '__ZNKSt3__110__function6__funcIZN21grpc_binder_transportC1ENS_10unique_ptrIN11grpc_binder6BinderENS_14default_deleteIS5_EEEEbNS_10shared_ptrIN4grpc12experimental6binder14SecurityPolicyEEEE3$_0NS_9allocatorISF_EEFvvEE7__cloneEPNS0_6__baseISI_EE', symObjAddr: 0xA030, symBinAddr: 0x11A74, symSize: 0x14 }
  - { offsetInCU: 0x737C1, offset: 0x10BB58, size: 0x8, addend: 0x0, symName: '__ZNKSt3__110__function6__funcIZN21grpc_binder_transportC1ENS_10unique_ptrIN11grpc_binder6BinderENS_14default_deleteIS5_EEEEbNS_10shared_ptrIN4grpc12experimental6binder14SecurityPolicyEEEE3$_0NS_9allocatorISF_EEFvvEE7__cloneEPNS0_6__baseISI_EE', symObjAddr: 0xA030, symBinAddr: 0x11A74, symSize: 0x14 }
  - { offsetInCU: 0x737D5, offset: 0x10BB6C, size: 0x8, addend: 0x0, symName: '__ZNKSt3__110__function6__funcIZN21grpc_binder_transportC1ENS_10unique_ptrIN11grpc_binder6BinderENS_14default_deleteIS5_EEEEbNS_10shared_ptrIN4grpc12experimental6binder14SecurityPolicyEEEE3$_0NS_9allocatorISF_EEFvvEE7__cloneEPNS0_6__baseISI_EE', symObjAddr: 0xA030, symBinAddr: 0x11A74, symSize: 0x14 }
  - { offsetInCU: 0x737E9, offset: 0x10BB80, size: 0x8, addend: 0x0, symName: '__ZNKSt3__110__function6__funcIZN21grpc_binder_transportC1ENS_10unique_ptrIN11grpc_binder6BinderENS_14default_deleteIS5_EEEEbNS_10shared_ptrIN4grpc12experimental6binder14SecurityPolicyEEEE3$_0NS_9allocatorISF_EEFvvEE7__cloneEPNS0_6__baseISI_EE', symObjAddr: 0xA030, symBinAddr: 0x11A74, symSize: 0x14 }
  - { offsetInCU: 0x737FD, offset: 0x10BB94, size: 0x8, addend: 0x0, symName: '__ZNKSt3__110__function6__funcIZN21grpc_binder_transportC1ENS_10unique_ptrIN11grpc_binder6BinderENS_14default_deleteIS5_EEEEbNS_10shared_ptrIN4grpc12experimental6binder14SecurityPolicyEEEE3$_0NS_9allocatorISF_EEFvvEE7__cloneEPNS0_6__baseISI_EE', symObjAddr: 0xA030, symBinAddr: 0x11A74, symSize: 0x14 }
  - { offsetInCU: 0x73815, offset: 0x10BBAC, size: 0x8, addend: 0x0, symName: '__ZNSt3__110__function6__funcIZN21grpc_binder_transportC1ENS_10unique_ptrIN11grpc_binder6BinderENS_14default_deleteIS5_EEEEbNS_10shared_ptrIN4grpc12experimental6binder14SecurityPolicyEEEE3$_0NS_9allocatorISF_EEFvvEE7destroyEv', symObjAddr: 0xA044, symBinAddr: 0x11A88, symSize: 0x4 }
  - { offsetInCU: 0x73868, offset: 0x10BBFF, size: 0x8, addend: 0x0, symName: '__ZNSt3__110__function6__funcIZN21grpc_binder_transportC1ENS_10unique_ptrIN11grpc_binder6BinderENS_14default_deleteIS5_EEEEbNS_10shared_ptrIN4grpc12experimental6binder14SecurityPolicyEEEE3$_0NS_9allocatorISF_EEFvvEE18destroy_deallocateEv', symObjAddr: 0xA048, symBinAddr: 0x11A8C, symSize: 0x4 }
  - { offsetInCU: 0x7389F, offset: 0x10BC36, size: 0x8, addend: 0x0, symName: '__ZNSt3__110__function6__funcIZN21grpc_binder_transportC1ENS_10unique_ptrIN11grpc_binder6BinderENS_14default_deleteIS5_EEEEbNS_10shared_ptrIN4grpc12experimental6binder14SecurityPolicyEEEE3$_0NS_9allocatorISF_EEFvvEE18destroy_deallocateEv', symObjAddr: 0xA048, symBinAddr: 0x11A8C, symSize: 0x4 }
  - { offsetInCU: 0x738C3, offset: 0x10BC5A, size: 0x8, addend: 0x0, symName: '__ZNSt3__110__function6__funcIZN21grpc_binder_transportC1ENS_10unique_ptrIN11grpc_binder6BinderENS_14default_deleteIS5_EEEEbNS_10shared_ptrIN4grpc12experimental6binder14SecurityPolicyEEEE3$_0NS_9allocatorISF_EEFvvEE18destroy_deallocateEv', symObjAddr: 0xA048, symBinAddr: 0x11A8C, symSize: 0x4 }
  - { offsetInCU: 0x738EF, offset: 0x10BC86, size: 0x8, addend: 0x0, symName: '__ZNSt3__110__function6__funcIZN21grpc_binder_transportC1ENS_10unique_ptrIN11grpc_binder6BinderENS_14default_deleteIS5_EEEEbNS_10shared_ptrIN4grpc12experimental6binder14SecurityPolicyEEEE3$_0NS_9allocatorISF_EEFvvEE18destroy_deallocateEv', symObjAddr: 0xA048, symBinAddr: 0x11A8C, symSize: 0x4 }
  - { offsetInCU: 0x73916, offset: 0x10BCAD, size: 0x8, addend: 0x0, symName: '__ZNSt3__110__function6__funcIZN21grpc_binder_transportC1ENS_10unique_ptrIN11grpc_binder6BinderENS_14default_deleteIS5_EEEEbNS_10shared_ptrIN4grpc12experimental6binder14SecurityPolicyEEEE3$_0NS_9allocatorISF_EEFvvEE18destroy_deallocateEv', symObjAddr: 0xA048, symBinAddr: 0x11A8C, symSize: 0x4 }
  - { offsetInCU: 0x739A2, offset: 0x10BD39, size: 0x8, addend: 0x0, symName: '__ZNSt3__110__function6__funcIZN21grpc_binder_transportC1ENS_10unique_ptrIN11grpc_binder6BinderENS_14default_deleteIS5_EEEEbNS_10shared_ptrIN4grpc12experimental6binder14SecurityPolicyEEEE3$_0NS_9allocatorISF_EEFvvEEclEv', symObjAddr: 0xA04C, symBinAddr: 0x11A90, symSize: 0x58 }
  - { offsetInCU: 0x73AD8, offset: 0x10BE6F, size: 0x8, addend: 0x0, symName: '__ZNKSt3__110__function6__funcIZN21grpc_binder_transportC1ENS_10unique_ptrIN11grpc_binder6BinderENS_14default_deleteIS5_EEEEbNS_10shared_ptrIN4grpc12experimental6binder14SecurityPolicyEEEE3$_0NS_9allocatorISF_EEFvvEE6targetERKSt9type_info', symObjAddr: 0xA0A4, symBinAddr: 0x11AE8, symSize: 0x3C }
  - { offsetInCU: 0x73B28, offset: 0x10BEBF, size: 0x8, addend: 0x0, symName: '__ZNKSt3__110__function6__funcIZN21grpc_binder_transportC1ENS_10unique_ptrIN11grpc_binder6BinderENS_14default_deleteIS5_EEEEbNS_10shared_ptrIN4grpc12experimental6binder14SecurityPolicyEEEE3$_0NS_9allocatorISF_EEFvvEE11target_typeEv', symObjAddr: 0xA0E0, symBinAddr: 0x11B24, symSize: 0xC }
  - { offsetInCU: 0x7479E, offset: 0x10CB35, size: 0x8, addend: 0x0, symName: __ZNSt3__110__function12__value_funcIFvvEEC2B7v160006ERKS3_, symObjAddr: 0xA274, symBinAddr: 0x11CB8, symSize: 0x64 }
  - { offsetInCU: 0x747F8, offset: 0x10CB8F, size: 0x8, addend: 0x0, symName: __ZNSt3__16__treeIiNS_4lessIiEENS_9allocatorIiEEE7destroyEPNS_11__tree_nodeIiPvEE, symObjAddr: 0xA2D8, symBinAddr: 0x11D1C, symSize: 0x40 }
  - { offsetInCU: 0x7493D, offset: 0x10CCD4, size: 0x8, addend: 0x0, symName: __ZNSt3__16__treeINS_12__value_typeIiNS_5queueINS_4pairIN4absl12lts_202111028StatusOrINS_6vectorINS3_INS_12basic_stringIcNS_11char_traitsIcEENS_9allocatorIcEEEESD_EENSB_ISE_EEEEEEiEENS_5dequeISI_NSB_ISI_EEEEEEEENS_19__map_value_compareIiSN_NS_4lessIiEELb1EEENSB_ISN_EEE7destroyEPNS_11__tree_nodeISN_PvEE, symObjAddr: 0xA318, symBinAddr: 0x11D5C, symSize: 0x48 }
  - { offsetInCU: 0x74B50, offset: 0x10CEE7, size: 0x8, addend: 0x0, symName: __ZNSt3__16__treeINS_12__value_typeIiNS_5queueIN4absl12lts_202111028StatusOrINS_12basic_stringIcNS_11char_traitsIcEENS_9allocatorIcEEEEEENS_5dequeISC_NS9_ISC_EEEEEEEENS_19__map_value_compareIiSH_NS_4lessIiEELb1EEENS9_ISH_EEE7destroyEPNS_11__tree_nodeISH_PvEE, symObjAddr: 0xA4E0, symBinAddr: 0x11F24, symSize: 0x48 }
  - { offsetInCU: 0x74D63, offset: 0x10D0FA, size: 0x8, addend: 0x0, symName: __ZNSt3__16__treeINS_12__value_typeIiNS_5queueIN4absl12lts_202111028StatusOrINS_6vectorINS_4pairINS_12basic_stringIcNS_11char_traitsIcEENS_9allocatorIcEEEESD_EENSB_ISE_EEEEEENS_5dequeISH_NSB_ISH_EEEEEEEENS_19__map_value_compareIiSM_NS_4lessIiEELb1EEENSB_ISM_EEE7destroyEPNS_11__tree_nodeISM_PvEE, symObjAddr: 0xA690, symBinAddr: 0x120D4, symSize: 0x48 }
  - { offsetInCU: 0x74F83, offset: 0x10D31A, size: 0x8, addend: 0x0, symName: __ZNSt3__16__treeINS_12__value_typeIiNS_8functionIFvN4absl12lts_202111028StatusOrINS_6vectorINS_4pairINS_12basic_stringIcNS_11char_traitsIcEENS_9allocatorIcEEEESD_EENSB_ISE_EEEEEEiEEEEENS_19__map_value_compareIiSK_NS_4lessIiEELb1EEENSB_ISK_EEE7destroyEPNS_11__tree_nodeISK_PvEE, symObjAddr: 0xA840, symBinAddr: 0x12284, symSize: 0x70 }
  - { offsetInCU: 0x7517B, offset: 0x10D512, size: 0x8, addend: 0x0, symName: __ZNSt3__16__treeINS_12__value_typeIiNS_8functionIFvN4absl12lts_202111028StatusOrINS_12basic_stringIcNS_11char_traitsIcEENS_9allocatorIcEEEEEEEEEEENS_19__map_value_compareIiSF_NS_4lessIiEELb1EEENS9_ISF_EEE7destroyEPNS_11__tree_nodeISF_PvEE, symObjAddr: 0xA8B0, symBinAddr: 0x122F4, symSize: 0x70 }
  - { offsetInCU: 0x75373, offset: 0x10D70A, size: 0x8, addend: 0x0, symName: __ZNSt3__16__treeINS_12__value_typeIiNS_8functionIFvN4absl12lts_202111028StatusOrINS_6vectorINS_4pairINS_12basic_stringIcNS_11char_traitsIcEENS_9allocatorIcEEEESD_EENSB_ISE_EEEEEEEEEEENS_19__map_value_compareIiSK_NS_4lessIiEELb1EEENSB_ISK_EEE7destroyEPNS_11__tree_nodeISK_PvEE, symObjAddr: 0xA920, symBinAddr: 0x12364, symSize: 0x70 }
  - { offsetInCU: 0x756FC, offset: 0x10DA93, size: 0x8, addend: 0x0, symName: __ZNSt3__15dequeINS_4pairIN4absl12lts_202111028StatusOrINS_6vectorINS1_INS_12basic_stringIcNS_11char_traitsIcEENS_9allocatorIcEEEESB_EENS9_ISC_EEEEEEiEENS9_ISG_EEED2B7v160006Ev, symObjAddr: 0xA360, symBinAddr: 0x11DA4, symSize: 0x134 }
  - { offsetInCU: 0x75DE9, offset: 0x10E180, size: 0x8, addend: 0x0, symName: __ZNSt3__114__split_bufferIPNS_4pairIN4absl12lts_202111028StatusOrINS_6vectorINS1_INS_12basic_stringIcNS_11char_traitsIcEENS_9allocatorIcEEEESB_EENS9_ISC_EEEEEEiEENS9_ISH_EEED2Ev, symObjAddr: 0xA494, symBinAddr: 0x11ED8, symSize: 0x4C }
  - { offsetInCU: 0x76133, offset: 0x10E4CA, size: 0x8, addend: 0x0, symName: __ZNSt3__15dequeIN4absl12lts_202111028StatusOrINS_12basic_stringIcNS_11char_traitsIcEENS_9allocatorIcEEEEEENS7_ISA_EEED2B7v160006Ev, symObjAddr: 0xA528, symBinAddr: 0x11F6C, symSize: 0x11C }
  - { offsetInCU: 0x767B4, offset: 0x10EB4B, size: 0x8, addend: 0x0, symName: __ZNSt3__114__split_bufferIPN4absl12lts_202111028StatusOrINS_12basic_stringIcNS_11char_traitsIcEENS_9allocatorIcEEEEEENS7_ISB_EEED2Ev, symObjAddr: 0xA644, symBinAddr: 0x12088, symSize: 0x4C }
  - { offsetInCU: 0x76AFE, offset: 0x10EE95, size: 0x8, addend: 0x0, symName: __ZNSt3__15dequeIN4absl12lts_202111028StatusOrINS_6vectorINS_4pairINS_12basic_stringIcNS_11char_traitsIcEENS_9allocatorIcEEEESB_EENS9_ISC_EEEEEENS9_ISF_EEED2B7v160006Ev, symObjAddr: 0xA6D8, symBinAddr: 0x1211C, symSize: 0x11C }
  - { offsetInCU: 0x7717F, offset: 0x10F516, size: 0x8, addend: 0x0, symName: __ZNSt3__114__split_bufferIPN4absl12lts_202111028StatusOrINS_6vectorINS_4pairINS_12basic_stringIcNS_11char_traitsIcEENS_9allocatorIcEEEESB_EENS9_ISC_EEEEEENS9_ISG_EEED2Ev, symObjAddr: 0xA7F4, symBinAddr: 0x12238, symSize: 0x4C }
  - { offsetInCU: 0x77601, offset: 0x10F998, size: 0x8, addend: 0x0, symName: '__ZNSt3__110__function6__funcIZN21grpc_binder_transportC1ENS_10unique_ptrIN11grpc_binder6BinderENS_14default_deleteIS5_EEEEbNS_10shared_ptrIN4grpc12experimental6binder14SecurityPolicyEEEE3$_1NS_9allocatorISF_EEFvvEED1Ev', symObjAddr: 0xA990, symBinAddr: 0x123D4, symSize: 0x4 }
  - { offsetInCU: 0x7762D, offset: 0x10F9C4, size: 0x8, addend: 0x0, symName: '__ZNSt3__110__function6__funcIZN21grpc_binder_transportC1ENS_10unique_ptrIN11grpc_binder6BinderENS_14default_deleteIS5_EEEEbNS_10shared_ptrIN4grpc12experimental6binder14SecurityPolicyEEEE3$_1NS_9allocatorISF_EEFvvEED0Ev', symObjAddr: 0xA994, symBinAddr: 0x123D8, symSize: 0x4 }
  - { offsetInCU: 0x77841, offset: 0x10FBD8, size: 0x8, addend: 0x0, symName: '__ZNKSt3__110__function6__funcIZN21grpc_binder_transportC1ENS_10unique_ptrIN11grpc_binder6BinderENS_14default_deleteIS5_EEEEbNS_10shared_ptrIN4grpc12experimental6binder14SecurityPolicyEEEE3$_1NS_9allocatorISF_EEFvvEE7__cloneEv', symObjAddr: 0xA998, symBinAddr: 0x123DC, symSize: 0x34 }
  - { offsetInCU: 0x77B4C, offset: 0x10FEE3, size: 0x8, addend: 0x0, symName: '__ZNKSt3__110__function6__funcIZN21grpc_binder_transportC1ENS_10unique_ptrIN11grpc_binder6BinderENS_14default_deleteIS5_EEEEbNS_10shared_ptrIN4grpc12experimental6binder14SecurityPolicyEEEE3$_1NS_9allocatorISF_EEFvvEE7__cloneEPNS0_6__baseISI_EE', symObjAddr: 0xA9CC, symBinAddr: 0x12410, symSize: 0x14 }
  - { offsetInCU: 0x77B85, offset: 0x10FF1C, size: 0x8, addend: 0x0, symName: '__ZNKSt3__110__function6__funcIZN21grpc_binder_transportC1ENS_10unique_ptrIN11grpc_binder6BinderENS_14default_deleteIS5_EEEEbNS_10shared_ptrIN4grpc12experimental6binder14SecurityPolicyEEEE3$_1NS_9allocatorISF_EEFvvEE7__cloneEPNS0_6__baseISI_EE', symObjAddr: 0xA9CC, symBinAddr: 0x12410, symSize: 0x14 }
  - { offsetInCU: 0x77BB4, offset: 0x10FF4B, size: 0x8, addend: 0x0, symName: '__ZNKSt3__110__function6__funcIZN21grpc_binder_transportC1ENS_10unique_ptrIN11grpc_binder6BinderENS_14default_deleteIS5_EEEEbNS_10shared_ptrIN4grpc12experimental6binder14SecurityPolicyEEEE3$_1NS_9allocatorISF_EEFvvEE7__cloneEPNS0_6__baseISI_EE', symObjAddr: 0xA9CC, symBinAddr: 0x12410, symSize: 0x14 }
  - { offsetInCU: 0x77BE3, offset: 0x10FF7A, size: 0x8, addend: 0x0, symName: '__ZNKSt3__110__function6__funcIZN21grpc_binder_transportC1ENS_10unique_ptrIN11grpc_binder6BinderENS_14default_deleteIS5_EEEEbNS_10shared_ptrIN4grpc12experimental6binder14SecurityPolicyEEEE3$_1NS_9allocatorISF_EEFvvEE7__cloneEPNS0_6__baseISI_EE', symObjAddr: 0xA9CC, symBinAddr: 0x12410, symSize: 0x14 }
  - { offsetInCU: 0x77BF9, offset: 0x10FF90, size: 0x8, addend: 0x0, symName: '__ZNKSt3__110__function6__funcIZN21grpc_binder_transportC1ENS_10unique_ptrIN11grpc_binder6BinderENS_14default_deleteIS5_EEEEbNS_10shared_ptrIN4grpc12experimental6binder14SecurityPolicyEEEE3$_1NS_9allocatorISF_EEFvvEE7__cloneEPNS0_6__baseISI_EE', symObjAddr: 0xA9CC, symBinAddr: 0x12410, symSize: 0x14 }
  - { offsetInCU: 0x77C0D, offset: 0x10FFA4, size: 0x8, addend: 0x0, symName: '__ZNKSt3__110__function6__funcIZN21grpc_binder_transportC1ENS_10unique_ptrIN11grpc_binder6BinderENS_14default_deleteIS5_EEEEbNS_10shared_ptrIN4grpc12experimental6binder14SecurityPolicyEEEE3$_1NS_9allocatorISF_EEFvvEE7__cloneEPNS0_6__baseISI_EE', symObjAddr: 0xA9CC, symBinAddr: 0x12410, symSize: 0x14 }
  - { offsetInCU: 0x77C21, offset: 0x10FFB8, size: 0x8, addend: 0x0, symName: '__ZNKSt3__110__function6__funcIZN21grpc_binder_transportC1ENS_10unique_ptrIN11grpc_binder6BinderENS_14default_deleteIS5_EEEEbNS_10shared_ptrIN4grpc12experimental6binder14SecurityPolicyEEEE3$_1NS_9allocatorISF_EEFvvEE7__cloneEPNS0_6__baseISI_EE', symObjAddr: 0xA9CC, symBinAddr: 0x12410, symSize: 0x14 }
  - { offsetInCU: 0x77C35, offset: 0x10FFCC, size: 0x8, addend: 0x0, symName: '__ZNKSt3__110__function6__funcIZN21grpc_binder_transportC1ENS_10unique_ptrIN11grpc_binder6BinderENS_14default_deleteIS5_EEEEbNS_10shared_ptrIN4grpc12experimental6binder14SecurityPolicyEEEE3$_1NS_9allocatorISF_EEFvvEE7__cloneEPNS0_6__baseISI_EE', symObjAddr: 0xA9CC, symBinAddr: 0x12410, symSize: 0x14 }
  - { offsetInCU: 0x77C4D, offset: 0x10FFE4, size: 0x8, addend: 0x0, symName: '__ZNSt3__110__function6__funcIZN21grpc_binder_transportC1ENS_10unique_ptrIN11grpc_binder6BinderENS_14default_deleteIS5_EEEEbNS_10shared_ptrIN4grpc12experimental6binder14SecurityPolicyEEEE3$_1NS_9allocatorISF_EEFvvEE7destroyEv', symObjAddr: 0xA9E0, symBinAddr: 0x12424, symSize: 0x4 }
  - { offsetInCU: 0x77CA0, offset: 0x110037, size: 0x8, addend: 0x0, symName: '__ZNSt3__110__function6__funcIZN21grpc_binder_transportC1ENS_10unique_ptrIN11grpc_binder6BinderENS_14default_deleteIS5_EEEEbNS_10shared_ptrIN4grpc12experimental6binder14SecurityPolicyEEEE3$_1NS_9allocatorISF_EEFvvEE18destroy_deallocateEv', symObjAddr: 0xA9E4, symBinAddr: 0x12428, symSize: 0x4 }
  - { offsetInCU: 0x77CD7, offset: 0x11006E, size: 0x8, addend: 0x0, symName: '__ZNSt3__110__function6__funcIZN21grpc_binder_transportC1ENS_10unique_ptrIN11grpc_binder6BinderENS_14default_deleteIS5_EEEEbNS_10shared_ptrIN4grpc12experimental6binder14SecurityPolicyEEEE3$_1NS_9allocatorISF_EEFvvEE18destroy_deallocateEv', symObjAddr: 0xA9E4, symBinAddr: 0x12428, symSize: 0x4 }
  - { offsetInCU: 0x77CFB, offset: 0x110092, size: 0x8, addend: 0x0, symName: '__ZNSt3__110__function6__funcIZN21grpc_binder_transportC1ENS_10unique_ptrIN11grpc_binder6BinderENS_14default_deleteIS5_EEEEbNS_10shared_ptrIN4grpc12experimental6binder14SecurityPolicyEEEE3$_1NS_9allocatorISF_EEFvvEE18destroy_deallocateEv', symObjAddr: 0xA9E4, symBinAddr: 0x12428, symSize: 0x4 }
  - { offsetInCU: 0x77D27, offset: 0x1100BE, size: 0x8, addend: 0x0, symName: '__ZNSt3__110__function6__funcIZN21grpc_binder_transportC1ENS_10unique_ptrIN11grpc_binder6BinderENS_14default_deleteIS5_EEEEbNS_10shared_ptrIN4grpc12experimental6binder14SecurityPolicyEEEE3$_1NS_9allocatorISF_EEFvvEE18destroy_deallocateEv', symObjAddr: 0xA9E4, symBinAddr: 0x12428, symSize: 0x4 }
  - { offsetInCU: 0x77D4E, offset: 0x1100E5, size: 0x8, addend: 0x0, symName: '__ZNSt3__110__function6__funcIZN21grpc_binder_transportC1ENS_10unique_ptrIN11grpc_binder6BinderENS_14default_deleteIS5_EEEEbNS_10shared_ptrIN4grpc12experimental6binder14SecurityPolicyEEEE3$_1NS_9allocatorISF_EEFvvEE18destroy_deallocateEv', symObjAddr: 0xA9E4, symBinAddr: 0x12428, symSize: 0x4 }
  - { offsetInCU: 0x77DCD, offset: 0x110164, size: 0x8, addend: 0x0, symName: '__ZNSt3__110__function6__funcIZN21grpc_binder_transportC1ENS_10unique_ptrIN11grpc_binder6BinderENS_14default_deleteIS5_EEEEbNS_10shared_ptrIN4grpc12experimental6binder14SecurityPolicyEEEE3$_1NS_9allocatorISF_EEFvvEEclEv', symObjAddr: 0xA9E8, symBinAddr: 0x1242C, symSize: 0x14 }
  - { offsetInCU: 0x77E65, offset: 0x1101FC, size: 0x8, addend: 0x0, symName: '__ZNKSt3__110__function6__funcIZN21grpc_binder_transportC1ENS_10unique_ptrIN11grpc_binder6BinderENS_14default_deleteIS5_EEEEbNS_10shared_ptrIN4grpc12experimental6binder14SecurityPolicyEEEE3$_1NS_9allocatorISF_EEFvvEE6targetERKSt9type_info', symObjAddr: 0xA9FC, symBinAddr: 0x12440, symSize: 0x3C }
  - { offsetInCU: 0x77EB5, offset: 0x11024C, size: 0x8, addend: 0x0, symName: '__ZNKSt3__110__function6__funcIZN21grpc_binder_transportC1ENS_10unique_ptrIN11grpc_binder6BinderENS_14default_deleteIS5_EEEEbNS_10shared_ptrIN4grpc12experimental6binder14SecurityPolicyEEEE3$_1NS_9allocatorISF_EEFvvEE11target_typeEv', symObjAddr: 0xAA38, symBinAddr: 0x1247C, symSize: 0xC }
  - { offsetInCU: 0x77EDA, offset: 0x110271, size: 0x8, addend: 0x0, symName: _OUTLINED_FUNCTION_0, symObjAddr: 0xB5B4, symBinAddr: 0x12488, symSize: 0x8 }
  - { offsetInCU: 0x77EF2, offset: 0x110289, size: 0x8, addend: 0x0, symName: _OUTLINED_FUNCTION_1, symObjAddr: 0xB5BC, symBinAddr: 0x12490, symSize: 0x8 }
  - { offsetInCU: 0x77F0A, offset: 0x1102A1, size: 0x8, addend: 0x0, symName: _OUTLINED_FUNCTION_2, symObjAddr: 0xB5C4, symBinAddr: 0x12498, symSize: 0x8 }
  - { offsetInCU: 0x77F22, offset: 0x1102B9, size: 0x8, addend: 0x0, symName: _OUTLINED_FUNCTION_3, symObjAddr: 0xB5CC, symBinAddr: 0x124A0, symSize: 0x8 }
  - { offsetInCU: 0x77F3A, offset: 0x1102D1, size: 0x8, addend: 0x0, symName: _OUTLINED_FUNCTION_4, symObjAddr: 0xB5D4, symBinAddr: 0x124A8, symSize: 0x8 }
  - { offsetInCU: 0x44, offset: 0x11052D, size: 0x8, addend: 0x0, symName: __ZN4grpcL17g_gli_initializerE, symObjAddr: 0x280A0, symBinAddr: 0x68BF8, symSize: 0x0 }
  - { offsetInCU: 0x41CD, offset: 0x1146B6, size: 0x8, addend: 0x0, symName: __ZNSt3__119__allocate_at_leastB7v160006INS_9allocatorIN4grpc5SliceEEEEENS_19__allocation_resultINS_16allocator_traitsIT_E7pointerEEERS7_m, symObjAddr: 0xB10, symBinAddr: 0x12D38, symSize: 0x34 }
  - { offsetInCU: 0x4272, offset: 0x11475B, size: 0x8, addend: 0x0, symName: __ZNSt3__142__uninitialized_allocator_move_if_noexceptB7v160006INS_9allocatorIN4grpc5SliceEEENS_16reverse_iteratorIPS3_EES7_S7_EET2_RT_T0_T1_S8_, symObjAddr: 0xB44, symBinAddr: 0x12D6C, symSize: 0xF0 }
  - { offsetInCU: 0x42D0, offset: 0x1147B9, size: 0x8, addend: 0x0, symName: __ZNSt3__142__uninitialized_allocator_move_if_noexceptB7v160006INS_9allocatorIN4grpc5SliceEEENS_16reverse_iteratorIPS3_EES7_S7_EET2_RT_T0_T1_S8_, symObjAddr: 0xB44, symBinAddr: 0x12D6C, symSize: 0xF0 }
  - { offsetInCU: 0x44C6, offset: 0x1149AF, size: 0x8, addend: 0x0, symName: __ZNSt3__119__allocator_destroyB7v160006INS_9allocatorIN4grpc5SliceEEENS_16reverse_iteratorINS5_IPS3_EEEES8_EEvRT_T0_T1_, symObjAddr: 0xCDC, symBinAddr: 0x12F04, symSize: 0xAC }
  - { offsetInCU: 0x4968, offset: 0x114E51, size: 0x8, addend: 0x0, symName: __ZNSt3__16vectorIN4grpc5SliceENS_9allocatorIS2_EEE26__swap_out_circular_bufferERNS_14__split_bufferIS2_RS4_EE, symObjAddr: 0xA88, symBinAddr: 0x12CB0, symSize: 0x74 }
  - { offsetInCU: 0x6B12, offset: 0x116FFB, size: 0x8, addend: 0x0, symName: __ZNK4grpc10ByteBuffer14TrySingleSliceEPNS_5SliceE, symObjAddr: 0x0, symBinAddr: 0x124B0, symSize: 0x1B4 }
  - { offsetInCU: 0x706A, offset: 0x117553, size: 0x8, addend: 0x0, symName: __ZN4grpc5SliceD1Ev, symObjAddr: 0x1B4, symBinAddr: 0x12664, symSize: 0x7C }
  - { offsetInCU: 0x70B9, offset: 0x1175A2, size: 0x8, addend: 0x0, symName: __ZNK4grpc10ByteBuffer17DumpToSingleSliceEPNS_5SliceE, symObjAddr: 0x230, symBinAddr: 0x126E0, symSize: 0x188 }
  - { offsetInCU: 0x7451, offset: 0x11793A, size: 0x8, addend: 0x0, symName: __ZNK4grpc10ByteBuffer4DumpEPNSt3__16vectorINS_5SliceENS1_9allocatorIS3_EEEE, symObjAddr: 0x3B8, symBinAddr: 0x12868, symSize: 0x1E0 }
  - { offsetInCU: 0x782C, offset: 0x117D15, size: 0x8, addend: 0x0, symName: __ZNSt3__16vectorIN4grpc5SliceENS_9allocatorIS2_EEE22__base_destruct_at_endB7v160006EPS2_, symObjAddr: 0x820, symBinAddr: 0x12A48, symSize: 0xA0 }
  - { offsetInCU: 0x78EC, offset: 0x117DD5, size: 0x8, addend: 0x0, symName: __ZNSt3__16vectorIN4grpc5SliceENS_9allocatorIS2_EEE22__construct_one_at_endB7v160006IJS2_EEEvDpOT_, symObjAddr: 0x8C0, symBinAddr: 0x12AE8, symSize: 0x9C }
  - { offsetInCU: 0x7A68, offset: 0x117F51, size: 0x8, addend: 0x0, symName: __ZNSt3__16vectorIN4grpc5SliceENS_9allocatorIS2_EEE21__push_back_slow_pathIS2_EEvOT_, symObjAddr: 0x95C, symBinAddr: 0x12B84, symSize: 0x12C }
  - { offsetInCU: 0x8374, offset: 0x11885D, size: 0x8, addend: 0x0, symName: __ZNSt3__114__split_bufferIN4grpc5SliceERNS_9allocatorIS2_EEED2Ev, symObjAddr: 0xD88, symBinAddr: 0x12FB0, symSize: 0x34 }
  - { offsetInCU: 0x8488, offset: 0x118971, size: 0x8, addend: 0x0, symName: __ZNKSt3__16vectorIN4grpc5SliceENS_9allocatorIS2_EEE20__throw_length_errorB7v160006Ev, symObjAddr: 0xAFC, symBinAddr: 0x12D24, symSize: 0x14 }
  - { offsetInCU: 0x84B0, offset: 0x118999, size: 0x8, addend: 0x0, symName: __ZNSt3__119__allocate_at_leastB7v160006INS_9allocatorIN4grpc5SliceEEEEENS_19__allocation_resultINS_16allocator_traitsIT_E7pointerEEERS7_m, symObjAddr: 0xB10, symBinAddr: 0x12D38, symSize: 0x34 }
  - { offsetInCU: 0x8543, offset: 0x118A2C, size: 0x8, addend: 0x0, symName: __ZNSt3__128__exception_guard_exceptionsINS_29_AllocatorDestroyRangeReverseINS_9allocatorIN4grpc5SliceEEENS_16reverse_iteratorIPS4_EEEEED2B7v160006Ev, symObjAddr: 0xC34, symBinAddr: 0x12E5C, symSize: 0x34 }
  - { offsetInCU: 0x8583, offset: 0x118A6C, size: 0x8, addend: 0x0, symName: __ZNKSt3__129_AllocatorDestroyRangeReverseINS_9allocatorIN4grpc5SliceEEENS_16reverse_iteratorIPS3_EEEclB7v160006Ev, symObjAddr: 0xC68, symBinAddr: 0x12E90, symSize: 0x74 }
  - { offsetInCU: 0x8767, offset: 0x118C50, size: 0x8, addend: 0x0, symName: __ZNSt3__114__split_bufferIN4grpc5SliceERNS_9allocatorIS2_EEE17__destruct_at_endB7v160006EPS2_, symObjAddr: 0xDBC, symBinAddr: 0x12FE4, symSize: 0xA4 }
  - { offsetInCU: 0x26, offset: 0x118D4B, size: 0x8, addend: 0x0, symName: __ZN4grpc25MakeChannelArgumentOptionERKNSt3__112basic_stringIcNS0_11char_traitsIcEENS0_9allocatorIcEEEES8_, symObjAddr: 0x0, symBinAddr: 0x13094, symSize: 0x98 }
  - { offsetInCU: 0x423B, offset: 0x11CF60, size: 0x8, addend: 0x0, symName: __ZN4grpc25MakeChannelArgumentOptionERKNSt3__112basic_stringIcNS0_11char_traitsIcEENS0_9allocatorIcEEEES8_, symObjAddr: 0x0, symBinAddr: 0x13094, symSize: 0x98 }
  - { offsetInCU: 0x450B, offset: 0x11D230, size: 0x8, addend: 0x0, symName: __ZN4grpc25MakeChannelArgumentOptionERKNSt3__112basic_stringIcNS0_11char_traitsIcEENS0_9allocatorIcEEEEi, symObjAddr: 0x98, symBinAddr: 0x1312C, symSize: 0x68 }
  - { offsetInCU: 0x6B5A, offset: 0x11F87F, size: 0x8, addend: 0x0, symName: __ZZN4grpc25MakeChannelArgumentOptionERKNSt3__112basic_stringIcNS0_11char_traitsIcEENS0_9allocatorIcEEEES8_EN12StringOptionD1Ev, symObjAddr: 0x100, symBinAddr: 0x13194, symSize: 0x40 }
  - { offsetInCU: 0x6E0B, offset: 0x11FB30, size: 0x8, addend: 0x0, symName: __ZZN4grpc25MakeChannelArgumentOptionERKNSt3__112basic_stringIcNS0_11char_traitsIcEENS0_9allocatorIcEEEES8_EN12StringOptionD0Ev, symObjAddr: 0x140, symBinAddr: 0x131D4, symSize: 0x40 }
  - { offsetInCU: 0x70C5, offset: 0x11FDEA, size: 0x8, addend: 0x0, symName: __ZZN4grpc25MakeChannelArgumentOptionERKNSt3__112basic_stringIcNS0_11char_traitsIcEENS0_9allocatorIcEEEES8_EN12StringOption15UpdateArgumentsEPNS_16ChannelArgumentsE, symObjAddr: 0x180, symBinAddr: 0x13214, symSize: 0x14 }
  - { offsetInCU: 0x70FF, offset: 0x11FE24, size: 0x8, addend: 0x0, symName: __ZZN4grpc25MakeChannelArgumentOptionERKNSt3__112basic_stringIcNS0_11char_traitsIcEENS0_9allocatorIcEEEES8_EN12StringOption13UpdatePluginsEPNS0_6vectorINS0_10unique_ptrINS_19ServerBuilderPluginENS0_14default_deleteISC_EEEENS4_ISF_EEEE, symObjAddr: 0x194, symBinAddr: 0x13228, symSize: 0x4 }
  - { offsetInCU: 0x714A, offset: 0x11FE6F, size: 0x8, addend: 0x0, symName: __ZZN4grpc25MakeChannelArgumentOptionERKNSt3__112basic_stringIcNS0_11char_traitsIcEENS0_9allocatorIcEEEEiEN9IntOptionD1Ev, symObjAddr: 0x198, symBinAddr: 0x1322C, symSize: 0x30 }
  - { offsetInCU: 0x72D0, offset: 0x11FFF5, size: 0x8, addend: 0x0, symName: __ZZN4grpc25MakeChannelArgumentOptionERKNSt3__112basic_stringIcNS0_11char_traitsIcEENS0_9allocatorIcEEEEiEN9IntOptionD0Ev, symObjAddr: 0x1C8, symBinAddr: 0x1325C, symSize: 0x30 }
  - { offsetInCU: 0x745F, offset: 0x120184, size: 0x8, addend: 0x0, symName: __ZZN4grpc25MakeChannelArgumentOptionERKNSt3__112basic_stringIcNS0_11char_traitsIcEENS0_9allocatorIcEEEEiEN9IntOption15UpdateArgumentsEPNS_16ChannelArgumentsE, symObjAddr: 0x1F8, symBinAddr: 0x1328C, symSize: 0x14 }
  - { offsetInCU: 0x7499, offset: 0x1201BE, size: 0x8, addend: 0x0, symName: __ZZN4grpc25MakeChannelArgumentOptionERKNSt3__112basic_stringIcNS0_11char_traitsIcEENS0_9allocatorIcEEEEiEN9IntOption13UpdatePluginsEPNS0_6vectorINS0_10unique_ptrINS_19ServerBuilderPluginENS0_14default_deleteISC_EEEENS4_ISF_EEEE, symObjAddr: 0x20C, symBinAddr: 0x132A0, symSize: 0x4 }
  - { offsetInCU: 0x5ACE, offset: 0x125CBB, size: 0x8, addend: 0x0, symName: __ZNSt3__119__allocate_at_leastB7v160006INS_9allocatorI8grpc_argEEEENS_19__allocation_resultINS_16allocator_traitsIT_E7pointerEEERS6_m, symObjAddr: 0x15F8, symBinAddr: 0x14630, symSize: 0x34 }
  - { offsetInCU: 0x5B73, offset: 0x125D60, size: 0x8, addend: 0x0, symName: __ZNSt3__110__list_impINS_12basic_stringIcNS_11char_traitsIcEENS_9allocatorIcEEEENS4_IS6_EEE4swapERS8_, symObjAddr: 0x162C, symBinAddr: 0x14664, symSize: 0x74 }
  - { offsetInCU: 0x67A7, offset: 0x126994, size: 0x8, addend: 0x0, symName: __ZN4grpc16ChannelArguments10SetPointerERKNSt3__112basic_stringIcNS1_11char_traitsIcEENS1_9allocatorIcEEEEPv, symObjAddr: 0x1268, symBinAddr: 0x144FC, symSize: 0xC }
  - { offsetInCU: 0x67CD, offset: 0x1269BA, size: 0x8, addend: 0x0, symName: __ZZN4grpc16ChannelArguments10SetPointerERKNSt3__112basic_stringIcNS1_11char_traitsIcEENS1_9allocatorIcEEEEPvE6vtable, symObjAddr: 0x1A98, symBinAddr: 0x60AB8, symSize: 0x0 }
  - { offsetInCU: 0x8B93, offset: 0x128D80, size: 0x8, addend: 0x0, symName: __ZN4grpc16ChannelArgumentsC2Ev, symObjAddr: 0x0, symBinAddr: 0x132A4, symSize: 0x130 }
  - { offsetInCU: 0x988F, offset: 0x129A7C, size: 0x8, addend: 0x0, symName: __ZN4grpc16ChannelArguments9SetStringERKNSt3__112basic_stringIcNS1_11char_traitsIcEENS1_9allocatorIcEEEES9_, symObjAddr: 0x130, symBinAddr: 0x133D4, symSize: 0x130 }
  - { offsetInCU: 0x9EAD, offset: 0x12A09A, size: 0x8, addend: 0x0, symName: __ZN4grpc16ChannelArgumentsC1Ev, symObjAddr: 0x260, symBinAddr: 0x13504, symSize: 0x4 }
  - { offsetInCU: 0x9EC1, offset: 0x12A0AE, size: 0x8, addend: 0x0, symName: __ZNSt3__110__list_impINS_12basic_stringIcNS_11char_traitsIcEENS_9allocatorIcEEEENS4_IS6_EEE5clearEv, symObjAddr: 0x12A8, symBinAddr: 0x1453C, symSize: 0x78 }
  - { offsetInCU: 0xA5C2, offset: 0x12A7AF, size: 0x8, addend: 0x0, symName: __ZNSt3__14listINS_12basic_stringIcNS_11char_traitsIcEENS_9allocatorIcEEEENS4_IS6_EEE9push_backERKS6_, symObjAddr: 0x11F8, symBinAddr: 0x1448C, symSize: 0x70 }
  - { offsetInCU: 0xA85E, offset: 0x12AA4B, size: 0x8, addend: 0x0, symName: __ZNKSt3__16vectorI8grpc_argNS_9allocatorIS1_EEE20__throw_length_errorB7v160006Ev, symObjAddr: 0x15E4, symBinAddr: 0x1461C, symSize: 0x14 }
  - { offsetInCU: 0xA886, offset: 0x12AA73, size: 0x8, addend: 0x0, symName: __ZNSt3__119__allocate_at_leastB7v160006INS_9allocatorI8grpc_argEEEENS_19__allocation_resultINS_16allocator_traitsIT_E7pointerEEERS6_m, symObjAddr: 0x15F8, symBinAddr: 0x14630, symSize: 0x34 }
  - { offsetInCU: 0xA892, offset: 0x12AA7F, size: 0x8, addend: 0x0, symName: __ZN4grpc16ChannelArgumentsC1Ev, symObjAddr: 0x260, symBinAddr: 0x13504, symSize: 0x4 }
  - { offsetInCU: 0xA8C0, offset: 0x12AAAD, size: 0x8, addend: 0x0, symName: __ZN4grpc16ChannelArgumentsC1Ev, symObjAddr: 0x260, symBinAddr: 0x13504, symSize: 0x4 }
  - { offsetInCU: 0xA9FE, offset: 0x12ABEB, size: 0x8, addend: 0x0, symName: __ZN4grpc16ChannelArgumentsC2ERKS0_, symObjAddr: 0x264, symBinAddr: 0x13508, symSize: 0x298 }
  - { offsetInCU: 0xB50D, offset: 0x12B6FA, size: 0x8, addend: 0x0, symName: __ZNSt3__14listINS_12basic_stringIcNS_11char_traitsIcEENS_9allocatorIcEEEENS4_IS6_EEEC2ERKS8_, symObjAddr: 0x157C, symBinAddr: 0x145B4, symSize: 0x68 }
  - { offsetInCU: 0xB694, offset: 0x12B881, size: 0x8, addend: 0x0, symName: __ZNSt3__16vectorI8grpc_argNS_9allocatorIS1_EEE7reserveEm, symObjAddr: 0x4FC, symBinAddr: 0x137A0, symSize: 0x9C }
  - { offsetInCU: 0xB9BC, offset: 0x12BBA9, size: 0x8, addend: 0x0, symName: __ZN4grpc16ChannelArgumentsC1ERKS0_, symObjAddr: 0x598, symBinAddr: 0x1383C, symSize: 0x4 }
  - { offsetInCU: 0xBA03, offset: 0x12BBF0, size: 0x8, addend: 0x0, symName: __ZN4grpc16ChannelArgumentsC1ERKS0_, symObjAddr: 0x598, symBinAddr: 0x1383C, symSize: 0x4 }
  - { offsetInCU: 0xBA3F, offset: 0x12BC2C, size: 0x8, addend: 0x0, symName: __ZN4grpc16ChannelArgumentsC1ERKS0_, symObjAddr: 0x598, symBinAddr: 0x1383C, symSize: 0x4 }
  - { offsetInCU: 0xBAC7, offset: 0x12BCB4, size: 0x8, addend: 0x0, symName: __ZN4grpc16ChannelArgumentsD2Ev, symObjAddr: 0x59C, symBinAddr: 0x13840, symSize: 0x88 }
  - { offsetInCU: 0xBE8A, offset: 0x12C077, size: 0x8, addend: 0x0, symName: __ZN4grpc16ChannelArgumentsD1Ev, symObjAddr: 0x634, symBinAddr: 0x138C8, symSize: 0x4 }
  - { offsetInCU: 0xBEB8, offset: 0x12C0A5, size: 0x8, addend: 0x0, symName: __ZN4grpc16ChannelArgumentsD1Ev, symObjAddr: 0x634, symBinAddr: 0x138C8, symSize: 0x4 }
  - { offsetInCU: 0xBF13, offset: 0x12C100, size: 0x8, addend: 0x0, symName: __ZN4grpc16ChannelArguments4SwapERS0_, symObjAddr: 0x638, symBinAddr: 0x138CC, symSize: 0x3C }
  - { offsetInCU: 0xBF4E, offset: 0x12C13B, size: 0x8, addend: 0x0, symName: __ZN4grpc16ChannelArguments4SwapERS0_, symObjAddr: 0x638, symBinAddr: 0x138CC, symSize: 0x3C }
  - { offsetInCU: 0xBF70, offset: 0x12C15D, size: 0x8, addend: 0x0, symName: __ZN4grpc16ChannelArguments4SwapERS0_, symObjAddr: 0x638, symBinAddr: 0x138CC, symSize: 0x3C }
  - { offsetInCU: 0xC035, offset: 0x12C222, size: 0x8, addend: 0x0, symName: __ZNSt3__110__list_impINS_12basic_stringIcNS_11char_traitsIcEENS_9allocatorIcEEEENS4_IS6_EEE4swapERS8_, symObjAddr: 0x162C, symBinAddr: 0x14664, symSize: 0x74 }
  - { offsetInCU: 0xC0CC, offset: 0x12C2B9, size: 0x8, addend: 0x0, symName: __ZN4grpc16ChannelArguments23SetCompressionAlgorithmE26grpc_compression_algorithm, symObjAddr: 0x674, symBinAddr: 0x13908, symSize: 0x74 }
  - { offsetInCU: 0xC3BC, offset: 0x12C5A9, size: 0x8, addend: 0x0, symName: __ZN4grpc16ChannelArguments6SetIntERKNSt3__112basic_stringIcNS1_11char_traitsIcEENS1_9allocatorIcEEEEi, symObjAddr: 0x6E8, symBinAddr: 0x1397C, symSize: 0x11C }
  - { offsetInCU: 0xC906, offset: 0x12CAF3, size: 0x8, addend: 0x0, symName: __ZN4grpc16ChannelArguments24SetGrpclbFallbackTimeoutEi, symObjAddr: 0x804, symBinAddr: 0x13A98, symSize: 0x74 }
  - { offsetInCU: 0xC91A, offset: 0x12CB07, size: 0x8, addend: 0x0, symName: __ZN4grpc16ChannelArguments24SetGrpclbFallbackTimeoutEi, symObjAddr: 0x804, symBinAddr: 0x13A98, symSize: 0x74 }
  - { offsetInCU: 0xCDD3, offset: 0x12CFC0, size: 0x8, addend: 0x0, symName: __ZN4grpc16ChannelArguments16SetSocketMutatorEP19grpc_socket_mutator, symObjAddr: 0x878, symBinAddr: 0x13B0C, symSize: 0x354 }
  - { offsetInCU: 0xDCCF, offset: 0x12DEBC, size: 0x8, addend: 0x0, symName: __ZN4grpc16ChannelArguments18SetUserAgentPrefixERKNSt3__112basic_stringIcNS1_11char_traitsIcEENS1_9allocatorIcEEEE, symObjAddr: 0xBCC, symBinAddr: 0x13E60, symSize: 0x2A0 }
  - { offsetInCU: 0xEA42, offset: 0x12EC2F, size: 0x8, addend: 0x0, symName: __ZNSt3__112basic_stringIcNS_11char_traitsIcEENS_9allocatorIcEEEC2B7v160006ENS_24__uninitialized_size_tagEmRKS4_, symObjAddr: 0x16A0, symBinAddr: 0x146D8, symSize: 0x74 }
  - { offsetInCU: 0xEBE1, offset: 0x12EDCE, size: 0x8, addend: 0x0, symName: __ZN4grpc16ChannelArguments18SetUserAgentPrefixERKNSt3__112basic_stringIcNS1_11char_traitsIcEENS1_9allocatorIcEEEE.cold.1, symObjAddr: 0x1714, symBinAddr: 0x48AF0, symSize: 0x38 }
  - { offsetInCU: 0xEBF5, offset: 0x12EDE2, size: 0x8, addend: 0x0, symName: __ZN4grpc16ChannelArguments18SetUserAgentPrefixERKNSt3__112basic_stringIcNS1_11char_traitsIcEENS1_9allocatorIcEEEE.cold.1, symObjAddr: 0x1714, symBinAddr: 0x48AF0, symSize: 0x38 }
  - { offsetInCU: 0xEC28, offset: 0x12EE15, size: 0x8, addend: 0x0, symName: __ZN4grpc16ChannelArguments16SetResourceQuotaERKNS_13ResourceQuotaE, symObjAddr: 0xE6C, symBinAddr: 0x14100, symSize: 0x80 }
  - { offsetInCU: 0xEF4F, offset: 0x12F13C, size: 0x8, addend: 0x0, symName: __ZN4grpc16ChannelArguments20SetPointerWithVtableERKNSt3__112basic_stringIcNS1_11char_traitsIcEENS1_9allocatorIcEEEEPvPK23grpc_arg_pointer_vtable, symObjAddr: 0xEEC, symBinAddr: 0x14180, symSize: 0x13C }
  - { offsetInCU: 0xF4BD, offset: 0x12F6AA, size: 0x8, addend: 0x0, symName: __ZN4grpc16ChannelArguments24SetMaxReceiveMessageSizeEi, symObjAddr: 0x1028, symBinAddr: 0x142BC, symSize: 0x74 }
  - { offsetInCU: 0xF4D1, offset: 0x12F6BE, size: 0x8, addend: 0x0, symName: __ZN4grpc16ChannelArguments24SetMaxReceiveMessageSizeEi, symObjAddr: 0x1028, symBinAddr: 0x142BC, symSize: 0x74 }
  - { offsetInCU: 0xF7C1, offset: 0x12F9AE, size: 0x8, addend: 0x0, symName: __ZN4grpc16ChannelArguments21SetMaxSendMessageSizeEi, symObjAddr: 0x109C, symBinAddr: 0x14330, symSize: 0x74 }
  - { offsetInCU: 0xFAB1, offset: 0x12FC9E, size: 0x8, addend: 0x0, symName: __ZN4grpc16ChannelArguments26SetLoadBalancingPolicyNameERKNSt3__112basic_stringIcNS1_11char_traitsIcEENS1_9allocatorIcEEEE, symObjAddr: 0x1110, symBinAddr: 0x143A4, symSize: 0x74 }
  - { offsetInCU: 0xFDA1, offset: 0x12FF8E, size: 0x8, addend: 0x0, symName: __ZN4grpc16ChannelArguments20SetServiceConfigJSONERKNSt3__112basic_stringIcNS1_11char_traitsIcEENS1_9allocatorIcEEEE, symObjAddr: 0x1184, symBinAddr: 0x14418, symSize: 0x74 }
  - { offsetInCU: 0x10205, offset: 0x1303F2, size: 0x8, addend: 0x0, symName: __ZN4grpc16ChannelArguments20PointerVtableMembers4CopyEPv, symObjAddr: 0x1274, symBinAddr: 0x14508, symSize: 0x4 }
  - { offsetInCU: 0x10228, offset: 0x130415, size: 0x8, addend: 0x0, symName: __ZN4grpc16ChannelArguments20PointerVtableMembers7DestroyEPv, symObjAddr: 0x1278, symBinAddr: 0x1450C, symSize: 0x4 }
  - { offsetInCU: 0x10247, offset: 0x130434, size: 0x8, addend: 0x0, symName: __ZN4grpc16ChannelArguments20PointerVtableMembers7CompareEPvS2_, symObjAddr: 0x127C, symBinAddr: 0x14510, symSize: 0x10 }
  - { offsetInCU: 0x10279, offset: 0x130466, size: 0x8, addend: 0x0, symName: __ZNK4grpc16ChannelArguments14SetChannelArgsEP17grpc_channel_args, symObjAddr: 0x128C, symBinAddr: 0x14520, symSize: 0x1C }
  - { offsetInCU: 0x102B1, offset: 0x13049E, size: 0x8, addend: 0x0, symName: __ZNK4grpc16ChannelArguments14SetChannelArgsEP17grpc_channel_args, symObjAddr: 0x128C, symBinAddr: 0x14520, symSize: 0x1C }
  - { offsetInCU: 0x44, offset: 0x1308D1, size: 0x8, addend: 0x0, symName: __ZN4grpcL17g_gli_initializerE, symObjAddr: 0x78E90, symBinAddr: 0x68BF9, symSize: 0x0 }
  - { offsetInCU: 0x9F8, offset: 0x131285, size: 0x8, addend: 0x0, symName: __ZN4grpc12experimental29ChannelResetConnectionBackoffEPNS_7ChannelE, symObjAddr: 0x410, symBinAddr: 0x14A34, symSize: 0x8 }
  - { offsetInCU: 0x1252, offset: 0x131ADF, size: 0x8, addend: 0x0, symName: __ZN4grpc12_GLOBAL__N_119GetChannelInfoFieldEP12grpc_channelP17grpc_channel_infoPPPc, symObjAddr: 0x364, symBinAddr: 0x14988, symSize: 0x80 }
  - { offsetInCU: 0xA614, offset: 0x13AEA1, size: 0x8, addend: 0x0, symName: __ZNSt3__119__allocate_at_leastB7v160006INS_9allocatorINS_10unique_ptrIN4grpc12experimental11InterceptorENS_14default_deleteIS5_EEEEEEEENS_19__allocation_resultINS_16allocator_traitsIT_E7pointerEEERSC_m, symObjAddr: 0x1154, symBinAddr: 0x154D4, symSize: 0x34 }
  - { offsetInCU: 0xA6B8, offset: 0x13AF45, size: 0x8, addend: 0x0, symName: __ZNSt3__114__split_bufferINS_10unique_ptrIN4grpc12experimental11InterceptorENS_14default_deleteIS4_EEEERNS_9allocatorIS7_EEED2Ev, symObjAddr: 0x1188, symBinAddr: 0x15508, symSize: 0x60 }
  - { offsetInCU: 0xA6CD, offset: 0x13AF5A, size: 0x8, addend: 0x0, symName: __ZNSt3__120__throw_bad_weak_ptrB7v160006Ev, symObjAddr: 0x15DC, symBinAddr: 0x1595C, symSize: 0x34 }
  - { offsetInCU: 0xD56B, offset: 0x13DDF8, size: 0x8, addend: 0x0, symName: __ZN4grpc7ChannelC2ERKNSt3__112basic_stringIcNS1_11char_traitsIcEENS1_9allocatorIcEEEEP12grpc_channelNS1_6vectorINS1_10unique_ptrINS_12experimental33ClientInterceptorFactoryInterfaceENS1_14default_deleteISF_EEEENS5_ISI_EEEE, symObjAddr: 0x0, symBinAddr: 0x1474C, symSize: 0x11C }
  - { offsetInCU: 0xD90A, offset: 0x13E197, size: 0x8, addend: 0x0, symName: __ZNSt3__16vectorINS_10unique_ptrIN4grpc12experimental33ClientInterceptorFactoryInterfaceENS_14default_deleteIS4_EEEENS_9allocatorIS7_EEE13__vdeallocateEv, symObjAddr: 0x152C, symBinAddr: 0x158AC, symSize: 0x70 }
  - { offsetInCU: 0xDBAC, offset: 0x13E439, size: 0x8, addend: 0x0, symName: __ZN4grpc7ChannelC1ERKNSt3__112basic_stringIcNS1_11char_traitsIcEENS1_9allocatorIcEEEEP12grpc_channelNS1_6vectorINS1_10unique_ptrINS_12experimental33ClientInterceptorFactoryInterfaceENS1_14default_deleteISF_EEEENS5_ISI_EEEE, symObjAddr: 0x238, symBinAddr: 0x14868, symSize: 0x4 }
  - { offsetInCU: 0xDC05, offset: 0x13E492, size: 0x8, addend: 0x0, symName: __ZN4grpc7ChannelC1ERKNSt3__112basic_stringIcNS1_11char_traitsIcEENS1_9allocatorIcEEEEP12grpc_channelNS1_6vectorINS1_10unique_ptrINS_12experimental33ClientInterceptorFactoryInterfaceENS1_14default_deleteISF_EEEENS5_ISI_EEEE, symObjAddr: 0x238, symBinAddr: 0x14868, symSize: 0x4 }
  - { offsetInCU: 0xDCB1, offset: 0x13E53E, size: 0x8, addend: 0x0, symName: __ZN4grpc7ChannelD2Ev, symObjAddr: 0x23C, symBinAddr: 0x1486C, symSize: 0x9C }
  - { offsetInCU: 0xDF91, offset: 0x13E81E, size: 0x8, addend: 0x0, symName: __ZNSt3__16vectorINS_10unique_ptrIN4grpc12experimental33ClientInterceptorFactoryInterfaceENS_14default_deleteIS4_EEEENS_9allocatorIS7_EEED2B7v160006Ev, symObjAddr: 0x1478, symBinAddr: 0x157F8, symSize: 0x38 }
  - { offsetInCU: 0xE01F, offset: 0x13E8AC, size: 0x8, addend: 0x0, symName: __ZN4grpc7ChannelD1Ev, symObjAddr: 0x2E4, symBinAddr: 0x14908, symSize: 0x4 }
  - { offsetInCU: 0xE042, offset: 0x13E8CF, size: 0x8, addend: 0x0, symName: __ZN4grpc7ChannelD1Ev, symObjAddr: 0x2E4, symBinAddr: 0x14908, symSize: 0x4 }
  - { offsetInCU: 0xE077, offset: 0x13E904, size: 0x8, addend: 0x0, symName: __ZThn8_N4grpc7ChannelD1Ev, symObjAddr: 0x2E8, symBinAddr: 0x1490C, symSize: 0x8 }
  - { offsetInCU: 0xE0B8, offset: 0x13E945, size: 0x8, addend: 0x0, symName: __ZThn32_N4grpc7ChannelD1Ev, symObjAddr: 0x2F0, symBinAddr: 0x14914, symSize: 0x8 }
  - { offsetInCU: 0xE0F9, offset: 0x13E986, size: 0x8, addend: 0x0, symName: __ZN4grpc7ChannelD0Ev, symObjAddr: 0x2F8, symBinAddr: 0x1491C, symSize: 0x14 }
  - { offsetInCU: 0xE168, offset: 0x13E9F5, size: 0x8, addend: 0x0, symName: __ZThn8_N4grpc7ChannelD0Ev, symObjAddr: 0x30C, symBinAddr: 0x14930, symSize: 0x18 }
  - { offsetInCU: 0xE1C5, offset: 0x13EA52, size: 0x8, addend: 0x0, symName: __ZThn32_N4grpc7ChannelD0Ev, symObjAddr: 0x324, symBinAddr: 0x14948, symSize: 0x18 }
  - { offsetInCU: 0xE222, offset: 0x13EAAF, size: 0x8, addend: 0x0, symName: __ZNK4grpc7Channel26GetLoadBalancingPolicyNameEv, symObjAddr: 0x33C, symBinAddr: 0x14960, symSize: 0x28 }
  - { offsetInCU: 0xE4FA, offset: 0x13ED87, size: 0x8, addend: 0x0, symName: __ZNK4grpc7Channel20GetServiceConfigJSONEv, symObjAddr: 0x3E4, symBinAddr: 0x14A08, symSize: 0x2C }
  - { offsetInCU: 0xE7ED, offset: 0x13F07A, size: 0x8, addend: 0x0, symName: __ZN4grpc7Channel18CreateCallInternalERKNS_8internal9RpcMethodEPNS_13ClientContextEPNS_15CompletionQueueEm, symObjAddr: 0x418, symBinAddr: 0x14A3C, symSize: 0x29C }
  - { offsetInCU: 0xF05C, offset: 0x13F8E9, size: 0x8, addend: 0x0, symName: __ZN4grpc13ClientContext19set_client_rpc_infoEPKcS2_NS_8internal9RpcMethod7RpcTypeEPNS_16ChannelInterfaceERKNSt3__16vectorINS8_10unique_ptrINS_12experimental33ClientInterceptorFactoryInterfaceENS8_14default_deleteISC_EEEENS8_9allocatorISF_EEEEm, symObjAddr: 0x6B4, symBinAddr: 0x14CD8, symSize: 0xA8 }
  - { offsetInCU: 0xF278, offset: 0x13FB05, size: 0x8, addend: 0x0, symName: __ZNSt3__110shared_ptrIN4grpc7ChannelEEC2B7v160006IS2_vEERKNS_8weak_ptrIT_EE, symObjAddr: 0x159C, symBinAddr: 0x1591C, symSize: 0x40 }
  - { offsetInCU: 0xF2B5, offset: 0x13FB42, size: 0x8, addend: 0x0, symName: __ZNSt3__120__throw_bad_weak_ptrB7v160006Ev, symObjAddr: 0x15DC, symBinAddr: 0x1595C, symSize: 0x34 }
  - { offsetInCU: 0xF2CC, offset: 0x13FB59, size: 0x8, addend: 0x0, symName: __ZNSt3__110shared_ptrIN4grpc7ChannelEED2B7v160006Ev, symObjAddr: 0x1420, symBinAddr: 0x157A0, symSize: 0x58 }
  - { offsetInCU: 0xF4C9, offset: 0x13FD56, size: 0x8, addend: 0x0, symName: __ZNSt3__16vectorINS_10unique_ptrIN4grpc12experimental11InterceptorENS_14default_deleteIS4_EEEENS_9allocatorIS7_EEE13__vdeallocateEv, symObjAddr: 0x101C, symBinAddr: 0x1539C, symSize: 0x70 }
  - { offsetInCU: 0xF733, offset: 0x13FFC0, size: 0x8, addend: 0x0, symName: __ZNSt3__16vectorINS_10unique_ptrIN4grpc12experimental11InterceptorENS_14default_deleteIS4_EEEENS_9allocatorIS7_EEED2B7v160006Ev, symObjAddr: 0x108C, symBinAddr: 0x1540C, symSize: 0x38 }
  - { offsetInCU: 0xF7C1, offset: 0x14004E, size: 0x8, addend: 0x0, symName: __ZN4grpc12experimental13ClientRpcInfo20RegisterInterceptorsERKNSt3__16vectorINS2_10unique_ptrINS0_33ClientInterceptorFactoryInterfaceENS2_14default_deleteIS5_EEEENS2_9allocatorIS8_EEEEm, symObjAddr: 0xD74, symBinAddr: 0x150F4, symSize: 0x2A8 }
  - { offsetInCU: 0x10467, offset: 0x140CF4, size: 0x8, addend: 0x0, symName: __ZN4grpc7Channel10CreateCallERKNS_8internal9RpcMethodEPNS_13ClientContextEPNS_15CompletionQueueE, symObjAddr: 0x75C, symBinAddr: 0x14D80, symSize: 0x8 }
  - { offsetInCU: 0x104F5, offset: 0x140D82, size: 0x8, addend: 0x0, symName: __ZN4grpc7Channel16PerformOpsOnCallEPNS_8internal18CallOpSetInterfaceEPNS1_4CallE, symObjAddr: 0x764, symBinAddr: 0x14D88, symSize: 0x14 }
  - { offsetInCU: 0x10575, offset: 0x140E02, size: 0x8, addend: 0x0, symName: __ZThn8_N4grpc7Channel16PerformOpsOnCallEPNS_8internal18CallOpSetInterfaceEPNS1_4CallE, symObjAddr: 0x778, symBinAddr: 0x14D9C, symSize: 0x14 }
  - { offsetInCU: 0x105FB, offset: 0x140E88, size: 0x8, addend: 0x0, symName: __ZN4grpc7Channel14RegisterMethodEPKc, symObjAddr: 0x78C, symBinAddr: 0x14DB0, symSize: 0x3C }
  - { offsetInCU: 0x1074A, offset: 0x140FD7, size: 0x8, addend: 0x0, symName: __ZN4grpc7Channel8GetStateEb, symObjAddr: 0x7C8, symBinAddr: 0x14DEC, symSize: 0x8 }
  - { offsetInCU: 0x10809, offset: 0x141096, size: 0x8, addend: 0x0, symName: __ZN4grpc7Channel23NotifyOnStateChangeImplE23grpc_connectivity_state12gpr_timespecPNS_15CompletionQueueEPv, symObjAddr: 0x7D0, symBinAddr: 0x14DF4, symSize: 0x6C }
  - { offsetInCU: 0x109DD, offset: 0x14126A, size: 0x8, addend: 0x0, symName: __ZN4grpc7Channel22WaitForStateChangeImplE23grpc_connectivity_state12gpr_timespec, symObjAddr: 0x83C, symBinAddr: 0x14E60, symSize: 0x14C }
  - { offsetInCU: 0x10C30, offset: 0x1414BD, size: 0x8, addend: 0x0, symName: __ZN4grpc15CompletionQueueC2ERK32grpc_completion_queue_attributes, symObjAddr: 0x1328, symBinAddr: 0x156A8, symSize: 0xF8 }
  - { offsetInCU: 0x10EEA, offset: 0x141777, size: 0x8, addend: 0x0, symName: __ZN4grpc15CompletionQueueD2Ev, symObjAddr: 0x1210, symBinAddr: 0x15590, symSize: 0x70 }
  - { offsetInCU: 0x11006, offset: 0x141893, size: 0x8, addend: 0x0, symName: __ZN4grpc15CompletionQueueD1Ev, symObjAddr: 0x988, symBinAddr: 0x14FAC, symSize: 0x4 }
  - { offsetInCU: 0x11029, offset: 0x1418B6, size: 0x8, addend: 0x0, symName: __ZN4grpc15CompletionQueueD1Ev, symObjAddr: 0x988, symBinAddr: 0x14FAC, symSize: 0x4 }
  - { offsetInCU: 0x11199, offset: 0x141A26, size: 0x8, addend: 0x0, symName: __ZN4grpc7Channel10CallbackCQEv, symObjAddr: 0x98C, symBinAddr: 0x14FB0, symSize: 0x124 }
  - { offsetInCU: 0x11480, offset: 0x141D0D, size: 0x8, addend: 0x0, symName: __ZN4grpc16ChannelInterfaceD1Ev, symObjAddr: 0xBE0, symBinAddr: 0x48B28, symSize: 0x4 }
  - { offsetInCU: 0x114A9, offset: 0x141D36, size: 0x8, addend: 0x0, symName: __ZN4grpc16ChannelInterfaceD0Ev, symObjAddr: 0xBE4, symBinAddr: 0x48B2C, symSize: 0x4 }
  - { offsetInCU: 0x11506, offset: 0x141D93, size: 0x8, addend: 0x0, symName: __ZN4grpc16ChannelInterface18CreateCallInternalERKNS_8internal9RpcMethodEPNS_13ClientContextEPNS_15CompletionQueueEm, symObjAddr: 0xBE8, symBinAddr: 0x150D4, symSize: 0x18 }
  - { offsetInCU: 0x11555, offset: 0x141DE2, size: 0x8, addend: 0x0, symName: __ZN4grpc16ChannelInterface18CreateCallInternalERKNS_8internal9RpcMethodEPNS_13ClientContextEPNS_15CompletionQueueEm, symObjAddr: 0xBE8, symBinAddr: 0x150D4, symSize: 0x18 }
  - { offsetInCU: 0x11570, offset: 0x141DFD, size: 0x8, addend: 0x0, symName: __ZN4grpc16ChannelInterface18CreateCallInternalERKNS_8internal9RpcMethodEPNS_13ClientContextEPNS_15CompletionQueueEm, symObjAddr: 0xBE8, symBinAddr: 0x150D4, symSize: 0x18 }
  - { offsetInCU: 0x1158B, offset: 0x141E18, size: 0x8, addend: 0x0, symName: __ZN4grpc16ChannelInterface10CallbackCQEv, symObjAddr: 0xC00, symBinAddr: 0x150EC, symSize: 0x8 }
  - { offsetInCU: 0x115B1, offset: 0x141E3E, size: 0x8, addend: 0x0, symName: __ZN4grpc8internal8CallHookD1Ev, symObjAddr: 0xC08, symBinAddr: 0x48B30, symSize: 0x4 }
  - { offsetInCU: 0x115DA, offset: 0x141E67, size: 0x8, addend: 0x0, symName: __ZN4grpc8internal8CallHookD0Ev, symObjAddr: 0xC0C, symBinAddr: 0x48B34, symSize: 0x4 }
  - { offsetInCU: 0x11E2D, offset: 0x1426BA, size: 0x8, addend: 0x0, symName: __ZNSt3__114__split_bufferINS_10unique_ptrIN4grpc12experimental11InterceptorENS_14default_deleteIS4_EEEERNS_9allocatorIS7_EEED2Ev, symObjAddr: 0x1188, symBinAddr: 0x15508, symSize: 0x60 }
  - { offsetInCU: 0x1201C, offset: 0x1428A9, size: 0x8, addend: 0x0, symName: __ZNKSt3__16vectorINS_10unique_ptrIN4grpc12experimental11InterceptorENS_14default_deleteIS4_EEEENS_9allocatorIS7_EEE20__throw_length_errorB7v160006Ev, symObjAddr: 0x1140, symBinAddr: 0x154C0, symSize: 0x14 }
  - { offsetInCU: 0x12044, offset: 0x1428D1, size: 0x8, addend: 0x0, symName: __ZNSt3__119__allocate_at_leastB7v160006INS_9allocatorINS_10unique_ptrIN4grpc12experimental11InterceptorENS_14default_deleteIS5_EEEEEEEENS_19__allocation_resultINS_16allocator_traitsIT_E7pointerEEERSC_m, symObjAddr: 0x1154, symBinAddr: 0x154D4, symSize: 0x34 }
  - { offsetInCU: 0x121DF, offset: 0x142A6C, size: 0x8, addend: 0x0, symName: __ZNSt3__16vectorINS_10unique_ptrIN4grpc12experimental11InterceptorENS_14default_deleteIS4_EEEENS_9allocatorIS7_EEE16__destroy_vectorclB7v160006Ev, symObjAddr: 0x10C4, symBinAddr: 0x15444, symSize: 0x7C }
  - { offsetInCU: 0x1247B, offset: 0x142D08, size: 0x8, addend: 0x0, symName: __ZN4grpc12_GLOBAL__N_18TagSaverD1Ev, symObjAddr: 0x11E8, symBinAddr: 0x15568, symSize: 0x4 }
  - { offsetInCU: 0x124A4, offset: 0x142D31, size: 0x8, addend: 0x0, symName: __ZN4grpc12_GLOBAL__N_18TagSaverD0Ev, symObjAddr: 0x11EC, symBinAddr: 0x1556C, symSize: 0x4 }
  - { offsetInCU: 0x124CD, offset: 0x142D5A, size: 0x8, addend: 0x0, symName: __ZN4grpc12_GLOBAL__N_18TagSaver14FinalizeResultEPPvPb, symObjAddr: 0x11F0, symBinAddr: 0x15570, symSize: 0x20 }
  - { offsetInCU: 0x1256B, offset: 0x142DF8, size: 0x8, addend: 0x0, symName: __ZNSt3__110__list_impIPKN4grpc6ServerENS_9allocatorIS4_EEE5clearEv, symObjAddr: 0x1294, symBinAddr: 0x15614, symSize: 0x60 }
  - { offsetInCU: 0x12718, offset: 0x142FA5, size: 0x8, addend: 0x0, symName: __ZN4grpc15CompletionQueueD0Ev, symObjAddr: 0x1280, symBinAddr: 0x15600, symSize: 0x14 }
  - { offsetInCU: 0x12815, offset: 0x1430A2, size: 0x8, addend: 0x0, symName: __ZN4grpc12_GLOBAL__N_116ShutdownCallback3RunEP29grpc_completion_queue_functori, symObjAddr: 0x12F4, symBinAddr: 0x15674, symSize: 0x34 }
  - { offsetInCU: 0x12A10, offset: 0x14329D, size: 0x8, addend: 0x0, symName: __ZNSt3__16vectorINS_10unique_ptrIN4grpc12experimental33ClientInterceptorFactoryInterfaceENS_14default_deleteIS4_EEEENS_9allocatorIS7_EEE16__destroy_vectorclB7v160006Ev, symObjAddr: 0x14B0, symBinAddr: 0x15830, symSize: 0x7C }
  - { offsetInCU: 0x54, offset: 0x14370D, size: 0x8, addend: 0x0, symName: __ZN12_GLOBAL__N_114g_factory_onceE, symObjAddr: 0x6C0, symBinAddr: 0x68B90, symSize: 0x0 }
  - { offsetInCU: 0x6D, offset: 0x143726, size: 0x8, addend: 0x0, symName: __ZN12_GLOBAL__N_19g_factoryE, symObjAddr: 0xB7B88, symBinAddr: 0x68C00, symSize: 0x0 }
  - { offsetInCU: 0x7A, offset: 0x143733, size: 0x8, addend: 0x0, symName: __ZN12_GLOBAL__N_111FactoryInitEv, symObjAddr: 0x364, symBinAddr: 0x15CFC, symSize: 0x30 }
  - { offsetInCU: 0x105B2, offset: 0x153C6B, size: 0x8, addend: 0x0, symName: __ZN4grpc8internal39CreateDirectBinderChannelImplForTestingENSt3__110unique_ptrIN11grpc_binder6BinderENS1_14default_deleteIS4_EEEEPK17grpc_channel_argsNS1_10shared_ptrINS_12experimental6binder14SecurityPolicyEEE, symObjAddr: 0x0, symBinAddr: 0x1599C, symSize: 0x204 }
  - { offsetInCU: 0x10BEE, offset: 0x1542A7, size: 0x8, addend: 0x0, symName: __ZN4grpc8internal29CreateClientBinderChannelImplEPK17grpc_channel_args, symObjAddr: 0x208, symBinAddr: 0x15BA0, symSize: 0x15C }
  - { offsetInCU: 0x118, offset: 0x15547C, size: 0x8, addend: 0x0, symName: '__ZN4absl12lts_2021110219functional_internal12InvokeObjectIZN4grpc13MetadataBatch11AddMetadataERKNSt3__112basic_stringIcNS5_11char_traitsIcEENS5_9allocatorIcEEEESD_E3$_0vJNS0_11string_viewERKN9grpc_core5SliceEEEET0_NS1_7VoidPtrEDpNS1_8ForwardTIT1_E4typeE', symObjAddr: 0x3088, symBinAddr: 0x160B4, symSize: 0x12C }
  - { offsetInCU: 0xBCAE, offset: 0x161012, size: 0x8, addend: 0x0, symName: __ZN4grpc8internal21RegisterChannelFilterE23grpc_channel_stack_typeiNSt3__18functionIFbRK17grpc_channel_argsEEEPK19grpc_channel_filter, symObjAddr: 0x2A8, symBinAddr: 0x15E54, symSize: 0x238 }
  - { offsetInCU: 0xCB81, offset: 0x161EE5, size: 0x8, addend: 0x0, symName: __ZN4grpc13MetadataBatch11AddMetadataERKNSt3__112basic_stringIcNS1_11char_traitsIcEENS1_9allocatorIcEEEES9_, symObjAddr: 0x0, symBinAddr: 0x15D2C, symSize: 0xF8 }
  - { offsetInCU: 0x10235, offset: 0x165599, size: 0x8, addend: 0x0, symName: __ZN4grpc11ChannelData16StartTransportOpEP20grpc_channel_elementPNS_11TransportOpE, symObjAddr: 0x278, symBinAddr: 0x15E24, symSize: 0xC }
  - { offsetInCU: 0x102C2, offset: 0x165626, size: 0x8, addend: 0x0, symName: __ZN4grpc11ChannelData7GetInfoEP20grpc_channel_elementPK17grpc_channel_info, symObjAddr: 0x284, symBinAddr: 0x15E30, symSize: 0xC }
  - { offsetInCU: 0x1038A, offset: 0x1656EE, size: 0x8, addend: 0x0, symName: __ZN4grpc8CallData27StartTransportStreamOpBatchEP17grpc_call_elementPNS_22TransportStreamOpBatchE, symObjAddr: 0x290, symBinAddr: 0x15E3C, symSize: 0xC }
  - { offsetInCU: 0x10417, offset: 0x16577B, size: 0x8, addend: 0x0, symName: __ZN4grpc8CallData22SetPollsetOrPollsetSetEP17grpc_call_elementP19grpc_polling_entity, symObjAddr: 0x29C, symBinAddr: 0x15E48, symSize: 0xC }
  - { offsetInCU: 0x10BE0, offset: 0x165F44, size: 0x8, addend: 0x0, symName: __ZNSt3__110__function12__value_funcIFbRK17grpc_channel_argsEEC2B7v160006ERKS6_, symObjAddr: 0x31B4, symBinAddr: 0x161E0, symSize: 0x64 }
  - { offsetInCU: 0x10C2D, offset: 0x165F91, size: 0x8, addend: 0x0, symName: __ZNSt3__110__function12__value_funcIFbRK17grpc_channel_argsEEC2B7v160006EOS6_, symObjAddr: 0x35D0, symBinAddr: 0x165FC, symSize: 0x64 }
  - { offsetInCU: 0x10C7B, offset: 0x165FDF, size: 0x8, addend: 0x0, symName: __ZN4grpc11ChannelDataD1Ev, symObjAddr: 0x4E0, symBinAddr: 0x1608C, symSize: 0x4 }
  - { offsetInCU: 0x10CA4, offset: 0x166008, size: 0x8, addend: 0x0, symName: __ZN4grpc11ChannelDataD0Ev, symObjAddr: 0x4E4, symBinAddr: 0x16090, symSize: 0x4 }
  - { offsetInCU: 0x10CCD, offset: 0x166031, size: 0x8, addend: 0x0, symName: __ZN4grpc11ChannelData4InitEP20grpc_channel_elementP25grpc_channel_element_args, symObjAddr: 0x4E8, symBinAddr: 0x16094, symSize: 0x8 }
  - { offsetInCU: 0x10D07, offset: 0x16606B, size: 0x8, addend: 0x0, symName: __ZN4grpc11ChannelData7DestroyEP20grpc_channel_element, symObjAddr: 0x4F0, symBinAddr: 0x1609C, symSize: 0x4 }
  - { offsetInCU: 0x10D36, offset: 0x16609A, size: 0x8, addend: 0x0, symName: __ZN4grpc8CallDataD1Ev, symObjAddr: 0x4F4, symBinAddr: 0x160A0, symSize: 0x4 }
  - { offsetInCU: 0x10D5F, offset: 0x1660C3, size: 0x8, addend: 0x0, symName: __ZN4grpc8CallDataD0Ev, symObjAddr: 0x4F8, symBinAddr: 0x160A4, symSize: 0x4 }
  - { offsetInCU: 0x10D88, offset: 0x1660EC, size: 0x8, addend: 0x0, symName: __ZN4grpc8CallData4InitEP17grpc_call_elementPK22grpc_call_element_args, symObjAddr: 0x4FC, symBinAddr: 0x160A8, symSize: 0x8 }
  - { offsetInCU: 0x10DC2, offset: 0x166126, size: 0x8, addend: 0x0, symName: __ZN4grpc8CallData7DestroyEP17grpc_call_elementPK20grpc_call_final_infoP12grpc_closure, symObjAddr: 0x504, symBinAddr: 0x160B0, symSize: 0x4 }
  - { offsetInCU: 0x1ABA4, offset: 0x16FF08, size: 0x8, addend: 0x0, symName: '__ZN4absl12lts_2021110219functional_internal12InvokeObjectIZN4grpc13MetadataBatch11AddMetadataERKNSt3__112basic_stringIcNS5_11char_traitsIcEENS5_9allocatorIcEEEESD_E3$_0vJNS0_11string_viewERKN9grpc_core5SliceEEEET0_NS1_7VoidPtrEDpNS1_8ForwardTIT1_E4typeE', symObjAddr: 0x3088, symBinAddr: 0x160B4, symSize: 0x12C }
  - { offsetInCU: 0x1AE23, offset: 0x170187, size: 0x8, addend: 0x0, symName: '__ZNSt3__110__function6__funcIZN4grpc8internal21RegisterChannelFilterE23grpc_channel_stack_typeiNS_8functionIFbRK17grpc_channel_argsEEEPK19grpc_channel_filterE3$_2NS_9allocatorISE_EEFvPN9grpc_core17CoreConfiguration7BuilderEEED1Ev', symObjAddr: 0x3218, symBinAddr: 0x16244, symSize: 0x5C }
  - { offsetInCU: 0x1B021, offset: 0x170385, size: 0x8, addend: 0x0, symName: '__ZNSt3__110__function6__funcIZN4grpc8internal21RegisterChannelFilterE23grpc_channel_stack_typeiNS_8functionIFbRK17grpc_channel_argsEEEPK19grpc_channel_filterE3$_2NS_9allocatorISE_EEFvPN9grpc_core17CoreConfiguration7BuilderEEED0Ev', symObjAddr: 0x3274, symBinAddr: 0x162A0, symSize: 0x5C }
  - { offsetInCU: 0x1B546, offset: 0x1708AA, size: 0x8, addend: 0x0, symName: '__ZNKSt3__110__function6__funcIZN4grpc8internal21RegisterChannelFilterE23grpc_channel_stack_typeiNS_8functionIFbRK17grpc_channel_argsEEEPK19grpc_channel_filterE3$_2NS_9allocatorISE_EEFvPN9grpc_core17CoreConfiguration7BuilderEEE7__cloneEv', symObjAddr: 0x32D0, symBinAddr: 0x162FC, symSize: 0x60 }
  - { offsetInCU: 0x1BA7B, offset: 0x170DDF, size: 0x8, addend: 0x0, symName: '__ZNKSt3__110__function6__funcIZN4grpc8internal21RegisterChannelFilterE23grpc_channel_stack_typeiNS_8functionIFbRK17grpc_channel_argsEEEPK19grpc_channel_filterE3$_2NS_9allocatorISE_EEFvPN9grpc_core17CoreConfiguration7BuilderEEE7__cloneEPNS0_6__baseISL_EE', symObjAddr: 0x3330, symBinAddr: 0x1635C, symSize: 0x48 }
  - { offsetInCU: 0x1BD30, offset: 0x171094, size: 0x8, addend: 0x0, symName: '__ZNSt3__110__function6__funcIZN4grpc8internal21RegisterChannelFilterE23grpc_channel_stack_typeiNS_8functionIFbRK17grpc_channel_argsEEEPK19grpc_channel_filterE3$_2NS_9allocatorISE_EEFvPN9grpc_core17CoreConfiguration7BuilderEEE7destroyEv', symObjAddr: 0x3378, symBinAddr: 0x163A4, symSize: 0x34 }
  - { offsetInCU: 0x1BD5A, offset: 0x1710BE, size: 0x8, addend: 0x0, symName: '__ZNSt3__110__function6__funcIZN4grpc8internal21RegisterChannelFilterE23grpc_channel_stack_typeiNS_8functionIFbRK17grpc_channel_argsEEEPK19grpc_channel_filterE3$_2NS_9allocatorISE_EEFvPN9grpc_core17CoreConfiguration7BuilderEEE7destroyEv', symObjAddr: 0x3378, symBinAddr: 0x163A4, symSize: 0x34 }
  - { offsetInCU: 0x1BD7A, offset: 0x1710DE, size: 0x8, addend: 0x0, symName: '__ZNSt3__110__function6__funcIZN4grpc8internal21RegisterChannelFilterE23grpc_channel_stack_typeiNS_8functionIFbRK17grpc_channel_argsEEEPK19grpc_channel_filterE3$_2NS_9allocatorISE_EEFvPN9grpc_core17CoreConfiguration7BuilderEEE7destroyEv', symObjAddr: 0x3378, symBinAddr: 0x163A4, symSize: 0x34 }
  - { offsetInCU: 0x1BD98, offset: 0x1710FC, size: 0x8, addend: 0x0, symName: '__ZNSt3__110__function6__funcIZN4grpc8internal21RegisterChannelFilterE23grpc_channel_stack_typeiNS_8functionIFbRK17grpc_channel_argsEEEPK19grpc_channel_filterE3$_2NS_9allocatorISE_EEFvPN9grpc_core17CoreConfiguration7BuilderEEE7destroyEv', symObjAddr: 0x3378, symBinAddr: 0x163A4, symSize: 0x34 }
  - { offsetInCU: 0x1BDB6, offset: 0x17111A, size: 0x8, addend: 0x0, symName: '__ZNSt3__110__function6__funcIZN4grpc8internal21RegisterChannelFilterE23grpc_channel_stack_typeiNS_8functionIFbRK17grpc_channel_argsEEEPK19grpc_channel_filterE3$_2NS_9allocatorISE_EEFvPN9grpc_core17CoreConfiguration7BuilderEEE7destroyEv', symObjAddr: 0x3378, symBinAddr: 0x163A4, symSize: 0x34 }
  - { offsetInCU: 0x1BDD4, offset: 0x171138, size: 0x8, addend: 0x0, symName: '__ZNSt3__110__function6__funcIZN4grpc8internal21RegisterChannelFilterE23grpc_channel_stack_typeiNS_8functionIFbRK17grpc_channel_argsEEEPK19grpc_channel_filterE3$_2NS_9allocatorISE_EEFvPN9grpc_core17CoreConfiguration7BuilderEEE7destroyEv', symObjAddr: 0x3378, symBinAddr: 0x163A4, symSize: 0x34 }
  - { offsetInCU: 0x1BDF2, offset: 0x171156, size: 0x8, addend: 0x0, symName: '__ZNSt3__110__function6__funcIZN4grpc8internal21RegisterChannelFilterE23grpc_channel_stack_typeiNS_8functionIFbRK17grpc_channel_argsEEEPK19grpc_channel_filterE3$_2NS_9allocatorISE_EEFvPN9grpc_core17CoreConfiguration7BuilderEEE7destroyEv', symObjAddr: 0x3378, symBinAddr: 0x163A4, symSize: 0x34 }
  - { offsetInCU: 0x1BEE0, offset: 0x171244, size: 0x8, addend: 0x0, symName: '__ZNSt3__110__function6__funcIZN4grpc8internal21RegisterChannelFilterE23grpc_channel_stack_typeiNS_8functionIFbRK17grpc_channel_argsEEEPK19grpc_channel_filterE3$_2NS_9allocatorISE_EEFvPN9grpc_core17CoreConfiguration7BuilderEEE18destroy_deallocateEv', symObjAddr: 0x33AC, symBinAddr: 0x163D8, symSize: 0x50 }
  - { offsetInCU: 0x1C658, offset: 0x1719BC, size: 0x8, addend: 0x0, symName: '__ZNSt3__110__function6__funcIZN4grpc8internal21RegisterChannelFilterE23grpc_channel_stack_typeiNS_8functionIFbRK17grpc_channel_argsEEEPK19grpc_channel_filterE3$_2NS_9allocatorISE_EEFvPN9grpc_core17CoreConfiguration7BuilderEEEclEOSK_', symObjAddr: 0x33FC, symBinAddr: 0x16428, symSize: 0x18C }
  - { offsetInCU: 0x1CD5F, offset: 0x1720C3, size: 0x8, addend: 0x0, symName: '__ZNKSt3__110__function6__funcIZN4grpc8internal21RegisterChannelFilterE23grpc_channel_stack_typeiNS_8functionIFbRK17grpc_channel_argsEEEPK19grpc_channel_filterE3$_2NS_9allocatorISE_EEFvPN9grpc_core17CoreConfiguration7BuilderEEE6targetERKSt9type_info', symObjAddr: 0x3588, symBinAddr: 0x165B4, symSize: 0x3C }
  - { offsetInCU: 0x1CDFC, offset: 0x172160, size: 0x8, addend: 0x0, symName: '__ZNKSt3__110__function6__funcIZN4grpc8internal21RegisterChannelFilterE23grpc_channel_stack_typeiNS_8functionIFbRK17grpc_channel_argsEEEPK19grpc_channel_filterE3$_2NS_9allocatorISE_EEFvPN9grpc_core17CoreConfiguration7BuilderEEE11target_typeEv', symObjAddr: 0x35C4, symBinAddr: 0x165F0, symSize: 0xC }
  - { offsetInCU: 0x1CECA, offset: 0x17222E, size: 0x8, addend: 0x0, symName: '__ZNSt3__110__function6__funcIZN4grpc8internal21RegisterChannelFilterE23grpc_channel_stack_typeiNS_8functionIFbRK17grpc_channel_argsEEEPK19grpc_channel_filterE3$_1NS_9allocatorISE_EEFbP26grpc_channel_stack_builderEED1Ev', symObjAddr: 0x3634, symBinAddr: 0x16660, symSize: 0x5C }
  - { offsetInCU: 0x1D091, offset: 0x1723F5, size: 0x8, addend: 0x0, symName: '__ZNSt3__110__function6__funcIZN4grpc8internal21RegisterChannelFilterE23grpc_channel_stack_typeiNS_8functionIFbRK17grpc_channel_argsEEEPK19grpc_channel_filterE3$_1NS_9allocatorISE_EEFbP26grpc_channel_stack_builderEED0Ev', symObjAddr: 0x3690, symBinAddr: 0x166BC, symSize: 0x5C }
  - { offsetInCU: 0x1D53D, offset: 0x1728A1, size: 0x8, addend: 0x0, symName: '__ZNKSt3__110__function6__funcIZN4grpc8internal21RegisterChannelFilterE23grpc_channel_stack_typeiNS_8functionIFbRK17grpc_channel_argsEEEPK19grpc_channel_filterE3$_1NS_9allocatorISE_EEFbP26grpc_channel_stack_builderEE7__cloneEv', symObjAddr: 0x36EC, symBinAddr: 0x16718, symSize: 0x68 }
  - { offsetInCU: 0x1DA31, offset: 0x172D95, size: 0x8, addend: 0x0, symName: '__ZNKSt3__110__function6__funcIZN4grpc8internal21RegisterChannelFilterE23grpc_channel_stack_typeiNS_8functionIFbRK17grpc_channel_argsEEEPK19grpc_channel_filterE3$_1NS_9allocatorISE_EEFbP26grpc_channel_stack_builderEE7__cloneEPNS0_6__baseISJ_EE', symObjAddr: 0x3754, symBinAddr: 0x16780, symSize: 0x40 }
  - { offsetInCU: 0x1DC9B, offset: 0x172FFF, size: 0x8, addend: 0x0, symName: '__ZNSt3__110__function6__funcIZN4grpc8internal21RegisterChannelFilterE23grpc_channel_stack_typeiNS_8functionIFbRK17grpc_channel_argsEEEPK19grpc_channel_filterE3$_1NS_9allocatorISE_EEFbP26grpc_channel_stack_builderEE7destroyEv', symObjAddr: 0x3794, symBinAddr: 0x167C0, symSize: 0x34 }
  - { offsetInCU: 0x1DE0D, offset: 0x173171, size: 0x8, addend: 0x0, symName: '__ZNSt3__110__function6__funcIZN4grpc8internal21RegisterChannelFilterE23grpc_channel_stack_typeiNS_8functionIFbRK17grpc_channel_argsEEEPK19grpc_channel_filterE3$_1NS_9allocatorISE_EEFbP26grpc_channel_stack_builderEE18destroy_deallocateEv', symObjAddr: 0x37C8, symBinAddr: 0x167F4, symSize: 0x50 }
  - { offsetInCU: 0x1E15A, offset: 0x1734BE, size: 0x8, addend: 0x0, symName: '__ZNSt3__110__function6__funcIZN4grpc8internal21RegisterChannelFilterE23grpc_channel_stack_typeiNS_8functionIFbRK17grpc_channel_argsEEEPK19grpc_channel_filterE3$_1NS_9allocatorISE_EEFbP26grpc_channel_stack_builderEEclEOSI_', symObjAddr: 0x3818, symBinAddr: 0x16844, symSize: 0x70 }
  - { offsetInCU: 0x1E320, offset: 0x173684, size: 0x8, addend: 0x0, symName: '__ZNKSt3__110__function6__funcIZN4grpc8internal21RegisterChannelFilterE23grpc_channel_stack_typeiNS_8functionIFbRK17grpc_channel_argsEEEPK19grpc_channel_filterE3$_1NS_9allocatorISE_EEFbP26grpc_channel_stack_builderEE6targetERKSt9type_info', symObjAddr: 0x3888, symBinAddr: 0x168B4, symSize: 0x3C }
  - { offsetInCU: 0x1E385, offset: 0x1736E9, size: 0x8, addend: 0x0, symName: '__ZNKSt3__110__function6__funcIZN4grpc8internal21RegisterChannelFilterE23grpc_channel_stack_typeiNS_8functionIFbRK17grpc_channel_argsEEEPK19grpc_channel_filterE3$_1NS_9allocatorISE_EEFbP26grpc_channel_stack_builderEE6targetERKSt9type_info', symObjAddr: 0x3888, symBinAddr: 0x168B4, symSize: 0x3C }
  - { offsetInCU: 0x1E3D5, offset: 0x173739, size: 0x8, addend: 0x0, symName: '__ZNKSt3__110__function6__funcIZN4grpc8internal21RegisterChannelFilterE23grpc_channel_stack_typeiNS_8functionIFbRK17grpc_channel_argsEEEPK19grpc_channel_filterE3$_1NS_9allocatorISE_EEFbP26grpc_channel_stack_builderEE11target_typeEv', symObjAddr: 0x38C4, symBinAddr: 0x168F0, symSize: 0xC }
  - { offsetInCU: 0x2690, offset: 0x175E74, size: 0x8, addend: 0x0, symName: __ZN4grpc8internal13ClientReactor22InternalScheduleOnDoneENS_6StatusE, symObjAddr: 0x0, symBinAddr: 0x168FC, symSize: 0x128 }
  - { offsetInCU: 0x4B7F, offset: 0x178363, size: 0x8, addend: 0x0, symName: __ZNK4grpc8internal13ClientReactor20InternalTrailersOnlyEPK9grpc_call, symObjAddr: 0x12C, symBinAddr: 0x16A24, symSize: 0x8 }
  - { offsetInCU: 0x4BE0, offset: 0x1783C4, size: 0x8, addend: 0x0, symName: __ZN4grpc8internal13ClientReactorD1Ev, symObjAddr: 0x134, symBinAddr: 0x48B38, symSize: 0x4 }
  - { offsetInCU: 0x4C09, offset: 0x1783ED, size: 0x8, addend: 0x0, symName: __ZN4grpc8internal13ClientReactorD0Ev, symObjAddr: 0x138, symBinAddr: 0x48B3C, symSize: 0x4 }
  - { offsetInCU: 0x4E43, offset: 0x178627, size: 0x8, addend: 0x0, symName: __ZZZN4grpc8internal13ClientReactor22InternalScheduleOnDoneENS_6StatusEEN14ClosureWithArgC1EPS1_S2_ENUlPvP10grpc_errorE_8__invokeES5_S7_, symObjAddr: 0x1E8, symBinAddr: 0x16A2C, symSize: 0x54 }
  - { offsetInCU: 0x44, offset: 0x1789CA, size: 0x8, addend: 0x0, symName: __ZN4grpcL17g_gli_initializerE, symObjAddr: 0x8C8B0, symBinAddr: 0x68C08, symSize: 0x0 }
  - { offsetInCU: 0xED3, offset: 0x179859, size: 0x8, addend: 0x0, symName: __ZN4grpcL26g_default_client_callbacksE, symObjAddr: 0x8C8B8, symBinAddr: 0x68C10, symSize: 0x0 }
  - { offsetInCU: 0x240D, offset: 0x17AD93, size: 0x8, addend: 0x0, symName: __ZN4grpcL18g_client_callbacksE, symObjAddr: 0x8C8C0, symBinAddr: 0x68C18, symSize: 0x0 }
  - { offsetInCU: 0xC221, offset: 0x184BA7, size: 0x8, addend: 0x0, symName: __ZNSt3__127__tree_balance_after_insertB7v160006IPNS_16__tree_node_baseIPvEEEEvT_S5_, symObjAddr: 0x14EC, symBinAddr: 0x17C00, symSize: 0x198 }
  - { offsetInCU: 0xF9FB, offset: 0x188381, size: 0x8, addend: 0x0, symName: __ZN4grpc13ClientContextC2Ev, symObjAddr: 0x0, symBinAddr: 0x16A80, symSize: 0x1D8 }
  - { offsetInCU: 0x1040B, offset: 0x188D91, size: 0x8, addend: 0x0, symName: __ZN4grpc8internal11MetadataMapD2Ev, symObjAddr: 0xBB0, symBinAddr: 0x17440, symSize: 0x4C }
  - { offsetInCU: 0x1050E, offset: 0x188E94, size: 0x8, addend: 0x0, symName: __ZNSt3__16__treeINS_12__value_typeINS_12basic_stringIcNS_11char_traitsIcEENS_9allocatorIcEEEES7_EENS_19__map_value_compareIS7_S8_NS_4lessIS7_EELb1EEENS5_IS8_EEE7destroyEPNS_11__tree_nodeIS8_PvEE, symObjAddr: 0x1250, symBinAddr: 0x17964, symSize: 0x4C }
  - { offsetInCU: 0x10694, offset: 0x18901A, size: 0x8, addend: 0x0, symName: __ZNSt3__110shared_ptrIKN4grpc11AuthContextEED2B7v160006Ev, symObjAddr: 0x1024, symBinAddr: 0x178B4, symSize: 0x58 }
  - { offsetInCU: 0x10727, offset: 0x1890AD, size: 0x8, addend: 0x0, symName: __ZNSt3__110shared_ptrIN4grpc15CallCredentialsEED2B7v160006Ev, symObjAddr: 0x11F8, symBinAddr: 0x1790C, symSize: 0x58 }
  - { offsetInCU: 0x10808, offset: 0x18918E, size: 0x8, addend: 0x0, symName: __ZN4grpc13ClientContextC1Ev, symObjAddr: 0x1D8, symBinAddr: 0x16C58, symSize: 0x4 }
  - { offsetInCU: 0x1082B, offset: 0x1891B1, size: 0x8, addend: 0x0, symName: __ZN4grpc13ClientContextC1Ev, symObjAddr: 0x1D8, symBinAddr: 0x16C58, symSize: 0x4 }
  - { offsetInCU: 0x1083F, offset: 0x1891C5, size: 0x8, addend: 0x0, symName: __ZN4grpc13ClientContextD2Ev, symObjAddr: 0x1DC, symBinAddr: 0x16C5C, symSize: 0xC4 }
  - { offsetInCU: 0x10D5B, offset: 0x1896E1, size: 0x8, addend: 0x0, symName: __ZN4grpc13ClientContextD1Ev, symObjAddr: 0x2AC, symBinAddr: 0x16D20, symSize: 0x4 }
  - { offsetInCU: 0x10D89, offset: 0x18970F, size: 0x8, addend: 0x0, symName: __ZN4grpc13ClientContextD1Ev, symObjAddr: 0x2AC, symBinAddr: 0x16D20, symSize: 0x4 }
  - { offsetInCU: 0x10DCE, offset: 0x189754, size: 0x8, addend: 0x0, symName: __ZN4grpc13ClientContext15set_credentialsERKNSt3__110shared_ptrINS_15CallCredentialsEEE, symObjAddr: 0x2B0, symBinAddr: 0x16D24, symSize: 0x6C }
  - { offsetInCU: 0x10EA3, offset: 0x189829, size: 0x8, addend: 0x0, symName: __ZNSt3__110shared_ptrIN4grpc15CallCredentialsEEaSB7v160006ERKS3_, symObjAddr: 0x31C, symBinAddr: 0x16D90, symSize: 0x78 }
  - { offsetInCU: 0x1105E, offset: 0x1899E4, size: 0x8, addend: 0x0, symName: __ZN4grpc13ClientContext24SendCancelToInterceptorsEv, symObjAddr: 0x394, symBinAddr: 0x16E08, symSize: 0x74 }
  - { offsetInCU: 0x112A8, offset: 0x189C2E, size: 0x8, addend: 0x0, symName: __ZN4grpc12experimental13ClientRpcInfo14RunInterceptorEPNS0_23InterceptorBatchMethodsEm, symObjAddr: 0x850, symBinAddr: 0x172C4, symSize: 0x80 }
  - { offsetInCU: 0x114A3, offset: 0x189E29, size: 0x8, addend: 0x0, symName: __ZN4grpc13ClientContext25FromInternalServerContextERKNS_17ServerContextBaseENS_18PropagationOptionsE, symObjAddr: 0x408, symBinAddr: 0x16E7C, symSize: 0x60 }
  - { offsetInCU: 0x115AE, offset: 0x189F34, size: 0x8, addend: 0x0, symName: __ZN4grpc13ClientContext17FromServerContextERKNS_17ServerContextBaseENS_18PropagationOptionsE, symObjAddr: 0x468, symBinAddr: 0x16EDC, symSize: 0x8 }
  - { offsetInCU: 0x11602, offset: 0x189F88, size: 0x8, addend: 0x0, symName: __ZN4grpc13ClientContext25FromCallbackServerContextERKNS_21CallbackServerContextENS_18PropagationOptionsE, symObjAddr: 0x470, symBinAddr: 0x16EE4, symSize: 0x8 }
  - { offsetInCU: 0x1174B, offset: 0x18A0D1, size: 0x8, addend: 0x0, symName: __ZN4grpc13ClientContext11AddMetadataERKNSt3__112basic_stringIcNS1_11char_traitsIcEENS1_9allocatorIcEEEES9_, symObjAddr: 0x478, symBinAddr: 0x16EEC, symSize: 0x6C }
  - { offsetInCU: 0x11B07, offset: 0x18A48D, size: 0x8, addend: 0x0, symName: __ZNSt3__14pairINS_12basic_stringIcNS_11char_traitsIcEENS_9allocatorIcEEEES6_EC2B7v160006ILb1ELPv0EEERKS6_SB_, symObjAddr: 0xBFC, symBinAddr: 0x1748C, symSize: 0x50 }
  - { offsetInCU: 0x11C71, offset: 0x18A5F7, size: 0x8, addend: 0x0, symName: __ZNSt3__16__treeINS_12__value_typeINS_12basic_stringIcNS_11char_traitsIcEENS_9allocatorIcEEEES7_EENS_19__map_value_compareIS7_S8_NS_4lessIS7_EELb1EEENS5_IS8_EEE15__emplace_multiIJNS_4pairIS7_S7_EEEEENS_15__tree_iteratorIS8_PNS_11__tree_nodeIS8_PvEElEEDpOT_, symObjAddr: 0x12E0, symBinAddr: 0x179F4, symSize: 0xC4 }
  - { offsetInCU: 0x1207A, offset: 0x18AA00, size: 0x8, addend: 0x0, symName: __ZNSt3__14pairINS_12basic_stringIcNS_11char_traitsIcEENS_9allocatorIcEEEES6_ED1Ev, symObjAddr: 0x4E4, symBinAddr: 0x16F58, symSize: 0x40 }
  - { offsetInCU: 0x123B4, offset: 0x18AD3A, size: 0x8, addend: 0x0, symName: __ZN4grpc13ClientContext8set_callEP9grpc_callRKNSt3__110shared_ptrINS_7ChannelEEE, symObjAddr: 0x524, symBinAddr: 0x16F98, symSize: 0x138 }
  - { offsetInCU: 0x12602, offset: 0x18AF88, size: 0x8, addend: 0x0, symName: __ZNSt3__110shared_ptrIN4grpc7ChannelEEaSB7v160006ERKS3_, symObjAddr: 0x65C, symBinAddr: 0x170D0, symSize: 0x78 }
  - { offsetInCU: 0x128B9, offset: 0x18B23F, size: 0x8, addend: 0x0, symName: __ZN4grpc13ClientContext25set_compression_algorithmE26grpc_compression_algorithm, symObjAddr: 0x6D4, symBinAddr: 0x17148, symSize: 0xD4 }
  - { offsetInCU: 0x130D2, offset: 0x18BA58, size: 0x8, addend: 0x0, symName: __ZN4grpc13ClientContext25set_compression_algorithmE26grpc_compression_algorithm.cold.2, symObjAddr: 0x16F4, symBinAddr: 0x48B6C, symSize: 0x34 }
  - { offsetInCU: 0x130EA, offset: 0x18BA70, size: 0x8, addend: 0x0, symName: __ZN4grpc13ClientContext25set_compression_algorithmE26grpc_compression_algorithm.cold.1, symObjAddr: 0x16C8, symBinAddr: 0x48B40, symSize: 0x2C }
  - { offsetInCU: 0x13102, offset: 0x18BA88, size: 0x8, addend: 0x0, symName: __ZN4grpc13ClientContext9TryCancelEv, symObjAddr: 0x7A8, symBinAddr: 0x1721C, symSize: 0xA8 }
  - { offsetInCU: 0x132AE, offset: 0x18BC34, size: 0x8, addend: 0x0, symName: __ZN4grpc8internal29CancelInterceptorBatchMethodsD1Ev, symObjAddr: 0x8D0, symBinAddr: 0x17344, symSize: 0x4 }
  - { offsetInCU: 0x132FD, offset: 0x18BC83, size: 0x8, addend: 0x0, symName: __ZNK4grpc13ClientContext4peerEv, symObjAddr: 0x8D4, symBinAddr: 0x17348, symSize: 0x64 }
  - { offsetInCU: 0x13524, offset: 0x18BEAA, size: 0x8, addend: 0x0, symName: __ZN4grpc13ClientContext18SetGlobalCallbacksEPNS0_15GlobalCallbacksE, symObjAddr: 0x938, symBinAddr: 0x173AC, symSize: 0x44 }
  - { offsetInCU: 0x13575, offset: 0x18BEFB, size: 0x8, addend: 0x0, symName: __ZN4grpc13ClientContext18SetGlobalCallbacksEPNS0_15GlobalCallbacksE.cold.3, symObjAddr: 0x1790, symBinAddr: 0x48C08, symSize: 0x34 }
  - { offsetInCU: 0x1358D, offset: 0x18BF13, size: 0x8, addend: 0x0, symName: __ZN4grpc13ClientContext18SetGlobalCallbacksEPNS0_15GlobalCallbacksE.cold.1, symObjAddr: 0x1728, symBinAddr: 0x48BA0, symSize: 0x34 }
  - { offsetInCU: 0x135A5, offset: 0x18BF2B, size: 0x8, addend: 0x0, symName: __ZN4grpc13ClientContext18SetGlobalCallbacksEPNS0_15GlobalCallbacksE.cold.2, symObjAddr: 0x175C, symBinAddr: 0x48BD4, symSize: 0x34 }
  - { offsetInCU: 0x135BD, offset: 0x18BF43, size: 0x8, addend: 0x0, symName: __ZN4grpc28DefaultGlobalClientCallbacksD1Ev, symObjAddr: 0xAAC, symBinAddr: 0x173F0, symSize: 0x4 }
  - { offsetInCU: 0x135E6, offset: 0x18BF6C, size: 0x8, addend: 0x0, symName: __ZN4grpc28DefaultGlobalClientCallbacksD0Ev, symObjAddr: 0xAB0, symBinAddr: 0x173F4, symSize: 0x4 }
  - { offsetInCU: 0x1360F, offset: 0x18BF95, size: 0x8, addend: 0x0, symName: __ZN4grpc28DefaultGlobalClientCallbacks18DefaultConstructorEPNS_13ClientContextE, symObjAddr: 0xAB4, symBinAddr: 0x173F8, symSize: 0x4 }
  - { offsetInCU: 0x1363E, offset: 0x18BFC4, size: 0x8, addend: 0x0, symName: __ZN4grpc28DefaultGlobalClientCallbacks10DestructorEPNS_13ClientContextE, symObjAddr: 0xAB8, symBinAddr: 0x173FC, symSize: 0x4 }
  - { offsetInCU: 0x136CF, offset: 0x18C055, size: 0x8, addend: 0x0, symName: __ZNSt3__16__treeINS_12__value_typeIN4grpc10string_refES3_EENS_19__map_value_compareIS3_S4_NS_4lessIS3_EELb1EEENS_9allocatorIS4_EEE7destroyEPNS_11__tree_nodeIS4_PvEE, symObjAddr: 0xABC, symBinAddr: 0x17400, symSize: 0x40 }
  - { offsetInCU: 0x13BCC, offset: 0x18C552, size: 0x8, addend: 0x0, symName: __ZN4grpc8internal29CancelInterceptorBatchMethodsD0Ev, symObjAddr: 0xC4C, symBinAddr: 0x174DC, symSize: 0x4 }
  - { offsetInCU: 0x13BF8, offset: 0x18C57E, size: 0x8, addend: 0x0, symName: __ZN4grpc8internal29CancelInterceptorBatchMethods26QueryInterceptionHookPointENS_12experimental22InterceptionHookPointsE, symObjAddr: 0xC50, symBinAddr: 0x174E0, symSize: 0xC }
  - { offsetInCU: 0x13C2D, offset: 0x18C5B3, size: 0x8, addend: 0x0, symName: __ZN4grpc8internal29CancelInterceptorBatchMethods7ProceedEv, symObjAddr: 0xC5C, symBinAddr: 0x174EC, symSize: 0x4 }
  - { offsetInCU: 0x13C52, offset: 0x18C5D8, size: 0x8, addend: 0x0, symName: __ZN4grpc8internal29CancelInterceptorBatchMethods6HijackEv, symObjAddr: 0xC60, symBinAddr: 0x174F0, symSize: 0x2C }
  - { offsetInCU: 0x13C8D, offset: 0x18C613, size: 0x8, addend: 0x0, symName: __ZN4grpc8internal29CancelInterceptorBatchMethods24GetSerializedSendMessageEv, symObjAddr: 0xC8C, symBinAddr: 0x1751C, symSize: 0x40 }
  - { offsetInCU: 0x13CC8, offset: 0x18C64E, size: 0x8, addend: 0x0, symName: __ZN4grpc8internal29CancelInterceptorBatchMethods14GetSendMessageEv, symObjAddr: 0xCCC, symBinAddr: 0x1755C, symSize: 0x40 }
  - { offsetInCU: 0x13D03, offset: 0x18C689, size: 0x8, addend: 0x0, symName: __ZN4grpc8internal29CancelInterceptorBatchMethods17ModifySendMessageEPKv, symObjAddr: 0xD0C, symBinAddr: 0x1759C, symSize: 0x2C }
  - { offsetInCU: 0x13D4B, offset: 0x18C6D1, size: 0x8, addend: 0x0, symName: __ZN4grpc8internal29CancelInterceptorBatchMethods20GetSendMessageStatusEv, symObjAddr: 0xD38, symBinAddr: 0x175C8, symSize: 0x40 }
  - { offsetInCU: 0x13D86, offset: 0x18C70C, size: 0x8, addend: 0x0, symName: __ZN4grpc8internal29CancelInterceptorBatchMethods22GetSendInitialMetadataEv, symObjAddr: 0xD78, symBinAddr: 0x17608, symSize: 0x40 }
  - { offsetInCU: 0x13DF5, offset: 0x18C77B, size: 0x8, addend: 0x0, symName: __ZN4grpc8internal29CancelInterceptorBatchMethods13GetSendStatusEv, symObjAddr: 0xDB8, symBinAddr: 0x17648, symSize: 0x5C }
  - { offsetInCU: 0x13EC8, offset: 0x18C84E, size: 0x8, addend: 0x0, symName: __ZN4grpc8internal29CancelInterceptorBatchMethods16ModifySendStatusERKNS_6StatusE, symObjAddr: 0xE14, symBinAddr: 0x176A4, symSize: 0x2C }
  - { offsetInCU: 0x13F10, offset: 0x18C896, size: 0x8, addend: 0x0, symName: __ZN4grpc8internal29CancelInterceptorBatchMethods23GetSendTrailingMetadataEv, symObjAddr: 0xE40, symBinAddr: 0x176D0, symSize: 0x40 }
  - { offsetInCU: 0x13F4B, offset: 0x18C8D1, size: 0x8, addend: 0x0, symName: __ZN4grpc8internal29CancelInterceptorBatchMethods14GetRecvMessageEv, symObjAddr: 0xE80, symBinAddr: 0x17710, symSize: 0x40 }
  - { offsetInCU: 0x13F86, offset: 0x18C90C, size: 0x8, addend: 0x0, symName: __ZN4grpc8internal29CancelInterceptorBatchMethods22GetRecvInitialMetadataEv, symObjAddr: 0xEC0, symBinAddr: 0x17750, symSize: 0x40 }
  - { offsetInCU: 0x13FC1, offset: 0x18C947, size: 0x8, addend: 0x0, symName: __ZN4grpc8internal29CancelInterceptorBatchMethods13GetRecvStatusEv, symObjAddr: 0xF00, symBinAddr: 0x17790, symSize: 0x40 }
  - { offsetInCU: 0x13FFC, offset: 0x18C982, size: 0x8, addend: 0x0, symName: __ZN4grpc8internal29CancelInterceptorBatchMethods23GetRecvTrailingMetadataEv, symObjAddr: 0xF40, symBinAddr: 0x177D0, symSize: 0x40 }
  - { offsetInCU: 0x14142, offset: 0x18CAC8, size: 0x8, addend: 0x0, symName: __ZN4grpc8internal29CancelInterceptorBatchMethods21GetInterceptedChannelEv, symObjAddr: 0xF80, symBinAddr: 0x17810, symSize: 0x4C }
  - { offsetInCU: 0x14219, offset: 0x18CB9F, size: 0x8, addend: 0x0, symName: __ZN4grpc8internal29CancelInterceptorBatchMethods23FailHijackedRecvMessageEv, symObjAddr: 0xFCC, symBinAddr: 0x1785C, symSize: 0x2C }
  - { offsetInCU: 0x14254, offset: 0x18CBDA, size: 0x8, addend: 0x0, symName: __ZN4grpc8internal29CancelInterceptorBatchMethods23FailHijackedSendMessageEv, symObjAddr: 0xFF8, symBinAddr: 0x17888, symSize: 0x2C }
  - { offsetInCU: 0x14549, offset: 0x18CECF, size: 0x8, addend: 0x0, symName: __ZNSt3__116allocator_traitsINS_9allocatorINS_11__tree_nodeINS_12__value_typeINS_12basic_stringIcNS_11char_traitsIcEENS1_IcEEEES8_EEPvEEEEE7destroyB7v160006INS_4pairIKS8_S8_EEvvEEvRSC_PT_, symObjAddr: 0x129C, symBinAddr: 0x179B0, symSize: 0x44 }
  - { offsetInCU: 0x14BAA, offset: 0x18D530, size: 0x8, addend: 0x0, symName: __ZNSt3__16__treeINS_12__value_typeINS_12basic_stringIcNS_11char_traitsIcEENS_9allocatorIcEEEES7_EENS_19__map_value_compareIS7_S8_NS_4lessIS7_EELb1EEENS5_IS8_EEE16__find_leaf_highERPNS_15__tree_end_nodeIPNS_16__tree_node_baseIPvEEEERKS7_, symObjAddr: 0x13A4, symBinAddr: 0x17AB8, symSize: 0x78 }
  - { offsetInCU: 0x14C6C, offset: 0x18D5F2, size: 0x8, addend: 0x0, symName: __ZNSt3__16__treeINS_12__value_typeINS_12basic_stringIcNS_11char_traitsIcEENS_9allocatorIcEEEES7_EENS_19__map_value_compareIS7_S8_NS_4lessIS7_EELb1EEENS5_IS8_EEE16__insert_node_atEPNS_15__tree_end_nodeIPNS_16__tree_node_baseIPvEEEERSJ_SJ_, symObjAddr: 0x141C, symBinAddr: 0x17B30, symSize: 0x54 }
  - { offsetInCU: 0x14CD5, offset: 0x18D65B, size: 0x8, addend: 0x0, symName: __ZNSt3__122__tree_node_destructorINS_9allocatorINS_11__tree_nodeINS_12__value_typeINS_12basic_stringIcNS_11char_traitsIcEENS1_IcEEEES8_EEPvEEEEEclB7v160006EPSB_, symObjAddr: 0x1684, symBinAddr: 0x17D98, symSize: 0x44 }
  - { offsetInCU: 0x14E25, offset: 0x18D7AB, size: 0x8, addend: 0x0, symName: __ZNKSt3__14lessINS_12basic_stringIcNS_11char_traitsIcEENS_9allocatorIcEEEEEclB7v160006ERKS6_S9_, symObjAddr: 0x1470, symBinAddr: 0x17B84, symSize: 0x7C }
  - { offsetInCU: 0x151BF, offset: 0x18DB45, size: 0x8, addend: 0x0, symName: _OUTLINED_FUNCTION_0, symObjAddr: 0x17C4, symBinAddr: 0x17DDC, symSize: 0x8 }
  - { offsetInCU: 0x26, offset: 0x18DB91, size: 0x8, addend: 0x0, symName: __ZN4grpc12experimental38RegisterGlobalClientInterceptorFactoryEPNS0_33ClientInterceptorFactoryInterfaceE, symObjAddr: 0x0, symBinAddr: 0x17E28, symSize: 0x24 }
  - { offsetInCU: 0x4A, offset: 0x18DBB5, size: 0x8, addend: 0x0, symName: __ZN4grpc8internal35g_global_client_interceptor_factoryE, symObjAddr: 0x30B30, symBinAddr: 0x68D20, symSize: 0x0 }
  - { offsetInCU: 0x5E, offset: 0x18DBC9, size: 0x8, addend: 0x0, symName: __ZN4grpc12experimental38RegisterGlobalClientInterceptorFactoryEPNS0_33ClientInterceptorFactoryInterfaceE, symObjAddr: 0x0, symBinAddr: 0x17E28, symSize: 0x24 }
  - { offsetInCU: 0x8C, offset: 0x18DBF7, size: 0x8, addend: 0x0, symName: __ZN4grpc12experimental43TestOnlyResetGlobalClientInterceptorFactoryEv, symObjAddr: 0x24, symBinAddr: 0x17E4C, symSize: 0xC }
  - { offsetInCU: 0x97, offset: 0x18DC02, size: 0x8, addend: 0x0, symName: __ZN4grpc12experimental43TestOnlyResetGlobalClientInterceptorFactoryEv, symObjAddr: 0x24, symBinAddr: 0x17E4C, symSize: 0xC }
  - { offsetInCU: 0x4169, offset: 0x191CD4, size: 0x8, addend: 0x0, symName: __ZN4grpc12experimental38RegisterGlobalClientInterceptorFactoryEPNS0_33ClientInterceptorFactoryInterfaceE.cold.1, symObjAddr: 0x30, symBinAddr: 0x48C3C, symSize: 0x38 }
  - { offsetInCU: 0x38, offset: 0x191D24, size: 0x8, addend: 0x0, symName: __ZN4grpc24g_core_codegen_interfaceE, symObjAddr: 0x12820, symBinAddr: 0x68D28, symSize: 0x0 }
  - { offsetInCU: 0x52, offset: 0x191D3E, size: 0x8, addend: 0x0, symName: __ZN4grpc6g_glipE, symObjAddr: 0x12828, symBinAddr: 0x68D30, symSize: 0x0 }
  - { offsetInCU: 0x46, offset: 0x195E47, size: 0x8, addend: 0x0, symName: __ZN4grpc12_GLOBAL__N_117g_gli_initializerE, symObjAddr: 0x32CA8, symBinAddr: 0x68C20, symSize: 0x0 }
  - { offsetInCU: 0x5F, offset: 0x195E60, size: 0x8, addend: 0x0, symName: __ZN4grpc12_GLOBAL__N_125g_callback_alternative_cqE.0, symObjAddr: 0x32CB0, symBinAddr: 0x68C28, symSize: 0x0 }
  - { offsetInCU: 0x6C, offset: 0x195E6D, size: 0x8, addend: 0x0, symName: __ZN4grpc12_GLOBAL__N_125g_callback_alternative_cqE.1, symObjAddr: 0x32CB8, symBinAddr: 0x68C30, symSize: 0x0 }
  - { offsetInCU: 0x77, offset: 0x195E78, size: 0x8, addend: 0x0, symName: __ZN4grpc12_GLOBAL__N_125g_callback_alternative_cqE.2, symObjAddr: 0x32CC0, symBinAddr: 0x68C38, symSize: 0x0 }
  - { offsetInCU: 0xF4, offset: 0x195EF5, size: 0x8, addend: 0x0, symName: __ZN4grpc12_GLOBAL__N_132g_once_init_callback_alternativeE, symObjAddr: 0x1568, symBinAddr: 0x68BA0, symSize: 0x0 }
  - { offsetInCU: 0x10D, offset: 0x195F0E, size: 0x8, addend: 0x0, symName: __ZN4grpc12_GLOBAL__N_125g_callback_alternative_muE, symObjAddr: 0x32CC8, symBinAddr: 0x68C40, symSize: 0x0 }
  - { offsetInCU: 0x4930, offset: 0x19A731, size: 0x8, addend: 0x0, symName: __ZNSt3__119__allocate_at_leastB7v160006INS_9allocatorIN9grpc_core6ThreadEEEEENS_19__allocation_resultINS_16allocator_traitsIT_E7pointerEEERS7_m, symObjAddr: 0xD24, symBinAddr: 0x18728, symSize: 0x34 }
  - { offsetInCU: 0x52EE, offset: 0x19B0EF, size: 0x8, addend: 0x0, symName: __ZNSt3__16vectorIN9grpc_core6ThreadENS_9allocatorIS2_EEE26__swap_out_circular_bufferERNS_14__split_bufferIS2_RS4_EE, symObjAddr: 0xC00, symBinAddr: 0x18678, symSize: 0x9C }
  - { offsetInCU: 0x75B5, offset: 0x19D3B6, size: 0x8, addend: 0x0, symName: __ZN4grpc15CompletionQueueC2EP21grpc_completion_queue, symObjAddr: 0x0, symBinAddr: 0x17E58, symSize: 0x80 }
  - { offsetInCU: 0x77EA, offset: 0x19D5EB, size: 0x8, addend: 0x0, symName: __ZN4grpc15CompletionQueueC1EP21grpc_completion_queue, symObjAddr: 0x19C, symBinAddr: 0x17ED8, symSize: 0x4 }
  - { offsetInCU: 0x7826, offset: 0x19D627, size: 0x8, addend: 0x0, symName: __ZN4grpc15CompletionQueueC1EP21grpc_completion_queue, symObjAddr: 0x19C, symBinAddr: 0x17ED8, symSize: 0x4 }
  - { offsetInCU: 0x7858, offset: 0x19D659, size: 0x8, addend: 0x0, symName: __ZN4grpc15CompletionQueue8ShutdownEv, symObjAddr: 0x1A0, symBinAddr: 0x17EDC, symSize: 0x7C }
  - { offsetInCU: 0x78DF, offset: 0x19D6E0, size: 0x8, addend: 0x0, symName: __ZNK4grpc15CompletionQueue15ServerListEmptyEv, symObjAddr: 0x21C, symBinAddr: 0x17F58, symSize: 0x68 }
  - { offsetInCU: 0x7B03, offset: 0x19D904, size: 0x8, addend: 0x0, symName: __ZN4grpc15CompletionQueue17AsyncNextInternalEPPvPb12gpr_timespec, symObjAddr: 0x284, symBinAddr: 0x17FC0, symSize: 0xA0 }
  - { offsetInCU: 0x7BF0, offset: 0x19D9F1, size: 0x8, addend: 0x0, symName: __ZN4grpc15CompletionQueue23CompletionQueueTLSCacheC2EPS0_, symObjAddr: 0x324, symBinAddr: 0x18060, symSize: 0x30 }
  - { offsetInCU: 0x7C65, offset: 0x19DA66, size: 0x8, addend: 0x0, symName: __ZN4grpc15CompletionQueue23CompletionQueueTLSCacheC1EPS0_, symObjAddr: 0x354, symBinAddr: 0x18090, symSize: 0x30 }
  - { offsetInCU: 0x7CD2, offset: 0x19DAD3, size: 0x8, addend: 0x0, symName: __ZN4grpc15CompletionQueue23CompletionQueueTLSCacheD2Ev, symObjAddr: 0x384, symBinAddr: 0x180C0, symSize: 0x54 }
  - { offsetInCU: 0x7D1B, offset: 0x19DB1C, size: 0x8, addend: 0x0, symName: __ZN4grpc15CompletionQueue23CompletionQueueTLSCacheD1Ev, symObjAddr: 0x3E4, symBinAddr: 0x18114, symSize: 0x4 }
  - { offsetInCU: 0x7D49, offset: 0x19DB4A, size: 0x8, addend: 0x0, symName: __ZN4grpc15CompletionQueue23CompletionQueueTLSCacheD1Ev, symObjAddr: 0x3E4, symBinAddr: 0x18114, symSize: 0x4 }
  - { offsetInCU: 0x7D5D, offset: 0x19DB5E, size: 0x8, addend: 0x0, symName: __ZN4grpc15CompletionQueue23CompletionQueueTLSCache5FlushEPPvPb, symObjAddr: 0x3E8, symBinAddr: 0x18118, symSize: 0x84 }
  - { offsetInCU: 0x84CF, offset: 0x19E2D0, size: 0x8, addend: 0x0, symName: __ZN4grpc15CompletionQueue21CallbackAlternativeCQEv, symObjAddr: 0x46C, symBinAddr: 0x1819C, symSize: 0x294 }
  - { offsetInCU: 0x8DD2, offset: 0x19EBD3, size: 0x8, addend: 0x0, symName: __ZNSt3__114__split_bufferIN9grpc_core6ThreadERNS_9allocatorIS2_EEED2Ev, symObjAddr: 0xDDC, symBinAddr: 0x187B8, symSize: 0x4C }
  - { offsetInCU: 0x8F7B, offset: 0x19ED7C, size: 0x8, addend: 0x0, symName: __ZN9grpc_core6Thread5StartEv, symObjAddr: 0x9E4, symBinAddr: 0x18554, symSize: 0x50 }
  - { offsetInCU: 0x8FC9, offset: 0x19EDCA, size: 0x8, addend: 0x0, symName: __ZNKSt3__16vectorIN9grpc_core6ThreadENS_9allocatorIS2_EEE20__throw_length_errorB7v160006Ev, symObjAddr: 0xC9C, symBinAddr: 0x18714, symSize: 0x14 }
  - { offsetInCU: 0x9069, offset: 0x19EE6A, size: 0x8, addend: 0x0, symName: __ZN4grpc15CompletionQueue28ReleaseCallbackAlternativeCQEPS0_, symObjAddr: 0x700, symBinAddr: 0x18430, symSize: 0xE0 }
  - { offsetInCU: 0x929A, offset: 0x19F09B, size: 0x8, addend: 0x0, symName: __ZN9grpc_core6Thread4JoinEv, symObjAddr: 0xE28, symBinAddr: 0x18804, symSize: 0x64 }
  - { offsetInCU: 0x92DA, offset: 0x19F0DB, size: 0x8, addend: 0x0, symName: __ZNSt3__16vectorIN9grpc_core6ThreadENS_9allocatorIS2_EEED2B7v160006Ev, symObjAddr: 0xE8C, symBinAddr: 0x18868, symSize: 0x38 }
  - { offsetInCU: 0x92E6, offset: 0x19F0E7, size: 0x8, addend: 0x0, symName: __ZNSt3__16vectorIN9grpc_core6ThreadENS_9allocatorIS2_EEED2B7v160006Ev, symObjAddr: 0xE8C, symBinAddr: 0x18868, symSize: 0x38 }
  - { offsetInCU: 0x9373, offset: 0x19F174, size: 0x8, addend: 0x0, symName: __ZN4grpc15CompletionQueue28ReleaseCallbackAlternativeCQEPS0_.cold.1, symObjAddr: 0xFA4, symBinAddr: 0x48C74, symSize: 0x34 }
  - { offsetInCU: 0x9568, offset: 0x19F369, size: 0x8, addend: 0x0, symName: '__ZZN4grpc15CompletionQueue21CallbackAlternativeCQEvEN3$_08__invokeEv', symObjAddr: 0x9A0, symBinAddr: 0x18510, symSize: 0x44 }
  - { offsetInCU: 0x95E4, offset: 0x19F3E5, size: 0x8, addend: 0x0, symName: __ZN9grpc_core6Thread5StartEv.cold.2, symObjAddr: 0x100C, symBinAddr: 0x48CDC, symSize: 0x34 }
  - { offsetInCU: 0x95FC, offset: 0x19F3FD, size: 0x8, addend: 0x0, symName: __ZN9grpc_core6Thread5StartEv.cold.1, symObjAddr: 0xFD8, symBinAddr: 0x48CA8, symSize: 0x34 }
  - { offsetInCU: 0x9710, offset: 0x19F511, size: 0x8, addend: 0x0, symName: __ZZN4grpc12_GLOBAL__N_121CallbackAlternativeCQ3RefEvENUlPvE_8__invokeES2_, symObjAddr: 0xB2C, symBinAddr: 0x185A4, symSize: 0xD4 }
  - { offsetInCU: 0x9856, offset: 0x19F657, size: 0x8, addend: 0x0, symName: __ZNSt3__16vectorIN9grpc_core6ThreadENS_9allocatorIS2_EEE26__swap_out_circular_bufferERNS_14__split_bufferIS2_RS4_EE, symObjAddr: 0xC00, symBinAddr: 0x18678, symSize: 0x9C }
  - { offsetInCU: 0x98AF, offset: 0x19F6B0, size: 0x8, addend: 0x0, symName: __ZZN4grpc12_GLOBAL__N_121CallbackAlternativeCQ3RefEvENUlPvE_8__invokeES2_.cold.1, symObjAddr: 0x1040, symBinAddr: 0x48D10, symSize: 0x34 }
  - { offsetInCU: 0x9A80, offset: 0x19F881, size: 0x8, addend: 0x0, symName: __ZN9grpc_core6ThreadD2Ev, symObjAddr: 0xD80, symBinAddr: 0x1875C, symSize: 0x5C }
  - { offsetInCU: 0x9C0D, offset: 0x19FA0E, size: 0x8, addend: 0x0, symName: __ZN9grpc_core6Thread4JoinEv.cold.1, symObjAddr: 0x1074, symBinAddr: 0x48D44, symSize: 0x34 }
  - { offsetInCU: 0x9C78, offset: 0x19FA79, size: 0x8, addend: 0x0, symName: __ZNSt3__16vectorIN9grpc_core6ThreadENS_9allocatorIS2_EEE16__destroy_vectorclB7v160006Ev, symObjAddr: 0xEC4, symBinAddr: 0x188A0, symSize: 0x70 }
  - { offsetInCU: 0x9E55, offset: 0x19FC56, size: 0x8, addend: 0x0, symName: _OUTLINED_FUNCTION_0, symObjAddr: 0x10A8, symBinAddr: 0x18910, symSize: 0x8 }
  - { offsetInCU: 0x4B, offset: 0x19FCBD, size: 0x8, addend: 0x0, symName: __ZN11grpc_binder24GetConnectionIdGeneratorEv, symObjAddr: 0x3D8, symBinAddr: 0x18D14, symSize: 0xA4 }
  - { offsetInCU: 0x75, offset: 0x19FCE7, size: 0x8, addend: 0x0, symName: __ZZN11grpc_binder24GetConnectionIdGeneratorEvE3cig, symObjAddr: 0x1A9C0, symBinAddr: 0x68C48, symSize: 0x0 }
  - { offsetInCU: 0x4906, offset: 0x1A4578, size: 0x8, addend: 0x0, symName: __ZN12_GLOBAL__N_19NormalizeEN4absl12lts_2021110211string_viewE, symObjAddr: 0x2DC, symBinAddr: 0x18C18, symSize: 0xFC }
  - { offsetInCU: 0x4F4E, offset: 0x1A4BC0, size: 0x8, addend: 0x0, symName: __ZN11grpc_binder21ConnectionIdGenerator8GenerateEN4absl12lts_2021110211string_viewES3_, symObjAddr: 0x0, symBinAddr: 0x1893C, symSize: 0x2DC }
  - { offsetInCU: 0x61CC, offset: 0x1A5E3E, size: 0x8, addend: 0x0, symName: __ZN4absl12lts_202111028AlphaNumC2Ei, symObjAddr: 0x5A4, symBinAddr: 0x18DB8, symSize: 0x44 }
  - { offsetInCU: 0x628D, offset: 0x1A5EFF, size: 0x8, addend: 0x0, symName: __ZN4absl12lts_202111028AlphaNumC2Ei.cold.1, symObjAddr: 0x5E8, symBinAddr: 0x48D78, symSize: 0x28 }
  - { offsetInCU: 0x6918, offset: 0x1A658A, size: 0x8, addend: 0x0, symName: __ZN4absl12lts_202111028AlphaNumC2Ei.cold.1, symObjAddr: 0x5E8, symBinAddr: 0x48D78, symSize: 0x28 }
  - { offsetInCU: 0x26, offset: 0x1A661D, size: 0x8, addend: 0x0, symName: __ZN4grpc11CoreCodegen36grpc_completion_queue_factory_lookupEPK32grpc_completion_queue_attributes, symObjAddr: 0x0, symBinAddr: 0x18DFC, symSize: 0x8 }
  - { offsetInCU: 0x4A4B, offset: 0x1AB042, size: 0x8, addend: 0x0, symName: __ZN4grpc11CoreCodegen36grpc_completion_queue_factory_lookupEPK32grpc_completion_queue_attributes, symObjAddr: 0x0, symBinAddr: 0x18DFC, symSize: 0x8 }
  - { offsetInCU: 0x4AA9, offset: 0x1AB0A0, size: 0x8, addend: 0x0, symName: __ZN4grpc11CoreCodegen28grpc_completion_queue_createEPK29grpc_completion_queue_factoryPK32grpc_completion_queue_attributesPv, symObjAddr: 0x8, symBinAddr: 0x18E04, symSize: 0x10 }
  - { offsetInCU: 0x4B41, offset: 0x1AB138, size: 0x8, addend: 0x0, symName: __ZN4grpc11CoreCodegen37grpc_completion_queue_create_for_nextEPv, symObjAddr: 0x18, symBinAddr: 0x18E14, symSize: 0x8 }
  - { offsetInCU: 0x4B9F, offset: 0x1AB196, size: 0x8, addend: 0x0, symName: __ZN4grpc11CoreCodegen38grpc_completion_queue_create_for_pluckEPv, symObjAddr: 0x20, symBinAddr: 0x18E1C, symSize: 0x8 }
  - { offsetInCU: 0x4BFD, offset: 0x1AB1F4, size: 0x8, addend: 0x0, symName: __ZN4grpc11CoreCodegen30grpc_completion_queue_shutdownEP21grpc_completion_queue, symObjAddr: 0x28, symBinAddr: 0x18E24, symSize: 0x8 }
  - { offsetInCU: 0x4C56, offset: 0x1AB24D, size: 0x8, addend: 0x0, symName: __ZN4grpc11CoreCodegen29grpc_completion_queue_destroyEP21grpc_completion_queue, symObjAddr: 0x30, symBinAddr: 0x18E2C, symSize: 0x8 }
  - { offsetInCU: 0x4CAF, offset: 0x1AB2A6, size: 0x8, addend: 0x0, symName: __ZN4grpc11CoreCodegen27grpc_completion_queue_pluckEP21grpc_completion_queuePv12gpr_timespecS3_, symObjAddr: 0x38, symBinAddr: 0x18E34, symSize: 0x18 }
  - { offsetInCU: 0x4D68, offset: 0x1AB35F, size: 0x8, addend: 0x0, symName: __ZN4grpc11CoreCodegen10gpr_mallocEm, symObjAddr: 0x50, symBinAddr: 0x18E4C, symSize: 0x8 }
  - { offsetInCU: 0x4DC6, offset: 0x1AB3BD, size: 0x8, addend: 0x0, symName: __ZN4grpc11CoreCodegen8gpr_freeEPv, symObjAddr: 0x58, symBinAddr: 0x18E54, symSize: 0x8 }
  - { offsetInCU: 0x4E1F, offset: 0x1AB416, size: 0x8, addend: 0x0, symName: __ZN4grpc11CoreCodegen9grpc_initEv, symObjAddr: 0x60, symBinAddr: 0x18E5C, symSize: 0x4 }
  - { offsetInCU: 0x4E47, offset: 0x1AB43E, size: 0x8, addend: 0x0, symName: __ZN4grpc11CoreCodegen9grpc_initEv, symObjAddr: 0x60, symBinAddr: 0x18E5C, symSize: 0x4 }
  - { offsetInCU: 0x4E5A, offset: 0x1AB451, size: 0x8, addend: 0x0, symName: __ZN4grpc11CoreCodegen13grpc_shutdownEv, symObjAddr: 0x64, symBinAddr: 0x18E60, symSize: 0x4 }
  - { offsetInCU: 0x4E82, offset: 0x1AB479, size: 0x8, addend: 0x0, symName: __ZN4grpc11CoreCodegen13grpc_shutdownEv, symObjAddr: 0x64, symBinAddr: 0x18E60, symSize: 0x4 }
  - { offsetInCU: 0x4E95, offset: 0x1AB48C, size: 0x8, addend: 0x0, symName: __ZN4grpc11CoreCodegen11gpr_mu_initEP23_opaque_pthread_mutex_t, symObjAddr: 0x68, symBinAddr: 0x18E64, symSize: 0x8 }
  - { offsetInCU: 0x4EEE, offset: 0x1AB4E5, size: 0x8, addend: 0x0, symName: __ZN4grpc11CoreCodegen14gpr_mu_destroyEP23_opaque_pthread_mutex_t, symObjAddr: 0x70, symBinAddr: 0x18E6C, symSize: 0x8 }
  - { offsetInCU: 0x4F47, offset: 0x1AB53E, size: 0x8, addend: 0x0, symName: __ZN4grpc11CoreCodegen11gpr_mu_lockEP23_opaque_pthread_mutex_t, symObjAddr: 0x78, symBinAddr: 0x18E74, symSize: 0x8 }
  - { offsetInCU: 0x4FA0, offset: 0x1AB597, size: 0x8, addend: 0x0, symName: __ZN4grpc11CoreCodegen13gpr_mu_unlockEP23_opaque_pthread_mutex_t, symObjAddr: 0x80, symBinAddr: 0x18E7C, symSize: 0x8 }
  - { offsetInCU: 0x4FF9, offset: 0x1AB5F0, size: 0x8, addend: 0x0, symName: __ZN4grpc11CoreCodegen11gpr_cv_initEP22_opaque_pthread_cond_t, symObjAddr: 0x88, symBinAddr: 0x18E84, symSize: 0x8 }
  - { offsetInCU: 0x5052, offset: 0x1AB649, size: 0x8, addend: 0x0, symName: __ZN4grpc11CoreCodegen14gpr_cv_destroyEP22_opaque_pthread_cond_t, symObjAddr: 0x90, symBinAddr: 0x18E8C, symSize: 0x8 }
  - { offsetInCU: 0x50AB, offset: 0x1AB6A2, size: 0x8, addend: 0x0, symName: __ZN4grpc11CoreCodegen11gpr_cv_waitEP22_opaque_pthread_cond_tP23_opaque_pthread_mutex_t12gpr_timespec, symObjAddr: 0x98, symBinAddr: 0x18E94, symSize: 0x14 }
  - { offsetInCU: 0x5147, offset: 0x1AB73E, size: 0x8, addend: 0x0, symName: __ZN4grpc11CoreCodegen13gpr_cv_signalEP22_opaque_pthread_cond_t, symObjAddr: 0xAC, symBinAddr: 0x18EA8, symSize: 0x8 }
  - { offsetInCU: 0x51A0, offset: 0x1AB797, size: 0x8, addend: 0x0, symName: __ZN4grpc11CoreCodegen16gpr_cv_broadcastEP22_opaque_pthread_cond_t, symObjAddr: 0xB4, symBinAddr: 0x18EB0, symSize: 0x8 }
  - { offsetInCU: 0x51F9, offset: 0x1AB7F0, size: 0x8, addend: 0x0, symName: __ZN4grpc11CoreCodegen21grpc_byte_buffer_copyEP16grpc_byte_buffer, symObjAddr: 0xBC, symBinAddr: 0x18EB8, symSize: 0x8 }
  - { offsetInCU: 0x5257, offset: 0x1AB84E, size: 0x8, addend: 0x0, symName: __ZN4grpc11CoreCodegen24grpc_byte_buffer_destroyEP16grpc_byte_buffer, symObjAddr: 0xC4, symBinAddr: 0x18EC0, symSize: 0x8 }
  - { offsetInCU: 0x52B0, offset: 0x1AB8A7, size: 0x8, addend: 0x0, symName: __ZN4grpc11CoreCodegen23grpc_byte_buffer_lengthEP16grpc_byte_buffer, symObjAddr: 0xCC, symBinAddr: 0x18EC8, symSize: 0x8 }
  - { offsetInCU: 0x530E, offset: 0x1AB905, size: 0x8, addend: 0x0, symName: __ZN4grpc11CoreCodegen21grpc_call_start_batchEP9grpc_callPK7grpc_opmPvS6_, symObjAddr: 0xD4, symBinAddr: 0x18ED0, symSize: 0x18 }
  - { offsetInCU: 0x53E1, offset: 0x1AB9D8, size: 0x8, addend: 0x0, symName: __ZN4grpc11CoreCodegen28grpc_call_cancel_with_statusEP9grpc_call16grpc_status_codePKcPv, symObjAddr: 0xEC, symBinAddr: 0x18EE8, symSize: 0x14 }
  - { offsetInCU: 0x5497, offset: 0x1ABA8E, size: 0x8, addend: 0x0, symName: __ZN4grpc11CoreCodegen36grpc_call_failed_before_recv_messageEPK9grpc_call, symObjAddr: 0x100, symBinAddr: 0x18EFC, symSize: 0x8 }
  - { offsetInCU: 0x54F6, offset: 0x1ABAED, size: 0x8, addend: 0x0, symName: __ZN4grpc11CoreCodegen13grpc_call_refEP9grpc_call, symObjAddr: 0x108, symBinAddr: 0x18F04, symSize: 0x8 }
  - { offsetInCU: 0x5550, offset: 0x1ABB47, size: 0x8, addend: 0x0, symName: __ZN4grpc11CoreCodegen15grpc_call_unrefEP9grpc_call, symObjAddr: 0x110, symBinAddr: 0x18F0C, symSize: 0x8 }
  - { offsetInCU: 0x55AA, offset: 0x1ABBA1, size: 0x8, addend: 0x0, symName: __ZN4grpc11CoreCodegen21grpc_call_arena_allocEP9grpc_callm, symObjAddr: 0x118, symBinAddr: 0x18F14, symSize: 0xC }
  - { offsetInCU: 0x5625, offset: 0x1ABC1C, size: 0x8, addend: 0x0, symName: __ZN4grpc11CoreCodegen25grpc_call_error_to_stringE15grpc_call_error, symObjAddr: 0x124, symBinAddr: 0x18F20, symSize: 0x8 }
  - { offsetInCU: 0x5684, offset: 0x1ABC7B, size: 0x8, addend: 0x0, symName: __ZN4grpc11CoreCodegen28grpc_byte_buffer_reader_initEP23grpc_byte_buffer_readerP16grpc_byte_buffer, symObjAddr: 0x12C, symBinAddr: 0x18F28, symSize: 0xC }
  - { offsetInCU: 0x56FF, offset: 0x1ABCF6, size: 0x8, addend: 0x0, symName: __ZN4grpc11CoreCodegen31grpc_byte_buffer_reader_destroyEP23grpc_byte_buffer_reader, symObjAddr: 0x138, symBinAddr: 0x18F34, symSize: 0x8 }
  - { offsetInCU: 0x5758, offset: 0x1ABD4F, size: 0x8, addend: 0x0, symName: __ZN4grpc11CoreCodegen28grpc_byte_buffer_reader_nextEP23grpc_byte_buffer_readerP10grpc_slice, symObjAddr: 0x140, symBinAddr: 0x18F3C, symSize: 0xC }
  - { offsetInCU: 0x57D3, offset: 0x1ABDCA, size: 0x8, addend: 0x0, symName: __ZN4grpc11CoreCodegen28grpc_byte_buffer_reader_peekEP23grpc_byte_buffer_readerPP10grpc_slice, symObjAddr: 0x14C, symBinAddr: 0x18F48, symSize: 0xC }
  - { offsetInCU: 0x584E, offset: 0x1ABE45, size: 0x8, addend: 0x0, symName: __ZN4grpc11CoreCodegen27grpc_raw_byte_buffer_createEP10grpc_slicem, symObjAddr: 0x158, symBinAddr: 0x18F54, symSize: 0xC }
  - { offsetInCU: 0x58C9, offset: 0x1ABEC0, size: 0x8, addend: 0x0, symName: __ZN4grpc11CoreCodegen29grpc_slice_new_with_user_dataEPvmPFvS1_ES1_, symObjAddr: 0x164, symBinAddr: 0x18F60, symSize: 0x14 }
  - { offsetInCU: 0x5986, offset: 0x1ABF7D, size: 0x8, addend: 0x0, symName: __ZN4grpc11CoreCodegen23grpc_slice_new_with_lenEPvmPFvS1_mE, symObjAddr: 0x178, symBinAddr: 0x18F74, symSize: 0x10 }
  - { offsetInCU: 0x5A26, offset: 0x1AC01D, size: 0x8, addend: 0x0, symName: __ZN4grpc11CoreCodegen16grpc_empty_sliceEv, symObjAddr: 0x188, symBinAddr: 0x18F84, symSize: 0x4 }
  - { offsetInCU: 0x5A4E, offset: 0x1AC045, size: 0x8, addend: 0x0, symName: __ZN4grpc11CoreCodegen16grpc_empty_sliceEv, symObjAddr: 0x188, symBinAddr: 0x18F84, symSize: 0x4 }
  - { offsetInCU: 0x5A6E, offset: 0x1AC065, size: 0x8, addend: 0x0, symName: __ZN4grpc11CoreCodegen17grpc_slice_mallocEm, symObjAddr: 0x18C, symBinAddr: 0x18F88, symSize: 0x8 }
  - { offsetInCU: 0x5AD4, offset: 0x1AC0CB, size: 0x8, addend: 0x0, symName: __ZN4grpc11CoreCodegen16grpc_slice_unrefE10grpc_slice, symObjAddr: 0x194, symBinAddr: 0x18F90, symSize: 0x54 }
  - { offsetInCU: 0x5B2C, offset: 0x1AC123, size: 0x8, addend: 0x0, symName: __ZN4grpc11CoreCodegen14grpc_slice_refE10grpc_slice, symObjAddr: 0x1E8, symBinAddr: 0x18FE4, symSize: 0x54 }
  - { offsetInCU: 0x5B91, offset: 0x1AC188, size: 0x8, addend: 0x0, symName: __ZN4grpc11CoreCodegen21grpc_slice_split_tailEP10grpc_slicem, symObjAddr: 0x23C, symBinAddr: 0x19038, symSize: 0xC }
  - { offsetInCU: 0x5C14, offset: 0x1AC20B, size: 0x8, addend: 0x0, symName: __ZN4grpc11CoreCodegen21grpc_slice_split_headEP10grpc_slicem, symObjAddr: 0x248, symBinAddr: 0x19044, symSize: 0xC }
  - { offsetInCU: 0x5C97, offset: 0x1AC28E, size: 0x8, addend: 0x0, symName: __ZN4grpc11CoreCodegen14grpc_slice_subE10grpc_slicemm, symObjAddr: 0x254, symBinAddr: 0x19050, symSize: 0x5C }
  - { offsetInCU: 0x5D36, offset: 0x1AC32D, size: 0x8, addend: 0x0, symName: __ZN4grpc11CoreCodegen29grpc_slice_from_static_bufferEPKvm, symObjAddr: 0x2B0, symBinAddr: 0x190AC, symSize: 0xC }
  - { offsetInCU: 0x5DB9, offset: 0x1AC3B0, size: 0x8, addend: 0x0, symName: __ZN4grpc11CoreCodegen29grpc_slice_from_copied_bufferEPKvm, symObjAddr: 0x2BC, symBinAddr: 0x190B8, symSize: 0xC }
  - { offsetInCU: 0x5E3C, offset: 0x1AC433, size: 0x8, addend: 0x0, symName: __ZN4grpc11CoreCodegen21grpc_slice_buffer_addEP17grpc_slice_buffer10grpc_slice, symObjAddr: 0x2C8, symBinAddr: 0x190C4, symSize: 0x58 }
  - { offsetInCU: 0x5EB1, offset: 0x1AC4A8, size: 0x8, addend: 0x0, symName: __ZN4grpc11CoreCodegen21grpc_slice_buffer_popEP17grpc_slice_buffer, symObjAddr: 0x320, symBinAddr: 0x1911C, symSize: 0x8 }
  - { offsetInCU: 0x5F0A, offset: 0x1AC501, size: 0x8, addend: 0x0, symName: __ZN4grpc11CoreCodegen24grpc_metadata_array_initEP19grpc_metadata_array, symObjAddr: 0x328, symBinAddr: 0x19124, symSize: 0x8 }
  - { offsetInCU: 0x5F63, offset: 0x1AC55A, size: 0x8, addend: 0x0, symName: __ZN4grpc11CoreCodegen27grpc_metadata_array_destroyEP19grpc_metadata_array, symObjAddr: 0x330, symBinAddr: 0x1912C, symSize: 0x8 }
  - { offsetInCU: 0x5FBC, offset: 0x1AC5B3, size: 0x8, addend: 0x0, symName: __ZN4grpc11CoreCodegen2okEv, symObjAddr: 0x338, symBinAddr: 0x19134, symSize: 0x10 }
  - { offsetInCU: 0x5FE1, offset: 0x1AC5D8, size: 0x8, addend: 0x0, symName: __ZN4grpc11CoreCodegen9cancelledEv, symObjAddr: 0x348, symBinAddr: 0x19144, symSize: 0x10 }
  - { offsetInCU: 0x6006, offset: 0x1AC5FD, size: 0x8, addend: 0x0, symName: __ZN4grpc11CoreCodegen14gpr_inf_futureE14gpr_clock_type, symObjAddr: 0x358, symBinAddr: 0x19154, symSize: 0x8 }
  - { offsetInCU: 0x6064, offset: 0x1AC65B, size: 0x8, addend: 0x0, symName: __ZN4grpc11CoreCodegen10gpr_time_0E14gpr_clock_type, symObjAddr: 0x360, symBinAddr: 0x1915C, symSize: 0x8 }
  - { offsetInCU: 0x60C2, offset: 0x1AC6B9, size: 0x8, addend: 0x0, symName: __ZN4grpc11CoreCodegen11assert_failEPKcS2_i, symObjAddr: 0x368, symBinAddr: 0x19164, symSize: 0x30 }
  - { offsetInCU: 0x6159, offset: 0x1AC750, size: 0x8, addend: 0x0, symName: __ZN4grpc11CoreCodegenD1Ev, symObjAddr: 0x398, symBinAddr: 0x19194, symSize: 0x4 }
  - { offsetInCU: 0x6184, offset: 0x1AC77B, size: 0x8, addend: 0x0, symName: __ZN4grpc11CoreCodegenD0Ev, symObjAddr: 0x39C, symBinAddr: 0x19198, symSize: 0x4 }
  - { offsetInCU: 0x62D, offset: 0x1ACDD8, size: 0x8, addend: 0x0, symName: __ZN4grpc12experimental35CreateCustomChannelWithInterceptorsERKNSt3__112basic_stringIcNS1_11char_traitsIcEENS1_9allocatorIcEEEERKNS1_10shared_ptrINS_18ChannelCredentialsEEERKNS_16ChannelArgumentsENS1_6vectorINS1_10unique_ptrINS0_33ClientInterceptorFactoryInterfaceENS1_14default_deleteISK_EEEENS5_ISN_EEEE, symObjAddr: 0x1DC, symBinAddr: 0x19374, symSize: 0x1B0 }
  - { offsetInCU: 0xC28, offset: 0x1AD3D3, size: 0x8, addend: 0x0, symName: __ZN4grpc13CreateChannelERKNSt3__112basic_stringIcNS0_11char_traitsIcEENS0_9allocatorIcEEEERKNS0_10shared_ptrINS_18ChannelCredentialsEEE, symObjAddr: 0x0, symBinAddr: 0x1919C, symSize: 0x6C }
  - { offsetInCU: 0xC92, offset: 0x1AD43D, size: 0x8, addend: 0x0, symName: __ZN4grpc19CreateCustomChannelERKNSt3__112basic_stringIcNS0_11char_traitsIcEENS0_9allocatorIcEEEERKNS0_10shared_ptrINS_18ChannelCredentialsEEERKNS_16ChannelArgumentsE, symObjAddr: 0x6C, symBinAddr: 0x19208, symSize: 0x16C }
  - { offsetInCU: 0x827, offset: 0x1B7171, size: 0x8, addend: 0x0, symName: __ZN4grpc21CreateChannelInternalERKNSt3__112basic_stringIcNS0_11char_traitsIcEENS0_9allocatorIcEEEEP12grpc_channelNS0_6vectorINS0_10unique_ptrINS_12experimental33ClientInterceptorFactoryInterfaceENS0_14default_deleteISE_EEEENS4_ISH_EEEE, symObjAddr: 0x0, symBinAddr: 0x19524, symSize: 0xB4 }
  - { offsetInCU: 0x5A99, offset: 0x1BC3E3, size: 0x8, addend: 0x0, symName: __ZNSt3__110shared_ptrIN4grpc7ChannelEE18__enable_weak_thisB7v160006IS2_S2_vEEvPKNS_23enable_shared_from_thisIT_EEPT0_, symObjAddr: 0x1F0, symBinAddr: 0x19654, symSize: 0xB0 }
  - { offsetInCU: 0x7CBF, offset: 0x1BE609, size: 0x8, addend: 0x0, symName: __ZNSt3__110shared_ptrIN4grpc7ChannelEEC2IS2_vEEPT_, symObjAddr: 0x174, symBinAddr: 0x195D8, symSize: 0x7C }
  - { offsetInCU: 0x86D0, offset: 0x1BF01A, size: 0x8, addend: 0x0, symName: __ZNSt3__120__shared_ptr_pointerIPN4grpc7ChannelENS_10shared_ptrIS2_E27__shared_ptr_default_deleteIS2_S2_EENS_9allocatorIS2_EEED1Ev, symObjAddr: 0x2A0, symBinAddr: 0x19704, symSize: 0x4 }
  - { offsetInCU: 0x86F2, offset: 0x1BF03C, size: 0x8, addend: 0x0, symName: __ZNSt3__120__shared_ptr_pointerIPN4grpc7ChannelENS_10shared_ptrIS2_E27__shared_ptr_default_deleteIS2_S2_EENS_9allocatorIS2_EEED1Ev, symObjAddr: 0x2A0, symBinAddr: 0x19704, symSize: 0x4 }
  - { offsetInCU: 0x8728, offset: 0x1BF072, size: 0x8, addend: 0x0, symName: __ZNSt3__120__shared_ptr_pointerIPN4grpc7ChannelENS_10shared_ptrIS2_E27__shared_ptr_default_deleteIS2_S2_EENS_9allocatorIS2_EEED0Ev, symObjAddr: 0x2A4, symBinAddr: 0x19708, symSize: 0x14 }
  - { offsetInCU: 0x878B, offset: 0x1BF0D5, size: 0x8, addend: 0x0, symName: __ZNSt3__120__shared_ptr_pointerIPN4grpc7ChannelENS_10shared_ptrIS2_E27__shared_ptr_default_deleteIS2_S2_EENS_9allocatorIS2_EEE16__on_zero_sharedEv, symObjAddr: 0x2B8, symBinAddr: 0x1971C, symSize: 0x24 }
  - { offsetInCU: 0x87CE, offset: 0x1BF118, size: 0x8, addend: 0x0, symName: __ZNKSt3__120__shared_ptr_pointerIPN4grpc7ChannelENS_10shared_ptrIS2_E27__shared_ptr_default_deleteIS2_S2_EENS_9allocatorIS2_EEE13__get_deleterERKSt9type_info, symObjAddr: 0x2DC, symBinAddr: 0x19740, symSize: 0x3C }
  - { offsetInCU: 0x88C1, offset: 0x1BF20B, size: 0x8, addend: 0x0, symName: __ZNSt3__120__shared_ptr_pointerIPN4grpc7ChannelENS_10shared_ptrIS2_E27__shared_ptr_default_deleteIS2_S2_EENS_9allocatorIS2_EEE21__on_zero_shared_weakEv, symObjAddr: 0x318, symBinAddr: 0x1977C, symSize: 0x4 }
  - { offsetInCU: 0x88F6, offset: 0x1BF240, size: 0x8, addend: 0x0, symName: __ZNSt3__120__shared_ptr_pointerIPN4grpc7ChannelENS_10shared_ptrIS2_E27__shared_ptr_default_deleteIS2_S2_EENS_9allocatorIS2_EEE21__on_zero_shared_weakEv, symObjAddr: 0x318, symBinAddr: 0x1977C, symSize: 0x4 }
  - { offsetInCU: 0x891A, offset: 0x1BF264, size: 0x8, addend: 0x0, symName: __ZNSt3__120__shared_ptr_pointerIPN4grpc7ChannelENS_10shared_ptrIS2_E27__shared_ptr_default_deleteIS2_S2_EENS_9allocatorIS2_EEE21__on_zero_shared_weakEv, symObjAddr: 0x318, symBinAddr: 0x1977C, symSize: 0x4 }
  - { offsetInCU: 0x8946, offset: 0x1BF290, size: 0x8, addend: 0x0, symName: __ZNSt3__120__shared_ptr_pointerIPN4grpc7ChannelENS_10shared_ptrIS2_E27__shared_ptr_default_deleteIS2_S2_EENS_9allocatorIS2_EEE21__on_zero_shared_weakEv, symObjAddr: 0x318, symBinAddr: 0x1977C, symSize: 0x4 }
  - { offsetInCU: 0x896D, offset: 0x1BF2B7, size: 0x8, addend: 0x0, symName: __ZNSt3__120__shared_ptr_pointerIPN4grpc7ChannelENS_10shared_ptrIS2_E27__shared_ptr_default_deleteIS2_S2_EENS_9allocatorIS2_EEE21__on_zero_shared_weakEv, symObjAddr: 0x318, symBinAddr: 0x1977C, symSize: 0x4 }
  - { offsetInCU: 0x26, offset: 0x1BF341, size: 0x8, addend: 0x0, symName: __ZN4grpc23CreateDefaultThreadPoolEv, symObjAddr: 0x0, symBinAddr: 0x19780, symSize: 0xC }
  - { offsetInCU: 0x47, offset: 0x1BF362, size: 0x8, addend: 0x0, symName: __ZN4grpc12_GLOBAL__N_110g_ctp_implE, symObjAddr: 0x80, symBinAddr: 0x68BB0, symSize: 0x0 }
  - { offsetInCU: 0x54, offset: 0x1BF36F, size: 0x8, addend: 0x0, symName: __ZN4grpc12_GLOBAL__N_127CreateDefaultThreadPoolImplEv, symObjAddr: 0x18, symBinAddr: 0x19798, symSize: 0x54 }
  - { offsetInCU: 0xF8, offset: 0x1BF413, size: 0x8, addend: 0x0, symName: __ZN4grpc23CreateDefaultThreadPoolEv, symObjAddr: 0x0, symBinAddr: 0x19780, symSize: 0xC }
  - { offsetInCU: 0x123, offset: 0x1BF43E, size: 0x8, addend: 0x0, symName: __ZN4grpc19SetCreateThreadPoolEPFPNS_19ThreadPoolInterfaceEvE, symObjAddr: 0xC, symBinAddr: 0x1978C, symSize: 0xC }
  - { offsetInCU: 0x44, offset: 0x1C366B, size: 0x8, addend: 0x0, symName: __ZN4grpcL17g_gli_initializerE, symObjAddr: 0x4EF18, symBinAddr: 0x68C58, symSize: 0x0 }
  - { offsetInCU: 0x8836, offset: 0x1CBE5D, size: 0x8, addend: 0x0, symName: __ZN4grpc18ChannelCredentialsC2Ev, symObjAddr: 0x0, symBinAddr: 0x197EC, symSize: 0x24 }
  - { offsetInCU: 0x88F8, offset: 0x1CBF1F, size: 0x8, addend: 0x0, symName: __ZN4grpc18ChannelCredentialsD2Ev, symObjAddr: 0x140, symBinAddr: 0x19810, symSize: 0x4 }
  - { offsetInCU: 0x8926, offset: 0x1CBF4D, size: 0x8, addend: 0x0, symName: __ZN4grpc18ChannelCredentialsD2Ev, symObjAddr: 0x140, symBinAddr: 0x19810, symSize: 0x4 }
  - { offsetInCU: 0x893A, offset: 0x1CBF61, size: 0x8, addend: 0x0, symName: __ZN4grpc18ChannelCredentialsD1Ev, symObjAddr: 0x144, symBinAddr: 0x19814, symSize: 0x4 }
  - { offsetInCU: 0x8963, offset: 0x1CBF8A, size: 0x8, addend: 0x0, symName: __ZN4grpc18ChannelCredentialsD0Ev, symObjAddr: 0x148, symBinAddr: 0x19818, symSize: 0x4 }
  - { offsetInCU: 0x898C, offset: 0x1CBFB3, size: 0x8, addend: 0x0, symName: __ZN4grpc15CallCredentialsC2Ev, symObjAddr: 0x14C, symBinAddr: 0x1981C, symSize: 0x24 }
  - { offsetInCU: 0x89D4, offset: 0x1CBFFB, size: 0x8, addend: 0x0, symName: __ZN4grpc15CallCredentialsD2Ev, symObjAddr: 0x170, symBinAddr: 0x19840, symSize: 0x4 }
  - { offsetInCU: 0x8A02, offset: 0x1CC029, size: 0x8, addend: 0x0, symName: __ZN4grpc15CallCredentialsD2Ev, symObjAddr: 0x170, symBinAddr: 0x19840, symSize: 0x4 }
  - { offsetInCU: 0x8A16, offset: 0x1CC03D, size: 0x8, addend: 0x0, symName: __ZN4grpc15CallCredentialsD1Ev, symObjAddr: 0x174, symBinAddr: 0x19844, symSize: 0x4 }
  - { offsetInCU: 0x8A3F, offset: 0x1CC066, size: 0x8, addend: 0x0, symName: __ZN4grpc15CallCredentialsD0Ev, symObjAddr: 0x178, symBinAddr: 0x19848, symSize: 0x4 }
  - { offsetInCU: 0x8AB3, offset: 0x1CC0DA, size: 0x8, addend: 0x0, symName: __ZN4grpc18ChannelCredentials29CreateChannelWithInterceptorsERKNSt3__112basic_stringIcNS1_11char_traitsIcEENS1_9allocatorIcEEEERKNS_16ChannelArgumentsENS1_6vectorINS1_10unique_ptrINS_12experimental33ClientInterceptorFactoryInterfaceENS1_14default_deleteISG_EEEENS5_ISJ_EEEE, symObjAddr: 0x17C, symBinAddr: 0x1984C, symSize: 0x8 }
  - { offsetInCU: 0x8AF9, offset: 0x1CC120, size: 0x8, addend: 0x0, symName: __ZN4grpc18ChannelCredentials29CreateChannelWithInterceptorsERKNSt3__112basic_stringIcNS1_11char_traitsIcEENS1_9allocatorIcEEEERKNS_16ChannelArgumentsENS1_6vectorINS1_10unique_ptrINS_12experimental33ClientInterceptorFactoryInterfaceENS1_14default_deleteISG_EEEENS5_ISJ_EEEE, symObjAddr: 0x17C, symBinAddr: 0x1984C, symSize: 0x8 }
  - { offsetInCU: 0x8B1C, offset: 0x1CC143, size: 0x8, addend: 0x0, symName: __ZN4grpc18ChannelCredentials29CreateChannelWithInterceptorsERKNSt3__112basic_stringIcNS1_11char_traitsIcEENS1_9allocatorIcEEEERKNS_16ChannelArgumentsENS1_6vectorINS1_10unique_ptrINS_12experimental33ClientInterceptorFactoryInterfaceENS1_14default_deleteISG_EEEENS5_ISJ_EEEE, symObjAddr: 0x17C, symBinAddr: 0x1984C, symSize: 0x8 }
  - { offsetInCU: 0x8B3F, offset: 0x1CC166, size: 0x8, addend: 0x0, symName: __ZNK4grpc18ChannelCredentials10IsInsecureEv, symObjAddr: 0x184, symBinAddr: 0x19854, symSize: 0x8 }
  - { offsetInCU: 0x8B96, offset: 0x1CC1BD, size: 0x8, addend: 0x0, symName: __ZN4grpc15CallCredentials11DebugStringEv, symObjAddr: 0x18C, symBinAddr: 0x1985C, symSize: 0x10 }
  - { offsetInCU: 0x65, offset: 0x1CC700, size: 0x8, addend: 0x0, symName: __ZN4grpc12_GLOBAL__N_122kHealthCheckMethodNameE, symObjAddr: 0xA58D, symBinAddr: 0x4E934, symSize: 0x0 }
  - { offsetInCU: 0x7E, offset: 0x1CC719, size: 0x8, addend: 0x0, symName: __ZN4grpc12_GLOBAL__N_122kHealthWatchMethodNameE, symObjAddr: 0xA5AA, symBinAddr: 0x4E951, symSize: 0x0 }
  - { offsetInCU: 0x1285, offset: 0x1CD920, size: 0x8, addend: 0x0, symName: __ZN4grpc8internalL22kBinaryErrorDetailsKeyE, symObjAddr: 0xA9CA, symBinAddr: 0x4EB96, symSize: 0x0 }
  - { offsetInCU: 0x1851, offset: 0x1CDEEC, size: 0x8, addend: 0x0, symName: __ZN4grpc8internal17FillMetadataArrayERKNSt3__18multimapINS1_12basic_stringIcNS1_11char_traitsIcEENS1_9allocatorIcEEEES8_NS1_4lessIS8_EENS6_INS1_4pairIKS8_S8_EEEEEEPmRSC_, symObjAddr: 0x534C, symBinAddr: 0x1E770, symSize: 0x22C }
  - { offsetInCU: 0x12D29, offset: 0x1DF3C4, size: 0x8, addend: 0x0, symName: __ZNSt3__1L19piecewise_constructE, symObjAddr: 0xAB2E, symBinAddr: 0x4EC4B, symSize: 0x0 }
  - { offsetInCU: 0x1DC15, offset: 0x1EA2B0, size: 0x8, addend: 0x0, symName: __ZNSt3__119__allocate_at_leastB7v160006INS_9allocatorINS_10unique_ptrIN4grpc8internal16RpcServiceMethodENS_14default_deleteIS5_EEEEEEEENS_19__allocation_resultINS_16allocator_traitsIT_E7pointerEEERSC_m, symObjAddr: 0x3168, symBinAddr: 0x1C830, symSize: 0x34 }
  - { offsetInCU: 0x1E5C9, offset: 0x1EAC64, size: 0x8, addend: 0x0, symName: __ZNSt3__115allocate_sharedB7v160006IN4grpc25DefaultHealthCheckService22HealthCheckServiceImpl16CheckCallHandlerENS_9allocatorIS4_EEJRPNS1_21ServerCompletionQueueERPS2_RPS3_EvEENS_10shared_ptrIT_EERKT0_DpOT1_, symObjAddr: 0x6D48, symBinAddr: 0x1FFE4, symSize: 0x70 }
  - { offsetInCU: 0x1F0B9, offset: 0x1EB754, size: 0x8, addend: 0x0, symName: __ZNSt3__115allocate_sharedB7v160006IN4grpc25DefaultHealthCheckService22HealthCheckServiceImpl16WatchCallHandlerENS_9allocatorIS4_EEJRPNS1_21ServerCompletionQueueERPS2_RPS3_EvEENS_10shared_ptrIT_EERKT0_DpOT1_, symObjAddr: 0x7DD4, symBinAddr: 0x20F80, symSize: 0x70 }
  - { offsetInCU: 0x20A48, offset: 0x1ED0E3, size: 0x8, addend: 0x0, symName: __ZNSt3__113__tree_removeB7v160006IPNS_16__tree_node_baseIPvEEEEvT_S5_, symObjAddr: 0x66D0, symBinAddr: 0x1F9C8, symSize: 0x384 }
  - { offsetInCU: 0x23635, offset: 0x1EFCD0, size: 0x8, addend: 0x0, symName: __ZN4grpc8internal9CallOpSetINS0_25CallOpSendInitialMetadataENS0_17CallOpSendMessageENS0_22CallOpServerSendStatusENS0_8CallNoOpILi4EEENS5_ILi5EEENS5_ILi6EEEE32ContinueFillOpsAfterInterceptionEv, symObjAddr: 0x3908, symBinAddr: 0x1CF5C, symSize: 0x104 }
  - { offsetInCU: 0x2378F, offset: 0x1EFE2A, size: 0x8, addend: 0x0, symName: __ZN4grpc8internal9CallOpSetINS0_25CallOpSendInitialMetadataENS0_8CallNoOpILi2EEENS3_ILi3EEENS3_ILi4EEENS3_ILi5EEENS3_ILi6EEEE32ContinueFillOpsAfterInterceptionEv, symObjAddr: 0x5720, symBinAddr: 0x1EB44, symSize: 0xE4 }
  - { offsetInCU: 0x238A0, offset: 0x1EFF3B, size: 0x8, addend: 0x0, symName: __ZN4grpc8internal9CallOpSetINS0_25CallOpSendInitialMetadataENS0_22CallOpServerSendStatusENS0_8CallNoOpILi3EEENS4_ILi4EEENS4_ILi5EEENS4_ILi6EEEE32ContinueFillOpsAfterInterceptionEv, symObjAddr: 0x5C5C, symBinAddr: 0x1F080, symSize: 0xF4 }
  - { offsetInCU: 0x27297, offset: 0x1F3932, size: 0x8, addend: 0x0, symName: __ZN4grpc25DefaultHealthCheckServiceC2Ev, symObjAddr: 0x0, symBinAddr: 0x19878, symSize: 0x10C }
  - { offsetInCU: 0x27A71, offset: 0x1F410C, size: 0x8, addend: 0x0, symName: __ZNSt3__16__treeINS_12__value_typeINS_12basic_stringIcNS_11char_traitsIcEENS_9allocatorIcEEEEN4grpc25DefaultHealthCheckService11ServiceDataEEENS_19__map_value_compareIS7_SB_NS_4lessIS7_EELb1EEENS5_ISB_EEE25__emplace_unique_key_argsIS7_JRKNS_21piecewise_construct_tENS_5tupleIJOS7_EEENSM_IJEEEEEENS_4pairINS_15__tree_iteratorISB_PNS_11__tree_nodeISB_PvEElEEbEERKT_DpOT0_, symObjAddr: 0x6184, symBinAddr: 0x1F4F8, symSize: 0xA8 }
  - { offsetInCU: 0x27E5B, offset: 0x1F44F6, size: 0x8, addend: 0x0, symName: __ZN4grpc25DefaultHealthCheckService11ServiceData16SetServingStatusENS0_13ServingStatusE, symObjAddr: 0x10C, symBinAddr: 0x19984, symSize: 0xF8 }
  - { offsetInCU: 0x2819C, offset: 0x1F4837, size: 0x8, addend: 0x0, symName: __ZNSt3__16__treeINS_12__value_typeINS_12basic_stringIcNS_11char_traitsIcEENS_9allocatorIcEEEEN4grpc25DefaultHealthCheckService11ServiceDataEEENS_19__map_value_compareIS7_SB_NS_4lessIS7_EELb1EEENS5_ISB_EEE7destroyEPNS_11__tree_nodeISB_PvEE, symObjAddr: 0x60B0, symBinAddr: 0x1F424, symSize: 0x4C }
  - { offsetInCU: 0x284B7, offset: 0x1F4B52, size: 0x8, addend: 0x0, symName: __ZNSt3__110shared_ptrIN4grpc25DefaultHealthCheckService22HealthCheckServiceImpl11CallHandlerEED2B7v160006Ev, symObjAddr: 0x6058, symBinAddr: 0x1F3CC, symSize: 0x58 }
  - { offsetInCU: 0x28544, offset: 0x1F4BDF, size: 0x8, addend: 0x0, symName: __ZN4grpc25DefaultHealthCheckServiceC1Ev, symObjAddr: 0x204, symBinAddr: 0x19A7C, symSize: 0x4 }
  - { offsetInCU: 0x28572, offset: 0x1F4C0D, size: 0x8, addend: 0x0, symName: __ZN4grpc25DefaultHealthCheckServiceC1Ev, symObjAddr: 0x204, symBinAddr: 0x19A7C, symSize: 0x4 }
  - { offsetInCU: 0x2865C, offset: 0x1F4CF7, size: 0x8, addend: 0x0, symName: __ZN4grpc25DefaultHealthCheckService16SetServingStatusERKNSt3__112basic_stringIcNS1_11char_traitsIcEENS1_9allocatorIcEEEEb, symObjAddr: 0x208, symBinAddr: 0x19A80, symSize: 0xAC }
  - { offsetInCU: 0x2882E, offset: 0x1F4EC9, size: 0x8, addend: 0x0, symName: __ZNSt3__16__treeINS_12__value_typeINS_12basic_stringIcNS_11char_traitsIcEENS_9allocatorIcEEEEN4grpc25DefaultHealthCheckService11ServiceDataEEENS_19__map_value_compareIS7_SB_NS_4lessIS7_EELb1EEENS5_ISB_EEE25__emplace_unique_key_argsIS7_JRKNS_21piecewise_construct_tENS_5tupleIJRKS7_EEENSM_IJEEEEEENS_4pairINS_15__tree_iteratorISB_PNS_11__tree_nodeISB_PvEElEEbEERKT_DpOT0_, symObjAddr: 0x63DC, symBinAddr: 0x1F6D4, symSize: 0x94 }
  - { offsetInCU: 0x28A87, offset: 0x1F5122, size: 0x8, addend: 0x0, symName: __ZN4grpc25DefaultHealthCheckService16SetServingStatusEb, symObjAddr: 0x2B4, symBinAddr: 0x19B2C, symSize: 0xBC }
  - { offsetInCU: 0x28DAD, offset: 0x1F5448, size: 0x8, addend: 0x0, symName: __ZN4grpc25DefaultHealthCheckService8ShutdownEv, symObjAddr: 0x370, symBinAddr: 0x19BE8, symSize: 0xB8 }
  - { offsetInCU: 0x29137, offset: 0x1F57D2, size: 0x8, addend: 0x0, symName: __ZNK4grpc25DefaultHealthCheckService16GetServingStatusERKNSt3__112basic_stringIcNS1_11char_traitsIcEENS1_9allocatorIcEEEE, symObjAddr: 0x428, symBinAddr: 0x19CA0, symSize: 0x80 }
  - { offsetInCU: 0x29354, offset: 0x1F59EF, size: 0x8, addend: 0x0, symName: __ZNKSt3__16__treeINS_12__value_typeINS_12basic_stringIcNS_11char_traitsIcEENS_9allocatorIcEEEEN4grpc25DefaultHealthCheckService11ServiceDataEEENS_19__map_value_compareIS7_SB_NS_4lessIS7_EELb1EEENS5_ISB_EEE4findIS7_EENS_21__tree_const_iteratorISB_PNS_11__tree_nodeISB_PvEElEERKT_, symObjAddr: 0x6500, symBinAddr: 0x1F7F8, symSize: 0x8C }
  - { offsetInCU: 0x29580, offset: 0x1F5C1B, size: 0x8, addend: 0x0, symName: __ZN4grpc25DefaultHealthCheckService19RegisterCallHandlerERKNSt3__112basic_stringIcNS1_11char_traitsIcEENS1_9allocatorIcEEEENS1_10shared_ptrINS0_22HealthCheckServiceImpl11CallHandlerEEE, symObjAddr: 0x4A8, symBinAddr: 0x19D20, symSize: 0x164 }
  - { offsetInCU: 0x29AC4, offset: 0x1F615F, size: 0x8, addend: 0x0, symName: __ZNSt3__16__treeINS_10shared_ptrIN4grpc25DefaultHealthCheckService22HealthCheckServiceImpl11CallHandlerEEENS_4lessIS6_EENS_9allocatorIS6_EEE25__emplace_unique_key_argsIS6_JS6_EEENS_4pairINS_15__tree_iteratorIS6_PNS_11__tree_nodeIS6_PvEElEEbEERKT_DpOT0_, symObjAddr: 0x6A54, symBinAddr: 0x1FD4C, symSize: 0xE0 }
  - { offsetInCU: 0x29ECC, offset: 0x1F6567, size: 0x8, addend: 0x0, symName: __ZN4grpc25DefaultHealthCheckService11ServiceData14AddCallHandlerENSt3__110shared_ptrINS0_22HealthCheckServiceImpl11CallHandlerEEE, symObjAddr: 0x60C, symBinAddr: 0x19E84, symSize: 0xC }
  - { offsetInCU: 0x2A01C, offset: 0x1F66B7, size: 0x8, addend: 0x0, symName: __ZN4grpc25DefaultHealthCheckService21UnregisterCallHandlerERKNSt3__112basic_stringIcNS1_11char_traitsIcEENS1_9allocatorIcEEEERKNS1_10shared_ptrINS0_22HealthCheckServiceImpl11CallHandlerEEE, symObjAddr: 0x618, symBinAddr: 0x19E90, symSize: 0xB0 }
  - { offsetInCU: 0x2A31B, offset: 0x1F69B6, size: 0x8, addend: 0x0, symName: __ZNSt3__16__treeINS_12__value_typeINS_12basic_stringIcNS_11char_traitsIcEENS_9allocatorIcEEEEN4grpc25DefaultHealthCheckService11ServiceDataEEENS_19__map_value_compareIS7_SB_NS_4lessIS7_EELb1EEENS5_ISB_EEE4findIS7_EENS_15__tree_iteratorISB_PNS_11__tree_nodeISB_PvEElEERKT_, symObjAddr: 0x658C, symBinAddr: 0x1F884, symSize: 0x8C }
  - { offsetInCU: 0x2A474, offset: 0x1F6B0F, size: 0x8, addend: 0x0, symName: __ZNSt3__16__treeINS_10shared_ptrIN4grpc25DefaultHealthCheckService22HealthCheckServiceImpl11CallHandlerEEENS_4lessIS6_EENS_9allocatorIS6_EEE14__erase_uniqueIS6_EEmRKT_, symObjAddr: 0x6BCC, symBinAddr: 0x1FEC4, symSize: 0x84 }
  - { offsetInCU: 0x2A750, offset: 0x1F6DEB, size: 0x8, addend: 0x0, symName: __ZNSt3__16__treeINS_12__value_typeINS_12basic_stringIcNS_11char_traitsIcEENS_9allocatorIcEEEEN4grpc25DefaultHealthCheckService11ServiceDataEEENS_19__map_value_compareIS7_SB_NS_4lessIS7_EELb1EEENS5_ISB_EEE5eraseENS_21__tree_const_iteratorISB_PNS_11__tree_nodeISB_PvEElEE, symObjAddr: 0x6618, symBinAddr: 0x1F910, symSize: 0x48 }
  - { offsetInCU: 0x2A8EB, offset: 0x1F6F86, size: 0x8, addend: 0x0, symName: __ZN4grpc25DefaultHealthCheckService11ServiceData17RemoveCallHandlerERKNSt3__110shared_ptrINS0_22HealthCheckServiceImpl11CallHandlerEEE, symObjAddr: 0x6C8, symBinAddr: 0x19F40, symSize: 0x8 }
  - { offsetInCU: 0x2ABA6, offset: 0x1F7241, size: 0x8, addend: 0x0, symName: __ZN4grpc25DefaultHealthCheckService21GetHealthCheckServiceENSt3__110unique_ptrINS_21ServerCompletionQueueENS1_14default_deleteIS3_EEEE, symObjAddr: 0x6D0, symBinAddr: 0x19F48, symSize: 0xBC }
  - { offsetInCU: 0x2AF45, offset: 0x1F75E0, size: 0x8, addend: 0x0, symName: __ZN4grpc25DefaultHealthCheckService22HealthCheckServiceImplC2EPS0_NSt3__110unique_ptrINS_21ServerCompletionQueueENS3_14default_deleteIS5_EEEE, symObjAddr: 0x78C, symBinAddr: 0x1A004, symSize: 0x18C }
  - { offsetInCU: 0x2B6D1, offset: 0x1F7D6C, size: 0x8, addend: 0x0, symName: __ZN4grpc25DefaultHealthCheckService21GetHealthCheckServiceENSt3__110unique_ptrINS_21ServerCompletionQueueENS1_14default_deleteIS3_EEEE.cold.1, symObjAddr: 0x8710, symBinAddr: 0x48DA0, symSize: 0x34 }
  - { offsetInCU: 0x2BBF6, offset: 0x1F8291, size: 0x8, addend: 0x0, symName: __ZN4grpc7Service9AddMethodEPNS_8internal16RpcServiceMethodE, symObjAddr: 0x918, symBinAddr: 0x1A190, symSize: 0x104 }
  - { offsetInCU: 0x2C183, offset: 0x1F881E, size: 0x8, addend: 0x0, symName: __ZN4grpc25DefaultHealthCheckService22HealthCheckServiceImpl5ServeEPv, symObjAddr: 0xA1C, symBinAddr: 0x1A294, symSize: 0x90 }
  - { offsetInCU: 0x2C18E, offset: 0x1F8829, size: 0x8, addend: 0x0, symName: __ZNSt3__110unique_ptrIN9grpc_core6ThreadENS_14default_deleteIS2_EEE5resetB7v160006EPS2_, symObjAddr: 0x6CC0, symBinAddr: 0x1FFB8, symSize: 0x2C }
  - { offsetInCU: 0x2C21E, offset: 0x1F88B9, size: 0x8, addend: 0x0, symName: __ZNSt3__16vectorINS_10unique_ptrIN4grpc8internal16RpcServiceMethodENS_14default_deleteIS4_EEEENS_9allocatorIS7_EEED2B7v160006Ev, symObjAddr: 0x3260, symBinAddr: 0x1C900, symSize: 0x38 }
  - { offsetInCU: 0x2C922, offset: 0x1F8FBD, size: 0x8, addend: 0x0, symName: __ZNSt3__114__split_bufferINS_10unique_ptrIN4grpc8internal16RpcServiceMethodENS_14default_deleteIS4_EEEERNS_9allocatorIS7_EEED2Ev, symObjAddr: 0x3210, symBinAddr: 0x1C8B0, symSize: 0x50 }
  - { offsetInCU: 0x2CAF0, offset: 0x1F918B, size: 0x8, addend: 0x0, symName: __ZNKSt3__16vectorINS_10unique_ptrIN4grpc8internal16RpcServiceMethodENS_14default_deleteIS4_EEEENS_9allocatorIS7_EEE20__throw_length_errorB7v160006Ev, symObjAddr: 0x30E0, symBinAddr: 0x1C81C, symSize: 0x14 }
  - { offsetInCU: 0x2CBB5, offset: 0x1F9250, size: 0x8, addend: 0x0, symName: __ZN4grpc25DefaultHealthCheckService22HealthCheckServiceImpl5ServeEPv, symObjAddr: 0xA1C, symBinAddr: 0x1A294, symSize: 0x90 }
  - { offsetInCU: 0x2CCF3, offset: 0x1F938E, size: 0x8, addend: 0x0, symName: __ZN4grpc25DefaultHealthCheckService22HealthCheckServiceImplC1EPS0_NSt3__110unique_ptrINS_21ServerCompletionQueueENS3_14default_deleteIS5_EEEE, symObjAddr: 0xAAC, symBinAddr: 0x1A324, symSize: 0x4 }
  - { offsetInCU: 0x2CCFE, offset: 0x1F9399, size: 0x8, addend: 0x0, symName: __ZN4grpc25DefaultHealthCheckService22HealthCheckServiceImpl11CallableTag3RunEb, symObjAddr: 0x1368, symBinAddr: 0x1AB20, symSize: 0xB0 }
  - { offsetInCU: 0x2CF89, offset: 0x1F9624, size: 0x8, addend: 0x0, symName: __ZN4grpc25DefaultHealthCheckService22HealthCheckServiceImpl5ServeEPv.cold.1, symObjAddr: 0x8744, symBinAddr: 0x48DD4, symSize: 0x34 }
  - { offsetInCU: 0x2CFA1, offset: 0x1F963C, size: 0x8, addend: 0x0, symName: __ZN4grpc25DefaultHealthCheckService22HealthCheckServiceImplC1EPS0_NSt3__110unique_ptrINS_21ServerCompletionQueueENS3_14default_deleteIS5_EEEE, symObjAddr: 0xAAC, symBinAddr: 0x1A324, symSize: 0x4 }
  - { offsetInCU: 0x2CFD3, offset: 0x1F966E, size: 0x8, addend: 0x0, symName: __ZN4grpc25DefaultHealthCheckService22HealthCheckServiceImplC1EPS0_NSt3__110unique_ptrINS_21ServerCompletionQueueENS3_14default_deleteIS5_EEEE, symObjAddr: 0xAAC, symBinAddr: 0x1A324, symSize: 0x4 }
  - { offsetInCU: 0x2D065, offset: 0x1F9700, size: 0x8, addend: 0x0, symName: __ZN4grpc25DefaultHealthCheckService22HealthCheckServiceImplD2Ev, symObjAddr: 0xAB0, symBinAddr: 0x1A328, symSize: 0xB8 }
  - { offsetInCU: 0x2D3D2, offset: 0x1F9A6D, size: 0x8, addend: 0x0, symName: __ZN4grpc25DefaultHealthCheckService22HealthCheckServiceImplD1Ev, symObjAddr: 0xBD8, symBinAddr: 0x1A3E0, symSize: 0x4 }
  - { offsetInCU: 0x2D3E7, offset: 0x1F9A82, size: 0x8, addend: 0x0, symName: __ZN4grpc25DefaultHealthCheckService22HealthCheckServiceImplD1Ev, symObjAddr: 0xBD8, symBinAddr: 0x1A3E0, symSize: 0x4 }
  - { offsetInCU: 0x2D40A, offset: 0x1F9AA5, size: 0x8, addend: 0x0, symName: __ZN4grpc25DefaultHealthCheckService22HealthCheckServiceImplD1Ev, symObjAddr: 0xBD8, symBinAddr: 0x1A3E0, symSize: 0x4 }
  - { offsetInCU: 0x2D43A, offset: 0x1F9AD5, size: 0x8, addend: 0x0, symName: __ZN4grpc25DefaultHealthCheckService22HealthCheckServiceImplD0Ev, symObjAddr: 0xBDC, symBinAddr: 0x1A3E4, symSize: 0x14 }
  - { offsetInCU: 0x2D4AE, offset: 0x1F9B49, size: 0x8, addend: 0x0, symName: __ZN4grpc25DefaultHealthCheckService22HealthCheckServiceImpl18StartServingThreadEv, symObjAddr: 0xBF0, symBinAddr: 0x1A3F8, symSize: 0x3C }
  - { offsetInCU: 0x2D56B, offset: 0x1F9C06, size: 0x8, addend: 0x0, symName: __ZN4grpc25DefaultHealthCheckService22HealthCheckServiceImpl16CheckCallHandler14CreateAndStartEPNS_21ServerCompletionQueueEPS0_PS1_, symObjAddr: 0xC2C, symBinAddr: 0x1A434, symSize: 0x2B0 }
  - { offsetInCU: 0x2E00A, offset: 0x1FA6A5, size: 0x8, addend: 0x0, symName: __ZN4grpc25DefaultHealthCheckService22HealthCheckServiceImpl16WatchCallHandler14CreateAndStartEPNS_21ServerCompletionQueueEPS0_PS1_, symObjAddr: 0xEDC, symBinAddr: 0x1A6E4, symSize: 0x43C }
  - { offsetInCU: 0x2F19E, offset: 0x1FB839, size: 0x8, addend: 0x0, symName: __ZN4grpc25DefaultHealthCheckService22HealthCheckServiceImpl11CallableTag3RunEb, symObjAddr: 0x1368, symBinAddr: 0x1AB20, symSize: 0xB0 }
  - { offsetInCU: 0x2F805, offset: 0x1FBEA0, size: 0x8, addend: 0x0, symName: __ZN4grpc25DefaultHealthCheckService22HealthCheckServiceImpl11CallableTagC2ENSt3__18functionIFvNS3_10shared_ptrINS1_11CallHandlerEEEbEEES7_, symObjAddr: 0x339C, symBinAddr: 0x1C9F0, symSize: 0xDC }
  - { offsetInCU: 0x2FAC3, offset: 0x1FC15E, size: 0x8, addend: 0x0, symName: __ZNSt3__110__function12__value_funcIFvNS_10shared_ptrIN4grpc25DefaultHealthCheckService22HealthCheckServiceImpl11CallHandlerEEEbEEaSB7v160006EOS9_, symObjAddr: 0x3540, symBinAddr: 0x1CB94, symSize: 0x90 }
  - { offsetInCU: 0x2FB49, offset: 0x1FC1E4, size: 0x8, addend: 0x0, symName: __ZNSt3__110shared_ptrIN4grpc25DefaultHealthCheckService22HealthCheckServiceImpl11CallHandlerEEaSB7v160006EOS5_, symObjAddr: 0x34DC, symBinAddr: 0x1CB30, symSize: 0x64 }
  - { offsetInCU: 0x2FCAE, offset: 0x1FC349, size: 0x8, addend: 0x0, symName: __ZN4grpc15ServerInterface16RequestAsyncCallINS_10ByteBufferEEEvPNS_8internal16RpcServiceMethodEPNS_13ServerContextEPNS3_29ServerAsyncStreamingInterfaceEPNS_15CompletionQueueEPNS_21ServerCompletionQueueEPvPT_, symObjAddr: 0x7008, symBinAddr: 0x2025C, symSize: 0xD8 }
  - { offsetInCU: 0x303F6, offset: 0x1FCA91, size: 0x8, addend: 0x0, symName: __ZN4grpc25DefaultHealthCheckService22HealthCheckServiceImpl11CallableTag3RunEb.cold.1, symObjAddr: 0x8814, symBinAddr: 0x48E08, symSize: 0x34 }
  - { offsetInCU: 0x3040E, offset: 0x1FCAA9, size: 0x8, addend: 0x0, symName: __ZN4grpc25DefaultHealthCheckService22HealthCheckServiceImpl11CallableTag3RunEb.cold.2, symObjAddr: 0x8848, symBinAddr: 0x48E3C, symSize: 0x34 }
  - { offsetInCU: 0x309E2, offset: 0x1FD07D, size: 0x8, addend: 0x0, symName: __ZN4grpc25DefaultHealthCheckService22HealthCheckServiceImpl13DecodeRequestERKNS_10ByteBufferEPNSt3__112basic_stringIcNS5_11char_traitsIcEENS5_9allocatorIcEEEE, symObjAddr: 0x1418, symBinAddr: 0x1ABD0, symSize: 0x1D8 }
  - { offsetInCU: 0x30FEA, offset: 0x1FD685, size: 0x8, addend: 0x0, symName: __ZN4grpc6StatusD1Ev, symObjAddr: 0x15F0, symBinAddr: 0x1ADA8, symSize: 0x40 }
  - { offsetInCU: 0x313FB, offset: 0x1FDA96, size: 0x8, addend: 0x0, symName: __ZN4grpc25DefaultHealthCheckService22HealthCheckServiceImpl14EncodeResponseENS0_13ServingStatusEPNS_10ByteBufferE, symObjAddr: 0x16AC, symBinAddr: 0x1ADE8, symSize: 0x184 }
  - { offsetInCU: 0x31D27, offset: 0x1FE3C2, size: 0x8, addend: 0x0, symName: __ZN4grpc25DefaultHealthCheckService22HealthCheckServiceImpl16CheckCallHandler14OnCallReceivedENSt3__110shared_ptrINS1_11CallHandlerEEEb, symObjAddr: 0x1830, symBinAddr: 0x1AF6C, symSize: 0x4FC }
  - { offsetInCU: 0x33004, offset: 0x1FF69F, size: 0x8, addend: 0x0, symName: __ZN4grpc25ServerAsyncResponseWriterINS_10ByteBufferEE15FinishWithErrorERKNS_6StatusEPv, symObjAddr: 0x1FCC, symBinAddr: 0x1B708, symSize: 0xC8 }
  - { offsetInCU: 0x33197, offset: 0x1FF832, size: 0x8, addend: 0x0, symName: __ZN4grpc25ServerAsyncResponseWriterINS_10ByteBufferEE6FinishERKS1_RKNS_6StatusEPv, symObjAddr: 0x1ECC, symBinAddr: 0x1B608, symSize: 0x100 }
  - { offsetInCU: 0x33676, offset: 0x1FFD11, size: 0x8, addend: 0x0, symName: __ZN4grpc10ByteBufferD2Ev, symObjAddr: 0x3358, symBinAddr: 0x1C9AC, symSize: 0x44 }
  - { offsetInCU: 0x3376D, offset: 0x1FFE08, size: 0x8, addend: 0x0, symName: __ZN4grpc25DefaultHealthCheckService22HealthCheckServiceImpl16CheckCallHandlerC2EPNS_21ServerCompletionQueueEPS0_PS1_, symObjAddr: 0x1D2C, symBinAddr: 0x1B468, symSize: 0xA0 }
  - { offsetInCU: 0x33945, offset: 0x1FFFE0, size: 0x8, addend: 0x0, symName: __ZN4grpc25ServerAsyncResponseWriterINS_10ByteBufferEEC2EPNS_13ServerContextE, symObjAddr: 0x773C, symBinAddr: 0x208E8, symSize: 0xEC }
  - { offsetInCU: 0x33C66, offset: 0x200301, size: 0x8, addend: 0x0, symName: __ZN4grpc25ServerAsyncResponseWriterINS_10ByteBufferEED1Ev, symObjAddr: 0x1DD0, symBinAddr: 0x1B50C, symSize: 0xA8 }
  - { offsetInCU: 0x340ED, offset: 0x200788, size: 0x8, addend: 0x0, symName: __ZN4grpc13ServerContextD1Ev, symObjAddr: 0x1DCC, symBinAddr: 0x1B508, symSize: 0x4 }
  - { offsetInCU: 0x3410F, offset: 0x2007AA, size: 0x8, addend: 0x0, symName: __ZN4grpc13ServerContextD1Ev, symObjAddr: 0x1DCC, symBinAddr: 0x1B508, symSize: 0x4 }
  - { offsetInCU: 0x34299, offset: 0x200934, size: 0x8, addend: 0x0, symName: __ZN4grpc8internal27InterceptorBatchMethodsImplD2Ev, symObjAddr: 0x3AA8, symBinAddr: 0x1D0FC, symSize: 0x90 }
  - { offsetInCU: 0x343DE, offset: 0x200A79, size: 0x8, addend: 0x0, symName: __ZN4grpc25DefaultHealthCheckService22HealthCheckServiceImpl16CheckCallHandlerC1EPNS_21ServerCompletionQueueEPS0_PS1_, symObjAddr: 0x1E78, symBinAddr: 0x1B5B4, symSize: 0x4 }
  - { offsetInCU: 0x34416, offset: 0x200AB1, size: 0x8, addend: 0x0, symName: __ZN4grpc25DefaultHealthCheckService22HealthCheckServiceImpl16CheckCallHandlerC1EPNS_21ServerCompletionQueueEPS0_PS1_, symObjAddr: 0x1E78, symBinAddr: 0x1B5B4, symSize: 0x4 }
  - { offsetInCU: 0x34442, offset: 0x200ADD, size: 0x8, addend: 0x0, symName: __ZN4grpc25DefaultHealthCheckService22HealthCheckServiceImpl16CheckCallHandler12OnFinishDoneENSt3__110shared_ptrINS1_11CallHandlerEEEb, symObjAddr: 0x1E7C, symBinAddr: 0x1B5B8, symSize: 0x50 }
  - { offsetInCU: 0x344C0, offset: 0x200B5B, size: 0x8, addend: 0x0, symName: __ZNSt3__110shared_ptrIN4grpc25DefaultHealthCheckService22HealthCheckServiceImpl11CallHandlerEE5resetB7v160006Ev, symObjAddr: 0x2094, symBinAddr: 0x1B7D0, symSize: 0x5C }
  - { offsetInCU: 0x346D8, offset: 0x200D73, size: 0x8, addend: 0x0, symName: __ZN4grpc8internal22CallOpServerSendStatus16ServerSendStatusEPNSt3__18multimapINS2_12basic_stringIcNS2_11char_traitsIcEENS2_9allocatorIcEEEES9_NS2_4lessIS9_EENS7_INS2_4pairIKS9_S9_EEEEEERKNS_6StatusE, symObjAddr: 0x7B94, symBinAddr: 0x20D40, symSize: 0xA8 }
  - { offsetInCU: 0x349D8, offset: 0x201073, size: 0x8, addend: 0x0, symName: __ZN4grpc8internal17CallOpSendMessage11SendMessageINS_10ByteBufferEEENS_6StatusERKT_NS_12WriteOptionsE, symObjAddr: 0x7C3C, symBinAddr: 0x20DE8, symSize: 0x84 }
  - { offsetInCU: 0x34AEB, offset: 0x201186, size: 0x8, addend: 0x0, symName: __ZN4grpc25DefaultHealthCheckService22HealthCheckServiceImpl16WatchCallHandler14OnDoneNotifiedENSt3__110shared_ptrINS1_11CallHandlerEEEb, symObjAddr: 0x20F0, symBinAddr: 0x1B82C, symSize: 0xFC }
  - { offsetInCU: 0x34CB2, offset: 0x20134D, size: 0x8, addend: 0x0, symName: __ZN4grpc25DefaultHealthCheckService22HealthCheckServiceImpl16WatchCallHandler10SendFinishENSt3__110shared_ptrINS1_11CallHandlerEEERKNS_6StatusE, symObjAddr: 0x2524, symBinAddr: 0x1BC60, symSize: 0xDC }
  - { offsetInCU: 0x34FD7, offset: 0x201672, size: 0x8, addend: 0x0, symName: __ZN4grpc25DefaultHealthCheckService22HealthCheckServiceImpl16WatchCallHandler14OnDoneNotifiedENSt3__110shared_ptrINS1_11CallHandlerEEEb.cold.1, symObjAddr: 0x887C, symBinAddr: 0x48E70, symSize: 0x34 }
  - { offsetInCU: 0x3505D, offset: 0x2016F8, size: 0x8, addend: 0x0, symName: __ZN4grpc25DefaultHealthCheckService22HealthCheckServiceImpl16WatchCallHandler14OnCallReceivedENSt3__110shared_ptrINS1_11CallHandlerEEEb, symObjAddr: 0x21EC, symBinAddr: 0x1B928, symSize: 0x23C }
  - { offsetInCU: 0x35AEE, offset: 0x202189, size: 0x8, addend: 0x0, symName: __ZN4grpc25DefaultHealthCheckService22HealthCheckServiceImpl16WatchCallHandler14OnCallReceivedENSt3__110shared_ptrINS1_11CallHandlerEEEb.cold.1, symObjAddr: 0x88B0, symBinAddr: 0x48EA4, symSize: 0x34 }
  - { offsetInCU: 0x35B6C, offset: 0x202207, size: 0x8, addend: 0x0, symName: __ZN4grpc25DefaultHealthCheckService22HealthCheckServiceImpl16WatchCallHandlerC2EPNS_21ServerCompletionQueueEPS0_PS1_, symObjAddr: 0x2428, symBinAddr: 0x1BB64, symSize: 0xF4 }
  - { offsetInCU: 0x36030, offset: 0x2026CB, size: 0x8, addend: 0x0, symName: __ZN4grpc17ServerAsyncWriterINS_10ByteBufferEEC2EPNS_13ServerContextE, symObjAddr: 0x804C, symBinAddr: 0x211F8, symSize: 0x174 }
  - { offsetInCU: 0x36596, offset: 0x202C31, size: 0x8, addend: 0x0, symName: __ZN4grpc17ServerAsyncWriterINS_10ByteBufferEED2Ev, symObjAddr: 0x592C, symBinAddr: 0x1ED50, symSize: 0xE0 }
  - { offsetInCU: 0x36CCD, offset: 0x203368, size: 0x8, addend: 0x0, symName: __ZN4grpc17ServerAsyncWriterINS_10ByteBufferEED1Ev, symObjAddr: 0x251C, symBinAddr: 0x1BC58, symSize: 0x4 }
  - { offsetInCU: 0x36CF0, offset: 0x20338B, size: 0x8, addend: 0x0, symName: __ZN4grpc17ServerAsyncWriterINS_10ByteBufferEED1Ev, symObjAddr: 0x251C, symBinAddr: 0x1BC58, symSize: 0x4 }
  - { offsetInCU: 0x36D04, offset: 0x20339F, size: 0x8, addend: 0x0, symName: __ZN4grpc25DefaultHealthCheckService22HealthCheckServiceImpl16WatchCallHandlerC1EPNS_21ServerCompletionQueueEPS0_PS1_, symObjAddr: 0x2520, symBinAddr: 0x1BC5C, symSize: 0x4 }
  - { offsetInCU: 0x36D3C, offset: 0x2033D7, size: 0x8, addend: 0x0, symName: __ZN4grpc25DefaultHealthCheckService22HealthCheckServiceImpl16WatchCallHandlerC1EPNS_21ServerCompletionQueueEPS0_PS1_, symObjAddr: 0x2520, symBinAddr: 0x1BC5C, symSize: 0x4 }
  - { offsetInCU: 0x36D68, offset: 0x203403, size: 0x8, addend: 0x0, symName: __ZN4grpc25DefaultHealthCheckService22HealthCheckServiceImpl16WatchCallHandler16SendFinishLockedENSt3__110shared_ptrINS1_11CallHandlerEEERKNS_6StatusE, symObjAddr: 0x2A98, symBinAddr: 0x1C1D4, symSize: 0x1F4 }
  - { offsetInCU: 0x37418, offset: 0x203AB3, size: 0x8, addend: 0x0, symName: __ZN4grpc25DefaultHealthCheckService22HealthCheckServiceImpl16WatchCallHandler10SendHealthENSt3__110shared_ptrINS1_11CallHandlerEEENS0_13ServingStatusE, symObjAddr: 0x2600, symBinAddr: 0x1BD3C, symSize: 0xD0 }
  - { offsetInCU: 0x376D5, offset: 0x203D70, size: 0x8, addend: 0x0, symName: __ZN4grpc25DefaultHealthCheckService22HealthCheckServiceImpl16WatchCallHandler16SendHealthLockedENSt3__110shared_ptrINS1_11CallHandlerEEENS0_13ServingStatusE, symObjAddr: 0x26D0, symBinAddr: 0x1BE0C, symSize: 0x3C8 }
  - { offsetInCU: 0x38C75, offset: 0x205310, size: 0x8, addend: 0x0, symName: __ZN4grpc17ServerAsyncWriterINS_10ByteBufferEE5WriteERKS1_Pv, symObjAddr: 0x2DD8, symBinAddr: 0x1C514, symSize: 0xE4 }
  - { offsetInCU: 0x39109, offset: 0x2057A4, size: 0x8, addend: 0x0, symName: __ZN4grpc17ServerAsyncWriterINS_10ByteBufferEE6FinishERKNS_6StatusEPv, symObjAddr: 0x2F20, symBinAddr: 0x1C65C, symSize: 0x84 }
  - { offsetInCU: 0x3928E, offset: 0x205929, size: 0x8, addend: 0x0, symName: __ZN4grpc25DefaultHealthCheckService22HealthCheckServiceImpl16WatchCallHandler16OnSendHealthDoneENSt3__110shared_ptrINS1_11CallHandlerEEEb, symObjAddr: 0x2C8C, symBinAddr: 0x1C3C8, symSize: 0x14C }
  - { offsetInCU: 0x396BC, offset: 0x205D57, size: 0x8, addend: 0x0, symName: __ZN4grpc25DefaultHealthCheckService22HealthCheckServiceImpl16WatchCallHandler12OnFinishDoneENSt3__110shared_ptrINS1_11CallHandlerEEEb, symObjAddr: 0x2EBC, symBinAddr: 0x1C5F8, symSize: 0x64 }
  - { offsetInCU: 0x39840, offset: 0x205EDB, size: 0x8, addend: 0x0, symName: __ZN4grpc25DefaultHealthCheckServiceD1Ev, symObjAddr: 0x2FA4, symBinAddr: 0x1C6E0, symSize: 0x50 }
  - { offsetInCU: 0x39A2A, offset: 0x2060C5, size: 0x8, addend: 0x0, symName: __ZN4grpc25DefaultHealthCheckServiceD0Ev, symObjAddr: 0x2FF4, symBinAddr: 0x1C730, symSize: 0x50 }
  - { offsetInCU: 0x39C19, offset: 0x2062B4, size: 0x8, addend: 0x0, symName: __ZN4grpc25DefaultHealthCheckService22HealthCheckServiceImpl16WatchCallHandlerD1Ev, symObjAddr: 0x3044, symBinAddr: 0x1C780, symSize: 0x4 }
  - { offsetInCU: 0x39C3C, offset: 0x2062D7, size: 0x8, addend: 0x0, symName: __ZN4grpc25DefaultHealthCheckService22HealthCheckServiceImpl16WatchCallHandlerD1Ev, symObjAddr: 0x3044, symBinAddr: 0x1C780, symSize: 0x4 }
  - { offsetInCU: 0x39C50, offset: 0x2062EB, size: 0x8, addend: 0x0, symName: __ZN4grpc25DefaultHealthCheckService22HealthCheckServiceImpl16WatchCallHandlerD2Ev, symObjAddr: 0x5EA0, symBinAddr: 0x1F2C4, symSize: 0x108 }
  - { offsetInCU: 0x3A167, offset: 0x206802, size: 0x8, addend: 0x0, symName: __ZN4grpc25DefaultHealthCheckService22HealthCheckServiceImpl16WatchCallHandlerD0Ev, symObjAddr: 0x3048, symBinAddr: 0x1C784, symSize: 0x14 }
  - { offsetInCU: 0x3A1C5, offset: 0x206860, size: 0x8, addend: 0x0, symName: __ZN4grpc25DefaultHealthCheckService22HealthCheckServiceImpl16CheckCallHandlerD1Ev, symObjAddr: 0x305C, symBinAddr: 0x1C798, symSize: 0x4 }
  - { offsetInCU: 0x3A1E8, offset: 0x206883, size: 0x8, addend: 0x0, symName: __ZN4grpc25DefaultHealthCheckService22HealthCheckServiceImpl16CheckCallHandlerD1Ev, symObjAddr: 0x305C, symBinAddr: 0x1C798, symSize: 0x4 }
  - { offsetInCU: 0x3A1FC, offset: 0x206897, size: 0x8, addend: 0x0, symName: __ZN4grpc25DefaultHealthCheckService22HealthCheckServiceImpl16CheckCallHandlerD2Ev, symObjAddr: 0x8610, symBinAddr: 0x217BC, symSize: 0x100 }
  - { offsetInCU: 0x3A804, offset: 0x206E9F, size: 0x8, addend: 0x0, symName: __ZN4grpc25DefaultHealthCheckService22HealthCheckServiceImpl16CheckCallHandlerD0Ev, symObjAddr: 0x3060, symBinAddr: 0x1C79C, symSize: 0x14 }
  - { offsetInCU: 0x3A862, offset: 0x206EFD, size: 0x8, addend: 0x0, symName: __ZN4grpc25DefaultHealthCheckService22HealthCheckServiceImpl16CheckCallHandler10SendHealthENSt3__110shared_ptrINS1_11CallHandlerEEENS0_13ServingStatusE, symObjAddr: 0x3074, symBinAddr: 0x1C7B0, symSize: 0x4 }
  - { offsetInCU: 0x3A89C, offset: 0x206F37, size: 0x8, addend: 0x0, symName: __ZN4grpc7ServiceD1Ev, symObjAddr: 0x3078, symBinAddr: 0x1C7B4, symSize: 0x34 }
  - { offsetInCU: 0x3A91F, offset: 0x206FBA, size: 0x8, addend: 0x0, symName: __ZN4grpc7ServiceD0Ev, symObjAddr: 0x30AC, symBinAddr: 0x1C7E8, symSize: 0x34 }
  - { offsetInCU: 0x3AB1C, offset: 0x2071B7, size: 0x8, addend: 0x0, symName: __ZNSt3__110unique_ptrIN4grpc8internal16RpcServiceMethodENS_14default_deleteIS3_EEE5resetB7v160006EPS3_, symObjAddr: 0x31C4, symBinAddr: 0x1C864, symSize: 0x4C }
  - { offsetInCU: 0x3ADF3, offset: 0x20748E, size: 0x8, addend: 0x0, symName: __ZNSt3__16vectorINS_10unique_ptrIN4grpc8internal16RpcServiceMethodENS_14default_deleteIS4_EEEENS_9allocatorIS7_EEE16__destroy_vectorclB7v160006Ev, symObjAddr: 0x3298, symBinAddr: 0x1C938, symSize: 0x74 }
  - { offsetInCU: 0x3B0B7, offset: 0x207752, size: 0x8, addend: 0x0, symName: __ZNSt3__110__function12__value_funcIFvNS_10shared_ptrIN4grpc25DefaultHealthCheckService22HealthCheckServiceImpl11CallHandlerEEEbEEC2B7v160006EOS9_, symObjAddr: 0x3478, symBinAddr: 0x1CACC, symSize: 0x64 }
  - { offsetInCU: 0x3B131, offset: 0x2077CC, size: 0x8, addend: 0x0, symName: __ZN4grpc13ServerContextD0Ev, symObjAddr: 0x35D0, symBinAddr: 0x1CC24, symSize: 0x14 }
  - { offsetInCU: 0x3B199, offset: 0x207834, size: 0x8, addend: 0x0, symName: __ZN4grpc8internal9CallOpSetINS0_25CallOpSendInitialMetadataENS0_17CallOpSendMessageENS0_22CallOpServerSendStatusENS0_8CallNoOpILi4EEENS5_ILi5EEENS5_ILi6EEEED1Ev, symObjAddr: 0x35E4, symBinAddr: 0x1CC38, symSize: 0x90 }
  - { offsetInCU: 0x3B582, offset: 0x207C1D, size: 0x8, addend: 0x0, symName: __ZN4grpc8internal9CallOpSetINS0_25CallOpSendInitialMetadataENS0_8CallNoOpILi2EEENS3_ILi3EEENS3_ILi4EEENS3_ILi5EEENS3_ILi6EEEED1Ev, symObjAddr: 0x3674, symBinAddr: 0x1CCC8, symSize: 0x34 }
  - { offsetInCU: 0x3B5EF, offset: 0x207C8A, size: 0x8, addend: 0x0, symName: __ZN4grpc8internal27InterceptorBatchMethodsImplD1Ev, symObjAddr: 0x36A8, symBinAddr: 0x1CCFC, symSize: 0x4 }
  - { offsetInCU: 0x3B612, offset: 0x207CAD, size: 0x8, addend: 0x0, symName: __ZN4grpc8internal27InterceptorBatchMethodsImplD1Ev, symObjAddr: 0x36A8, symBinAddr: 0x1CCFC, symSize: 0x4 }
  - { offsetInCU: 0x3B626, offset: 0x207CC1, size: 0x8, addend: 0x0, symName: __ZN4grpc8internal9CallOpSetINS0_25CallOpSendInitialMetadataENS0_17CallOpSendMessageENS0_22CallOpServerSendStatusENS0_8CallNoOpILi4EEENS5_ILi5EEENS5_ILi6EEEED0Ev, symObjAddr: 0x36AC, symBinAddr: 0x1CD00, symSize: 0x90 }
  - { offsetInCU: 0x3BAF7, offset: 0x208192, size: 0x8, addend: 0x0, symName: __ZN4grpc8internal9CallOpSetINS0_25CallOpSendInitialMetadataENS0_17CallOpSendMessageENS0_22CallOpServerSendStatusENS0_8CallNoOpILi4EEENS5_ILi5EEENS5_ILi6EEEE14FinalizeResultEPPvPb, symObjAddr: 0x373C, symBinAddr: 0x1CD90, symSize: 0x13C }
  - { offsetInCU: 0x3BCC1, offset: 0x20835C, size: 0x8, addend: 0x0, symName: __ZN4grpc8internal17CallOpSendMessage8FinishOpEPb, symObjAddr: 0x488C, symBinAddr: 0x1DCB0, symSize: 0x7C }
  - { offsetInCU: 0x3BD1C, offset: 0x2083B7, size: 0x8, addend: 0x0, symName: __ZN4grpc8internal17CallOpSendMessage30SetFinishInterceptionHookPointEPNS0_27InterceptorBatchMethodsImplE, symObjAddr: 0x4908, symBinAddr: 0x1DD2C, symSize: 0x11C }
  - { offsetInCU: 0x3BF9D, offset: 0x208638, size: 0x8, addend: 0x0, symName: __ZN4grpc8internal27InterceptorBatchMethodsImpl15RunInterceptorsEv, symObjAddr: 0x4A24, symBinAddr: 0x1DE48, symSize: 0xA0 }
  - { offsetInCU: 0x3C0AE, offset: 0x208749, size: 0x8, addend: 0x0, symName: __ZN4grpc8internal9CallOpSetINS0_25CallOpSendInitialMetadataENS0_17CallOpSendMessageENS0_22CallOpServerSendStatusENS0_8CallNoOpILi4EEENS5_ILi5EEENS5_ILi6EEEE7FillOpsEPNS0_4CallE, symObjAddr: 0x3878, symBinAddr: 0x1CECC, symSize: 0x74 }
  - { offsetInCU: 0x3C139, offset: 0x2087D4, size: 0x8, addend: 0x0, symName: __ZN4grpc8internal9CallOpSetINS0_25CallOpSendInitialMetadataENS0_17CallOpSendMessageENS0_22CallOpServerSendStatusENS0_8CallNoOpILi4EEENS5_ILi5EEENS5_ILi6EEEE15RunInterceptorsEv, symObjAddr: 0x4DA4, symBinAddr: 0x1E1C8, symSize: 0xE4 }
  - { offsetInCU: 0x3C3EB, offset: 0x208A86, size: 0x8, addend: 0x0, symName: __ZN4grpc8internal9CallOpSetINS0_25CallOpSendInitialMetadataENS0_17CallOpSendMessageENS0_22CallOpServerSendStatusENS0_8CallNoOpILi4EEENS5_ILi5EEENS5_ILi6EEEE11core_cq_tagEv, symObjAddr: 0x38EC, symBinAddr: 0x1CF40, symSize: 0x8 }
  - { offsetInCU: 0x3C46E, offset: 0x208B09, size: 0x8, addend: 0x0, symName: __ZN4grpc8internal9CallOpSetINS0_25CallOpSendInitialMetadataENS0_17CallOpSendMessageENS0_22CallOpServerSendStatusENS0_8CallNoOpILi4EEENS5_ILi5EEENS5_ILi6EEEE17SetHijackingStateEv, symObjAddr: 0x38F4, symBinAddr: 0x1CF48, symSize: 0x14 }
  - { offsetInCU: 0x3C512, offset: 0x208BAD, size: 0x8, addend: 0x0, symName: __ZN4grpc8internal25CallOpSendInitialMetadata5AddOpEP7grpc_opPm, symObjAddr: 0x4F94, symBinAddr: 0x1E3B8, symSize: 0xF4 }
  - { offsetInCU: 0x3C820, offset: 0x208EBB, size: 0x8, addend: 0x0, symName: __ZN4grpc8internal17CallOpSendMessage5AddOpEP7grpc_opPm, symObjAddr: 0x5088, symBinAddr: 0x1E4AC, symSize: 0x184 }
  - { offsetInCU: 0x3CCD8, offset: 0x209373, size: 0x8, addend: 0x0, symName: __ZN4grpc8internal22CallOpServerSendStatus5AddOpEP7grpc_opPm, symObjAddr: 0x520C, symBinAddr: 0x1E630, symSize: 0x140 }
  - { offsetInCU: 0x3CCE3, offset: 0x20937E, size: 0x8, addend: 0x0, symName: __ZN4grpc8internal22CallOpServerSendStatus5AddOpEP7grpc_opPm, symObjAddr: 0x520C, symBinAddr: 0x1E630, symSize: 0x140 }
  - { offsetInCU: 0x3CE72, offset: 0x20950D, size: 0x8, addend: 0x0, symName: __ZN4grpc8internal9CallOpSetINS0_25CallOpSendInitialMetadataENS0_17CallOpSendMessageENS0_22CallOpServerSendStatusENS0_8CallNoOpILi4EEENS5_ILi5EEENS5_ILi6EEEE39ContinueFinalizeResultAfterInterceptionEv, symObjAddr: 0x3A0C, symBinAddr: 0x1D060, symSize: 0x9C }
  - { offsetInCU: 0x3CF86, offset: 0x209621, size: 0x8, addend: 0x0, symName: __ZN4grpc8internal27InterceptorBatchMethodsImplD0Ev, symObjAddr: 0x3B38, symBinAddr: 0x1D18C, symSize: 0x14 }
  - { offsetInCU: 0x3CFE1, offset: 0x20967C, size: 0x8, addend: 0x0, symName: __ZN4grpc8internal27InterceptorBatchMethodsImpl26QueryInterceptionHookPointENS_12experimental22InterceptionHookPointsE, symObjAddr: 0x3B4C, symBinAddr: 0x1D1A0, symSize: 0xC }
  - { offsetInCU: 0x3D041, offset: 0x2096DC, size: 0x8, addend: 0x0, symName: __ZN4grpc8internal27InterceptorBatchMethodsImpl7ProceedEv, symObjAddr: 0x3B58, symBinAddr: 0x1D1AC, symSize: 0x74 }
  - { offsetInCU: 0x3D0DF, offset: 0x20977A, size: 0x8, addend: 0x0, symName: __ZN4grpc8internal27InterceptorBatchMethodsImpl13ProceedClientEv, symObjAddr: 0x40B4, symBinAddr: 0x1D708, symSize: 0xE4 }
  - { offsetInCU: 0x3D1C0, offset: 0x20985B, size: 0x8, addend: 0x0, symName: __ZN4grpc8internal27InterceptorBatchMethodsImpl13ProceedServerEv, symObjAddr: 0x4198, symBinAddr: 0x1D7EC, symSize: 0xD0 }
  - { offsetInCU: 0x3D2DF, offset: 0x20997A, size: 0x8, addend: 0x0, symName: __ZN4grpc8internal27InterceptorBatchMethodsImpl6HijackEv, symObjAddr: 0x3BCC, symBinAddr: 0x1D220, symSize: 0xE4 }
  - { offsetInCU: 0x3D499, offset: 0x209B34, size: 0x8, addend: 0x0, symName: __ZN4grpc8internal27InterceptorBatchMethodsImpl24GetSerializedSendMessageEv, symObjAddr: 0x3CB0, symBinAddr: 0x1D304, symSize: 0xF0 }
  - { offsetInCU: 0x3D7F8, offset: 0x209E93, size: 0x8, addend: 0x0, symName: __ZN4grpc8internal27InterceptorBatchMethodsImpl14GetSendMessageEv, symObjAddr: 0x3DA0, symBinAddr: 0x1D3F4, symSize: 0x5C }
  - { offsetInCU: 0x3D803, offset: 0x209E9E, size: 0x8, addend: 0x0, symName: __ZN4grpc8internal27InterceptorBatchMethodsImpl14GetSendMessageEv, symObjAddr: 0x3DA0, symBinAddr: 0x1D3F4, symSize: 0x5C }
  - { offsetInCU: 0x3D83D, offset: 0x209ED8, size: 0x8, addend: 0x0, symName: __ZN4grpc8internal27InterceptorBatchMethodsImpl17ModifySendMessageEPKv, symObjAddr: 0x3DFC, symBinAddr: 0x1D450, symSize: 0x60 }
  - { offsetInCU: 0x3D887, offset: 0x209F22, size: 0x8, addend: 0x0, symName: __ZN4grpc8internal27InterceptorBatchMethodsImpl20GetSendMessageStatusEv, symObjAddr: 0x3E5C, symBinAddr: 0x1D4B0, symSize: 0x14 }
  - { offsetInCU: 0x3D8AD, offset: 0x209F48, size: 0x8, addend: 0x0, symName: __ZN4grpc8internal27InterceptorBatchMethodsImpl22GetSendInitialMetadataEv, symObjAddr: 0x3E70, symBinAddr: 0x1D4C4, symSize: 0x8 }
  - { offsetInCU: 0x3D911, offset: 0x209FAC, size: 0x8, addend: 0x0, symName: __ZN4grpc8internal27InterceptorBatchMethodsImpl13GetSendStatusEv, symObjAddr: 0x3E78, symBinAddr: 0x1D4CC, symSize: 0x14 }
  - { offsetInCU: 0x3D971, offset: 0x20A00C, size: 0x8, addend: 0x0, symName: __ZN4grpc6StatusC2ENS_10StatusCodeERKNSt3__112basic_stringIcNS2_11char_traitsIcEENS2_9allocatorIcEEEESA_, symObjAddr: 0x4368, symBinAddr: 0x1D93C, symSize: 0x6C }
  - { offsetInCU: 0x3DB6E, offset: 0x20A209, size: 0x8, addend: 0x0, symName: __ZN4grpc8internal27InterceptorBatchMethodsImpl16ModifySendStatusERKNS_6StatusE, symObjAddr: 0x3E8C, symBinAddr: 0x1D4E0, symSize: 0x98 }
  - { offsetInCU: 0x3DE5A, offset: 0x20A4F5, size: 0x8, addend: 0x0, symName: __ZN4grpc8internal27InterceptorBatchMethodsImpl23GetSendTrailingMetadataEv, symObjAddr: 0x3F24, symBinAddr: 0x1D578, symSize: 0x8 }
  - { offsetInCU: 0x3DE80, offset: 0x20A51B, size: 0x8, addend: 0x0, symName: __ZN4grpc8internal27InterceptorBatchMethodsImpl14GetRecvMessageEv, symObjAddr: 0x3F2C, symBinAddr: 0x1D580, symSize: 0x8 }
  - { offsetInCU: 0x3DEBC, offset: 0x20A557, size: 0x8, addend: 0x0, symName: __ZN4grpc8internal27InterceptorBatchMethodsImpl22GetRecvInitialMetadataEv, symObjAddr: 0x3F34, symBinAddr: 0x1D588, symSize: 0x28 }
  - { offsetInCU: 0x3DF14, offset: 0x20A5AF, size: 0x8, addend: 0x0, symName: __ZN4grpc8internal11MetadataMap7FillMapEv, symObjAddr: 0x43D4, symBinAddr: 0x1D9A8, symSize: 0xB8 }
  - { offsetInCU: 0x3E0AD, offset: 0x20A748, size: 0x8, addend: 0x0, symName: __ZN4grpc8internal27InterceptorBatchMethodsImpl13GetRecvStatusEv, symObjAddr: 0x3F5C, symBinAddr: 0x1D5B0, symSize: 0x8 }
  - { offsetInCU: 0x3E0D3, offset: 0x20A76E, size: 0x8, addend: 0x0, symName: __ZN4grpc8internal27InterceptorBatchMethodsImpl23GetRecvTrailingMetadataEv, symObjAddr: 0x3F64, symBinAddr: 0x1D5B8, symSize: 0x28 }
  - { offsetInCU: 0x3E1AF, offset: 0x20A84A, size: 0x8, addend: 0x0, symName: __ZN4grpc8internal27InterceptorBatchMethodsImpl21GetInterceptedChannelEv, symObjAddr: 0x3F8C, symBinAddr: 0x1D5E0, symSize: 0x68 }
  - { offsetInCU: 0x3E271, offset: 0x20A90C, size: 0x8, addend: 0x0, symName: __ZN4grpc8internal27InterceptorBatchMethodsImpl23FailHijackedRecvMessageEv, symObjAddr: 0x3FF4, symBinAddr: 0x1D648, symSize: 0x60 }
  - { offsetInCU: 0x3E2AC, offset: 0x20A947, size: 0x8, addend: 0x0, symName: __ZN4grpc8internal27InterceptorBatchMethodsImpl23FailHijackedSendMessageEv, symObjAddr: 0x4054, symBinAddr: 0x1D6A8, symSize: 0x60 }
  - { offsetInCU: 0x3E366, offset: 0x20AA01, size: 0x8, addend: 0x0, symName: __ZN4grpc12experimental13ServerRpcInfo14RunInterceptorEPNS0_23InterceptorBatchMethodsEm, symObjAddr: 0x42E8, symBinAddr: 0x1D8BC, symSize: 0x80 }
  - { offsetInCU: 0x3E5B5, offset: 0x20AC50, size: 0x8, addend: 0x0, symName: __ZNSt3__16__treeINS_12__value_typeIN4grpc10string_refES3_EENS_19__map_value_compareIS3_S4_NS_4lessIS3_EELb1EEENS_9allocatorIS4_EEE15__emplace_multiIJNS_4pairIS3_S3_EEEEENS_15__tree_iteratorIS4_PNS_11__tree_nodeIS4_PvEElEEDpOT_, symObjAddr: 0x448C, symBinAddr: 0x1DA60, symSize: 0x90 }
  - { offsetInCU: 0x3EC03, offset: 0x20B29E, size: 0x8, addend: 0x0, symName: __ZNSt3__16__treeINS_12__value_typeIN4grpc10string_refES3_EENS_19__map_value_compareIS3_S4_NS_4lessIS3_EELb1EEENS_9allocatorIS4_EEE16__find_leaf_highERPNS_15__tree_end_nodeIPNS_16__tree_node_baseIPvEEEERKS3_, symObjAddr: 0x451C, symBinAddr: 0x1DAF0, symSize: 0x8C }
  - { offsetInCU: 0x3EDDA, offset: 0x20B475, size: 0x8, addend: 0x0, symName: __ZNSt3__16__treeINS_12__value_typeIN4grpc10string_refES3_EENS_19__map_value_compareIS3_S4_NS_4lessIS3_EELb1EEENS_9allocatorIS4_EEE16__insert_node_atEPNS_15__tree_end_nodeIPNS_16__tree_node_baseIPvEEEERSG_SG_, symObjAddr: 0x45A8, symBinAddr: 0x1DB7C, symSize: 0x54 }
  - { offsetInCU: 0x3EEC8, offset: 0x20B563, size: 0x8, addend: 0x0, symName: __ZNK4grpc10string_ref7compareES0_, symObjAddr: 0x45FC, symBinAddr: 0x1DBD0, symSize: 0x54 }
  - { offsetInCU: 0x3EF76, offset: 0x20B611, size: 0x8, addend: 0x0, symName: __ZN4grpc8internal18InterceptedChannelD1Ev, symObjAddr: 0x47E8, symBinAddr: 0x1DC24, symSize: 0x14 }
  - { offsetInCU: 0x3EFA1, offset: 0x20B63C, size: 0x8, addend: 0x0, symName: __ZN4grpc8internal18InterceptedChannelD1Ev, symObjAddr: 0x47E8, symBinAddr: 0x1DC24, symSize: 0x14 }
  - { offsetInCU: 0x3EFBB, offset: 0x20B656, size: 0x8, addend: 0x0, symName: __ZN4grpc8internal18InterceptedChannelD0Ev, symObjAddr: 0x47FC, symBinAddr: 0x1DC38, symSize: 0x4 }
  - { offsetInCU: 0x3EFE4, offset: 0x20B67F, size: 0x8, addend: 0x0, symName: __ZN4grpc8internal18InterceptedChannel8GetStateEb, symObjAddr: 0x4800, symBinAddr: 0x1DC3C, symSize: 0x10 }
  - { offsetInCU: 0x3F032, offset: 0x20B6CD, size: 0x8, addend: 0x0, symName: __ZN4grpc8internal18InterceptedChannel10CreateCallERKNS0_9RpcMethodEPNS_13ClientContextEPNS_15CompletionQueueE, symObjAddr: 0x4810, symBinAddr: 0x1DC4C, symSize: 0x14 }
  - { offsetInCU: 0x3F0AF, offset: 0x20B74A, size: 0x8, addend: 0x0, symName: __ZN4grpc8internal18InterceptedChannel16PerformOpsOnCallEPNS0_18CallOpSetInterfaceEPNS0_4CallE, symObjAddr: 0x4824, symBinAddr: 0x1DC60, symSize: 0x10 }
  - { offsetInCU: 0x3F10E, offset: 0x20B7A9, size: 0x8, addend: 0x0, symName: __ZN4grpc8internal18InterceptedChannel14RegisterMethodEPKc, symObjAddr: 0x4834, symBinAddr: 0x1DC70, symSize: 0x10 }
  - { offsetInCU: 0x3F157, offset: 0x20B7F2, size: 0x8, addend: 0x0, symName: __ZN4grpc8internal18InterceptedChannel23NotifyOnStateChangeImplE23grpc_connectivity_state12gpr_timespecPNS_15CompletionQueueEPv, symObjAddr: 0x4844, symBinAddr: 0x1DC80, symSize: 0x10 }
  - { offsetInCU: 0x3F1E8, offset: 0x20B883, size: 0x8, addend: 0x0, symName: __ZN4grpc8internal18InterceptedChannel22WaitForStateChangeImplE23grpc_connectivity_state12gpr_timespec, symObjAddr: 0x4854, symBinAddr: 0x1DC90, symSize: 0x10 }
  - { offsetInCU: 0x3F281, offset: 0x20B91C, size: 0x8, addend: 0x0, symName: __ZN4grpc8internal18InterceptedChannel10CallbackCQEv, symObjAddr: 0x487C, symBinAddr: 0x1DCA0, symSize: 0x10 }
  - { offsetInCU: 0x3F3AB, offset: 0x20BA46, size: 0x8, addend: 0x0, symName: __ZNSt3__18functionIFN4grpc6StatusEPKvEEaSERKS6_, symObjAddr: 0x4AC4, symBinAddr: 0x1DEE8, symSize: 0x98 }
  - { offsetInCU: 0x3F55D, offset: 0x20BBF8, size: 0x8, addend: 0x0, symName: __ZN4grpc8internal27InterceptorBatchMethodsImpl21RunClientInterceptorsEv, symObjAddr: 0x4D2C, symBinAddr: 0x1E150, symSize: 0x44 }
  - { offsetInCU: 0x3F5E0, offset: 0x20BC7B, size: 0x8, addend: 0x0, symName: __ZN4grpc8internal27InterceptorBatchMethodsImpl21RunServerInterceptorsEv, symObjAddr: 0x4D70, symBinAddr: 0x1E194, symSize: 0x34 }
  - { offsetInCU: 0x3F701, offset: 0x20BD9C, size: 0x8, addend: 0x0, symName: __ZNSt3__110__function12__value_funcIFN4grpc6StatusEPKvEEC2B7v160006ERKS7_, symObjAddr: 0x4B5C, symBinAddr: 0x1DF80, symSize: 0x64 }
  - { offsetInCU: 0x3F75B, offset: 0x20BDF6, size: 0x8, addend: 0x0, symName: __ZNSt3__110__function12__value_funcIFN4grpc6StatusEPKvEE4swapB7v160006ERS7_, symObjAddr: 0x4BC0, symBinAddr: 0x1DFE4, symSize: 0x16C }
  - { offsetInCU: 0x3F9E3, offset: 0x20C07E, size: 0x8, addend: 0x0, symName: __ZN4grpc8internal17CallOpSendMessage24SetInterceptionHookPointEPNS0_27InterceptorBatchMethodsImplE, symObjAddr: 0x4E88, symBinAddr: 0x1E2AC, symSize: 0x10C }
  - { offsetInCU: 0x3FE01, offset: 0x20C49C, size: 0x8, addend: 0x0, symName: __ZN4grpc8internal9CallOpSetINS0_25CallOpSendInitialMetadataENS0_8CallNoOpILi2EEENS3_ILi3EEENS3_ILi4EEENS3_ILi5EEENS3_ILi6EEEED0Ev, symObjAddr: 0x5578, symBinAddr: 0x1E99C, symSize: 0x34 }
  - { offsetInCU: 0x3FEAC, offset: 0x20C547, size: 0x8, addend: 0x0, symName: __ZN4grpc8internal9CallOpSetINS0_25CallOpSendInitialMetadataENS0_8CallNoOpILi2EEENS3_ILi3EEENS3_ILi4EEENS3_ILi5EEENS3_ILi6EEEE14FinalizeResultEPPvPb, symObjAddr: 0x55AC, symBinAddr: 0x1E9D0, symSize: 0xEC }
  - { offsetInCU: 0x40009, offset: 0x20C6A4, size: 0x8, addend: 0x0, symName: __ZN4grpc8internal9CallOpSetINS0_25CallOpSendInitialMetadataENS0_8CallNoOpILi2EEENS3_ILi3EEENS3_ILi4EEENS3_ILi5EEENS3_ILi6EEEE7FillOpsEPNS0_4CallE, symObjAddr: 0x5698, symBinAddr: 0x1EABC, symSize: 0x74 }
  - { offsetInCU: 0x40094, offset: 0x20C72F, size: 0x8, addend: 0x0, symName: __ZN4grpc8internal9CallOpSetINS0_25CallOpSendInitialMetadataENS0_8CallNoOpILi2EEENS3_ILi3EEENS3_ILi4EEENS3_ILi5EEENS3_ILi6EEEE15RunInterceptorsEv, symObjAddr: 0x58A0, symBinAddr: 0x1ECC4, symSize: 0x8C }
  - { offsetInCU: 0x400BC, offset: 0x20C757, size: 0x8, addend: 0x0, symName: __ZN4grpc8internal9CallOpSetINS0_25CallOpSendInitialMetadataENS0_8CallNoOpILi2EEENS3_ILi3EEENS3_ILi4EEENS3_ILi5EEENS3_ILi6EEEE15RunInterceptorsEv, symObjAddr: 0x58A0, symBinAddr: 0x1ECC4, symSize: 0x8C }
  - { offsetInCU: 0x4024B, offset: 0x20C8E6, size: 0x8, addend: 0x0, symName: __ZN4grpc8internal9CallOpSetINS0_25CallOpSendInitialMetadataENS0_8CallNoOpILi2EEENS3_ILi3EEENS3_ILi4EEENS3_ILi5EEENS3_ILi6EEEE11core_cq_tagEv, symObjAddr: 0x570C, symBinAddr: 0x1EB30, symSize: 0x8 }
  - { offsetInCU: 0x40271, offset: 0x20C90C, size: 0x8, addend: 0x0, symName: __ZN4grpc8internal9CallOpSetINS0_25CallOpSendInitialMetadataENS0_8CallNoOpILi2EEENS3_ILi3EEENS3_ILi4EEENS3_ILi5EEENS3_ILi6EEEE17SetHijackingStateEv, symObjAddr: 0x5714, symBinAddr: 0x1EB38, symSize: 0xC }
  - { offsetInCU: 0x402C0, offset: 0x20C95B, size: 0x8, addend: 0x0, symName: __ZN4grpc8internal9CallOpSetINS0_25CallOpSendInitialMetadataENS0_8CallNoOpILi2EEENS3_ILi3EEENS3_ILi4EEENS3_ILi5EEENS3_ILi6EEEE39ContinueFinalizeResultAfterInterceptionEv, symObjAddr: 0x5804, symBinAddr: 0x1EC28, symSize: 0x9C }
  - { offsetInCU: 0x40398, offset: 0x20CA33, size: 0x8, addend: 0x0, symName: __ZThn8_N4grpc17ServerAsyncWriterINS_10ByteBufferEED1Ev, symObjAddr: 0x5A0C, symBinAddr: 0x1EE30, symSize: 0x8 }
  - { offsetInCU: 0x403DA, offset: 0x20CA75, size: 0x8, addend: 0x0, symName: __ZN4grpc8internal9CallOpSetINS0_25CallOpSendInitialMetadataENS0_22CallOpServerSendStatusENS0_8CallNoOpILi3EEENS4_ILi4EEENS4_ILi5EEENS4_ILi6EEEED1Ev, symObjAddr: 0x5A14, symBinAddr: 0x1EE38, symSize: 0x54 }
  - { offsetInCU: 0x406D5, offset: 0x20CD70, size: 0x8, addend: 0x0, symName: __ZN4grpc8internal9CallOpSetINS0_25CallOpSendInitialMetadataENS0_22CallOpServerSendStatusENS0_8CallNoOpILi3EEENS4_ILi4EEENS4_ILi5EEENS4_ILi6EEEED0Ev, symObjAddr: 0x5A68, symBinAddr: 0x1EE8C, symSize: 0x54 }
  - { offsetInCU: 0x40A0E, offset: 0x20D0A9, size: 0x8, addend: 0x0, symName: __ZN4grpc8internal9CallOpSetINS0_25CallOpSendInitialMetadataENS0_22CallOpServerSendStatusENS0_8CallNoOpILi3EEENS4_ILi4EEENS4_ILi5EEENS4_ILi6EEEE14FinalizeResultEPPvPb, symObjAddr: 0x5ABC, symBinAddr: 0x1EEE0, symSize: 0x114 }
  - { offsetInCU: 0x40B9E, offset: 0x20D239, size: 0x8, addend: 0x0, symName: __ZN4grpc8internal9CallOpSetINS0_25CallOpSendInitialMetadataENS0_22CallOpServerSendStatusENS0_8CallNoOpILi3EEENS4_ILi4EEENS4_ILi5EEENS4_ILi6EEEE7FillOpsEPNS0_4CallE, symObjAddr: 0x5BD0, symBinAddr: 0x1EFF4, symSize: 0x74 }
  - { offsetInCU: 0x40C29, offset: 0x20D2C4, size: 0x8, addend: 0x0, symName: __ZN4grpc8internal9CallOpSetINS0_25CallOpSendInitialMetadataENS0_22CallOpServerSendStatusENS0_8CallNoOpILi3EEENS4_ILi4EEENS4_ILi5EEENS4_ILi6EEEE15RunInterceptorsEv, symObjAddr: 0x5DEC, symBinAddr: 0x1F210, symSize: 0xB4 }
  - { offsetInCU: 0x40C51, offset: 0x20D2EC, size: 0x8, addend: 0x0, symName: __ZN4grpc8internal9CallOpSetINS0_25CallOpSendInitialMetadataENS0_22CallOpServerSendStatusENS0_8CallNoOpILi3EEENS4_ILi4EEENS4_ILi5EEENS4_ILi6EEEE15RunInterceptorsEv, symObjAddr: 0x5DEC, symBinAddr: 0x1F210, symSize: 0xB4 }
  - { offsetInCU: 0x40E68, offset: 0x20D503, size: 0x8, addend: 0x0, symName: __ZN4grpc8internal9CallOpSetINS0_25CallOpSendInitialMetadataENS0_22CallOpServerSendStatusENS0_8CallNoOpILi3EEENS4_ILi4EEENS4_ILi5EEENS4_ILi6EEEE11core_cq_tagEv, symObjAddr: 0x5C44, symBinAddr: 0x1F068, symSize: 0x8 }
  - { offsetInCU: 0x40E8E, offset: 0x20D529, size: 0x8, addend: 0x0, symName: __ZN4grpc8internal9CallOpSetINS0_25CallOpSendInitialMetadataENS0_22CallOpServerSendStatusENS0_8CallNoOpILi3EEENS4_ILi4EEENS4_ILi5EEENS4_ILi6EEEE17SetHijackingStateEv, symObjAddr: 0x5C4C, symBinAddr: 0x1F070, symSize: 0x10 }
  - { offsetInCU: 0x40F07, offset: 0x20D5A2, size: 0x8, addend: 0x0, symName: __ZN4grpc8internal9CallOpSetINS0_25CallOpSendInitialMetadataENS0_22CallOpServerSendStatusENS0_8CallNoOpILi3EEENS4_ILi4EEENS4_ILi5EEENS4_ILi6EEEE39ContinueFinalizeResultAfterInterceptionEv, symObjAddr: 0x5D50, symBinAddr: 0x1F174, symSize: 0x9C }
  - { offsetInCU: 0x41176, offset: 0x20D811, size: 0x8, addend: 0x0, symName: __ZNSt3__110shared_ptrIN4grpc25DefaultHealthCheckService22HealthCheckServiceImpl11CallHandlerEED2B7v160006Ev, symObjAddr: 0x6058, symBinAddr: 0x1F3CC, symSize: 0x58 }
  - { offsetInCU: 0x411F9, offset: 0x20D894, size: 0x8, addend: 0x0, symName: __ZNSt3__116allocator_traitsINS_9allocatorINS_11__tree_nodeINS_12__value_typeINS_12basic_stringIcNS_11char_traitsIcEENS1_IcEEEEN4grpc25DefaultHealthCheckService11ServiceDataEEEPvEEEEE7destroyB7v160006INS_4pairIKS8_SB_EEvvEEvRSF_PT_, symObjAddr: 0x60FC, symBinAddr: 0x1F470, symSize: 0x40 }
  - { offsetInCU: 0x41547, offset: 0x20DBE2, size: 0x8, addend: 0x0, symName: __ZNSt3__16__treeINS_10shared_ptrIN4grpc25DefaultHealthCheckService22HealthCheckServiceImpl11CallHandlerEEENS_4lessIS6_EENS_9allocatorIS6_EEE7destroyEPNS_11__tree_nodeIS6_PvEE, symObjAddr: 0x613C, symBinAddr: 0x1F4B0, symSize: 0x48 }
  - { offsetInCU: 0x41B34, offset: 0x20E1CF, size: 0x8, addend: 0x0, symName: __ZNSt3__16__treeINS_12__value_typeINS_12basic_stringIcNS_11char_traitsIcEENS_9allocatorIcEEEEN4grpc25DefaultHealthCheckService11ServiceDataEEENS_19__map_value_compareIS7_SB_NS_4lessIS7_EELb1EEENS5_ISB_EEE12__find_equalIS7_EERPNS_16__tree_node_baseIPvEERPNS_15__tree_end_nodeISM_EERKT_, symObjAddr: 0x622C, symBinAddr: 0x1F5A0, symSize: 0x9C }
  - { offsetInCU: 0x41C67, offset: 0x20E302, size: 0x8, addend: 0x0, symName: __ZNSt3__16__treeINS_12__value_typeINS_12basic_stringIcNS_11char_traitsIcEENS_9allocatorIcEEEEN4grpc25DefaultHealthCheckService11ServiceDataEEENS_19__map_value_compareIS7_SB_NS_4lessIS7_EELb1EEENS5_ISB_EEE16__insert_node_atEPNS_15__tree_end_nodeIPNS_16__tree_node_baseIPvEEEERSM_SM_, symObjAddr: 0x62C8, symBinAddr: 0x1F63C, symSize: 0x54 }
  - { offsetInCU: 0x41F6D, offset: 0x20E608, size: 0x8, addend: 0x0, symName: __ZNSt3__122__tree_node_destructorINS_9allocatorINS_11__tree_nodeINS_12__value_typeINS_12basic_stringIcNS_11char_traitsIcEENS1_IcEEEEN4grpc25DefaultHealthCheckService11ServiceDataEEEPvEEEEEclB7v160006EPSE_, symObjAddr: 0x6398, symBinAddr: 0x1F690, symSize: 0x44 }
  - { offsetInCU: 0x420CB, offset: 0x20E766, size: 0x8, addend: 0x0, symName: __ZNSt3__16__treeINS_12__value_typeINS_12basic_stringIcNS_11char_traitsIcEENS_9allocatorIcEEEEN4grpc25DefaultHealthCheckService11ServiceDataEEENS_19__map_value_compareIS7_SB_NS_4lessIS7_EELb1EEENS5_ISB_EEE16__construct_nodeIJRKNS_21piecewise_construct_tENS_5tupleIJRKS7_EEENSM_IJEEEEEENS_10unique_ptrINS_11__tree_nodeISB_PvEENS_22__tree_node_destructorINS5_ISU_EEEEEEDpOT_, symObjAddr: 0x6470, symBinAddr: 0x1F768, symSize: 0x90 }
  - { offsetInCU: 0x42950, offset: 0x20EFEB, size: 0x8, addend: 0x0, symName: __ZNSt3__16__treeINS_12__value_typeINS_12basic_stringIcNS_11char_traitsIcEENS_9allocatorIcEEEEN4grpc25DefaultHealthCheckService11ServiceDataEEENS_19__map_value_compareIS7_SB_NS_4lessIS7_EELb1EEENS5_ISB_EEE21__remove_node_pointerEPNS_11__tree_nodeISB_PvEE, symObjAddr: 0x6660, symBinAddr: 0x1F958, symSize: 0x70 }
  - { offsetInCU: 0x42D4E, offset: 0x20F3E9, size: 0x8, addend: 0x0, symName: __ZNSt3__16__treeINS_10shared_ptrIN4grpc25DefaultHealthCheckService22HealthCheckServiceImpl11CallHandlerEEENS_4lessIS6_EENS_9allocatorIS6_EEE16__insert_node_atEPNS_15__tree_end_nodeIPNS_16__tree_node_baseIPvEEEERSG_SG_, symObjAddr: 0x6B34, symBinAddr: 0x1FE2C, symSize: 0x54 }
  - { offsetInCU: 0x42DB7, offset: 0x20F452, size: 0x8, addend: 0x0, symName: __ZNSt3__110unique_ptrINS_11__tree_nodeINS_10shared_ptrIN4grpc25DefaultHealthCheckService22HealthCheckServiceImpl11CallHandlerEEEPvEENS_22__tree_node_destructorINS_9allocatorIS9_EEEEE5resetB7v160006EPS9_, symObjAddr: 0x6B88, symBinAddr: 0x1FE80, symSize: 0x44 }
  - { offsetInCU: 0x43041, offset: 0x20F6DC, size: 0x8, addend: 0x0, symName: __ZNSt3__16__treeINS_10shared_ptrIN4grpc25DefaultHealthCheckService22HealthCheckServiceImpl11CallHandlerEEENS_4lessIS6_EENS_9allocatorIS6_EEE21__remove_node_pointerEPNS_11__tree_nodeIS6_PvEE, symObjAddr: 0x6C50, symBinAddr: 0x1FF48, symSize: 0x70 }
  - { offsetInCU: 0x4340F, offset: 0x20FAAA, size: 0x8, addend: 0x0, symName: __ZNSt3__120__shared_ptr_emplaceIN4grpc25DefaultHealthCheckService22HealthCheckServiceImpl16CheckCallHandlerENS_9allocatorIS4_EEEC2B7v160006IJRPNS1_21ServerCompletionQueueERPS2_RPS3_EEES6_DpOT_, symObjAddr: 0x6DB8, symBinAddr: 0x20054, symSize: 0x58 }
  - { offsetInCU: 0x435B4, offset: 0x20FC4F, size: 0x8, addend: 0x0, symName: __ZNSt3__120__shared_ptr_emplaceIN4grpc25DefaultHealthCheckService22HealthCheckServiceImpl16CheckCallHandlerENS_9allocatorIS4_EEED1Ev, symObjAddr: 0x6E10, symBinAddr: 0x200AC, symSize: 0x14 }
  - { offsetInCU: 0x435D6, offset: 0x20FC71, size: 0x8, addend: 0x0, symName: __ZNSt3__120__shared_ptr_emplaceIN4grpc25DefaultHealthCheckService22HealthCheckServiceImpl16CheckCallHandlerENS_9allocatorIS4_EEED1Ev, symObjAddr: 0x6E10, symBinAddr: 0x200AC, symSize: 0x14 }
  - { offsetInCU: 0x4360F, offset: 0x20FCAA, size: 0x8, addend: 0x0, symName: __ZNSt3__120__shared_ptr_emplaceIN4grpc25DefaultHealthCheckService22HealthCheckServiceImpl16CheckCallHandlerENS_9allocatorIS4_EEED0Ev, symObjAddr: 0x6E24, symBinAddr: 0x200C0, symSize: 0x24 }
  - { offsetInCU: 0x43677, offset: 0x20FD12, size: 0x8, addend: 0x0, symName: __ZNSt3__120__shared_ptr_emplaceIN4grpc25DefaultHealthCheckService22HealthCheckServiceImpl16CheckCallHandlerENS_9allocatorIS4_EEE16__on_zero_sharedEv, symObjAddr: 0x6E48, symBinAddr: 0x200E4, symSize: 0xC }
  - { offsetInCU: 0x436A9, offset: 0x20FD44, size: 0x8, addend: 0x0, symName: __ZNSt3__120__shared_ptr_emplaceIN4grpc25DefaultHealthCheckService22HealthCheckServiceImpl16CheckCallHandlerENS_9allocatorIS4_EEE21__on_zero_shared_weakEv, symObjAddr: 0x6E54, symBinAddr: 0x200F0, symSize: 0x4 }
  - { offsetInCU: 0x436DD, offset: 0x20FD78, size: 0x8, addend: 0x0, symName: __ZNSt3__120__shared_ptr_emplaceIN4grpc25DefaultHealthCheckService22HealthCheckServiceImpl16CheckCallHandlerENS_9allocatorIS4_EEE21__on_zero_shared_weakEv, symObjAddr: 0x6E54, symBinAddr: 0x200F0, symSize: 0x4 }
  - { offsetInCU: 0x43701, offset: 0x20FD9C, size: 0x8, addend: 0x0, symName: __ZNSt3__120__shared_ptr_emplaceIN4grpc25DefaultHealthCheckService22HealthCheckServiceImpl16CheckCallHandlerENS_9allocatorIS4_EEE21__on_zero_shared_weakEv, symObjAddr: 0x6E54, symBinAddr: 0x200F0, symSize: 0x4 }
  - { offsetInCU: 0x43725, offset: 0x20FDC0, size: 0x8, addend: 0x0, symName: __ZNSt3__120__shared_ptr_emplaceIN4grpc25DefaultHealthCheckService22HealthCheckServiceImpl16CheckCallHandlerENS_9allocatorIS4_EEE21__on_zero_shared_weakEv, symObjAddr: 0x6E54, symBinAddr: 0x200F0, symSize: 0x4 }
  - { offsetInCU: 0x43753, offset: 0x20FDEE, size: 0x8, addend: 0x0, symName: __ZNSt3__120__shared_ptr_emplaceIN4grpc25DefaultHealthCheckService22HealthCheckServiceImpl16CheckCallHandlerENS_9allocatorIS4_EEE21__on_zero_shared_weakEv, symObjAddr: 0x6E54, symBinAddr: 0x200F0, symSize: 0x4 }
  - { offsetInCU: 0x4377C, offset: 0x20FE17, size: 0x8, addend: 0x0, symName: __ZNSt3__120__shared_ptr_emplaceIN4grpc25DefaultHealthCheckService22HealthCheckServiceImpl16CheckCallHandlerENS_9allocatorIS4_EEE21__on_zero_shared_weakEv, symObjAddr: 0x6E54, symBinAddr: 0x200F0, symSize: 0x4 }
  - { offsetInCU: 0x437A8, offset: 0x20FE43, size: 0x8, addend: 0x0, symName: __ZNSt3__110__function6__funcINS_6__bindIMN4grpc25DefaultHealthCheckService22HealthCheckServiceImpl16CheckCallHandlerEFvNS_10shared_ptrINS5_11CallHandlerEEEbEJRPS6_RKNS_12placeholders4__phILi1EEERKNSF_ILi2EEEEEENS_9allocatorISM_EEFvS9_bEED1Ev, symObjAddr: 0x6E58, symBinAddr: 0x200F4, symSize: 0x4 }
  - { offsetInCU: 0x437D4, offset: 0x20FE6F, size: 0x8, addend: 0x0, symName: __ZNSt3__110__function6__funcINS_6__bindIMN4grpc25DefaultHealthCheckService22HealthCheckServiceImpl16CheckCallHandlerEFvNS_10shared_ptrINS5_11CallHandlerEEEbEJRPS6_RKNS_12placeholders4__phILi1EEERKNSF_ILi2EEEEEENS_9allocatorISM_EEFvS9_bEED0Ev, symObjAddr: 0x6E5C, symBinAddr: 0x200F8, symSize: 0x4 }
  - { offsetInCU: 0x439C1, offset: 0x21005C, size: 0x8, addend: 0x0, symName: __ZNKSt3__110__function6__funcINS_6__bindIMN4grpc25DefaultHealthCheckService22HealthCheckServiceImpl16CheckCallHandlerEFvNS_10shared_ptrINS5_11CallHandlerEEEbEJRPS6_RKNS_12placeholders4__phILi1EEERKNSF_ILi2EEEEEENS_9allocatorISM_EEFvS9_bEE7__cloneEv, symObjAddr: 0x6E60, symBinAddr: 0x200FC, symSize: 0x44 }
  - { offsetInCU: 0x43CF9, offset: 0x210394, size: 0x8, addend: 0x0, symName: __ZNKSt3__110__function6__funcINS_6__bindIMN4grpc25DefaultHealthCheckService22HealthCheckServiceImpl16CheckCallHandlerEFvNS_10shared_ptrINS5_11CallHandlerEEEbEJRPS6_RKNS_12placeholders4__phILi1EEERKNSF_ILi2EEEEEENS_9allocatorISM_EEFvS9_bEE7__cloneEPNS0_6__baseISP_EE, symObjAddr: 0x6EA4, symBinAddr: 0x20140, symSize: 0x24 }
  - { offsetInCU: 0x43D31, offset: 0x2103CC, size: 0x8, addend: 0x0, symName: __ZNKSt3__110__function6__funcINS_6__bindIMN4grpc25DefaultHealthCheckService22HealthCheckServiceImpl16CheckCallHandlerEFvNS_10shared_ptrINS5_11CallHandlerEEEbEJRPS6_RKNS_12placeholders4__phILi1EEERKNSF_ILi2EEEEEENS_9allocatorISM_EEFvS9_bEE7__cloneEPNS0_6__baseISP_EE, symObjAddr: 0x6EA4, symBinAddr: 0x20140, symSize: 0x24 }
  - { offsetInCU: 0x43D60, offset: 0x2103FB, size: 0x8, addend: 0x0, symName: __ZNKSt3__110__function6__funcINS_6__bindIMN4grpc25DefaultHealthCheckService22HealthCheckServiceImpl16CheckCallHandlerEFvNS_10shared_ptrINS5_11CallHandlerEEEbEJRPS6_RKNS_12placeholders4__phILi1EEERKNSF_ILi2EEEEEENS_9allocatorISM_EEFvS9_bEE7__cloneEPNS0_6__baseISP_EE, symObjAddr: 0x6EA4, symBinAddr: 0x20140, symSize: 0x24 }
  - { offsetInCU: 0x43E78, offset: 0x210513, size: 0x8, addend: 0x0, symName: __ZNSt3__110__function6__funcINS_6__bindIMN4grpc25DefaultHealthCheckService22HealthCheckServiceImpl16CheckCallHandlerEFvNS_10shared_ptrINS5_11CallHandlerEEEbEJRPS6_RKNS_12placeholders4__phILi1EEERKNSF_ILi2EEEEEENS_9allocatorISM_EEFvS9_bEE7destroyEv, symObjAddr: 0x6EC8, symBinAddr: 0x20164, symSize: 0x4 }
  - { offsetInCU: 0x43ECD, offset: 0x210568, size: 0x8, addend: 0x0, symName: __ZNSt3__110__function6__funcINS_6__bindIMN4grpc25DefaultHealthCheckService22HealthCheckServiceImpl16CheckCallHandlerEFvNS_10shared_ptrINS5_11CallHandlerEEEbEJRPS6_RKNS_12placeholders4__phILi1EEERKNSF_ILi2EEEEEENS_9allocatorISM_EEFvS9_bEE18destroy_deallocateEv, symObjAddr: 0x6ECC, symBinAddr: 0x20168, symSize: 0x4 }
  - { offsetInCU: 0x43F03, offset: 0x21059E, size: 0x8, addend: 0x0, symName: __ZNSt3__110__function6__funcINS_6__bindIMN4grpc25DefaultHealthCheckService22HealthCheckServiceImpl16CheckCallHandlerEFvNS_10shared_ptrINS5_11CallHandlerEEEbEJRPS6_RKNS_12placeholders4__phILi1EEERKNSF_ILi2EEEEEENS_9allocatorISM_EEFvS9_bEE18destroy_deallocateEv, symObjAddr: 0x6ECC, symBinAddr: 0x20168, symSize: 0x4 }
  - { offsetInCU: 0x43F27, offset: 0x2105C2, size: 0x8, addend: 0x0, symName: __ZNSt3__110__function6__funcINS_6__bindIMN4grpc25DefaultHealthCheckService22HealthCheckServiceImpl16CheckCallHandlerEFvNS_10shared_ptrINS5_11CallHandlerEEEbEJRPS6_RKNS_12placeholders4__phILi1EEERKNSF_ILi2EEEEEENS_9allocatorISM_EEFvS9_bEE18destroy_deallocateEv, symObjAddr: 0x6ECC, symBinAddr: 0x20168, symSize: 0x4 }
  - { offsetInCU: 0x43F53, offset: 0x2105EE, size: 0x8, addend: 0x0, symName: __ZNSt3__110__function6__funcINS_6__bindIMN4grpc25DefaultHealthCheckService22HealthCheckServiceImpl16CheckCallHandlerEFvNS_10shared_ptrINS5_11CallHandlerEEEbEJRPS6_RKNS_12placeholders4__phILi1EEERKNSF_ILi2EEEEEENS_9allocatorISM_EEFvS9_bEE18destroy_deallocateEv, symObjAddr: 0x6ECC, symBinAddr: 0x20168, symSize: 0x4 }
  - { offsetInCU: 0x43F7A, offset: 0x210615, size: 0x8, addend: 0x0, symName: __ZNSt3__110__function6__funcINS_6__bindIMN4grpc25DefaultHealthCheckService22HealthCheckServiceImpl16CheckCallHandlerEFvNS_10shared_ptrINS5_11CallHandlerEEEbEJRPS6_RKNS_12placeholders4__phILi1EEERKNSF_ILi2EEEEEENS_9allocatorISM_EEFvS9_bEE18destroy_deallocateEv, symObjAddr: 0x6ECC, symBinAddr: 0x20168, symSize: 0x4 }
  - { offsetInCU: 0x44096, offset: 0x210731, size: 0x8, addend: 0x0, symName: __ZNSt3__110__function6__funcINS_6__bindIMN4grpc25DefaultHealthCheckService22HealthCheckServiceImpl16CheckCallHandlerEFvNS_10shared_ptrINS5_11CallHandlerEEEbEJRPS6_RKNS_12placeholders4__phILi1EEERKNSF_ILi2EEEEEENS_9allocatorISM_EEFvS9_bEEclEOS9_Ob, symObjAddr: 0x6ED0, symBinAddr: 0x2016C, symSize: 0x8 }
  - { offsetInCU: 0x44182, offset: 0x21081D, size: 0x8, addend: 0x0, symName: __ZNSt3__16__bindIMN4grpc25DefaultHealthCheckService22HealthCheckServiceImpl16CheckCallHandlerEFvNS_10shared_ptrINS3_11CallHandlerEEEbEJRPS4_RKNS_12placeholders4__phILi1EEERKNSD_ILi2EEEEEclB7v160006IJS7_bEEENS_13__bind_returnIS9_NS_5tupleIJSA_SE_SH_EEENSN_IJDpOT_EEEXsr22__is_valid_bind_returnIS9_SO_SS_EE5valueEE4typeESR_, symObjAddr: 0x6F20, symBinAddr: 0x201BC, symSize: 0xA0 }
  - { offsetInCU: 0x44384, offset: 0x210A1F, size: 0x8, addend: 0x0, symName: __ZNKSt3__110__function6__funcINS_6__bindIMN4grpc25DefaultHealthCheckService22HealthCheckServiceImpl16CheckCallHandlerEFvNS_10shared_ptrINS5_11CallHandlerEEEbEJRPS6_RKNS_12placeholders4__phILi1EEERKNSF_ILi2EEEEEENS_9allocatorISM_EEFvS9_bEE6targetERKSt9type_info, symObjAddr: 0x6ED8, symBinAddr: 0x20174, symSize: 0x3C }
  - { offsetInCU: 0x44421, offset: 0x210ABC, size: 0x8, addend: 0x0, symName: __ZNKSt3__110__function6__funcINS_6__bindIMN4grpc25DefaultHealthCheckService22HealthCheckServiceImpl16CheckCallHandlerEFvNS_10shared_ptrINS5_11CallHandlerEEEbEJRPS6_RKNS_12placeholders4__phILi1EEERKNSF_ILi2EEEEEENS_9allocatorISM_EEFvS9_bEE11target_typeEv, symObjAddr: 0x6F14, symBinAddr: 0x201B0, symSize: 0xC }
  - { offsetInCU: 0x4444F, offset: 0x210AEA, size: 0x8, addend: 0x0, symName: __ZNSt3__16__bindIMN4grpc25DefaultHealthCheckService22HealthCheckServiceImpl16CheckCallHandlerEFvNS_10shared_ptrINS3_11CallHandlerEEEbEJRPS4_RKNS_12placeholders4__phILi1EEERKNSD_ILi2EEEEEclB7v160006IJS7_bEEENS_13__bind_returnIS9_NS_5tupleIJSA_SE_SH_EEENSN_IJDpOT_EEEXsr22__is_valid_bind_returnIS9_SO_SS_EE5valueEE4typeESR_.cold.1, symObjAddr: 0x88E4, symBinAddr: 0x48ED8, symSize: 0x2C }
  - { offsetInCU: 0x445E9, offset: 0x210C84, size: 0x8, addend: 0x0, symName: __ZN4grpc15ServerInterface19PayloadAsyncRequestINS_10ByteBufferEEC2EPNS_8internal16RpcServiceMethodEPS0_PNS_13ServerContextEPNS4_29ServerAsyncStreamingInterfaceEPNS_15CompletionQueueEPNS_21ServerCompletionQueueEPvPS2_, symObjAddr: 0x70E0, symBinAddr: 0x20334, symSize: 0xB0 }
  - { offsetInCU: 0x4480E, offset: 0x210EA9, size: 0x8, addend: 0x0, symName: __ZN4grpc15ServerInterface19PayloadAsyncRequestINS_10ByteBufferEED1Ev, symObjAddr: 0x7190, symBinAddr: 0x203E4, symSize: 0x2C }
  - { offsetInCU: 0x448D7, offset: 0x210F72, size: 0x8, addend: 0x0, symName: __ZN4grpc15ServerInterface19PayloadAsyncRequestINS_10ByteBufferEED0Ev, symObjAddr: 0x71BC, symBinAddr: 0x20410, symSize: 0x30 }
  - { offsetInCU: 0x449D2, offset: 0x21106D, size: 0x8, addend: 0x0, symName: __ZN4grpc15ServerInterface19PayloadAsyncRequestINS_10ByteBufferEE14FinalizeResultEPPvPb, symObjAddr: 0x71EC, symBinAddr: 0x20440, symSize: 0x170 }
  - { offsetInCU: 0x44ED8, offset: 0x211573, size: 0x8, addend: 0x0, symName: __ZN4grpc15ServerInterface22RegisteredAsyncRequest14FinalizeResultEPPvPb, symObjAddr: 0x735C, symBinAddr: 0x205B0, symSize: 0xB4 }
  - { offsetInCU: 0x44F62, offset: 0x2115FD, size: 0x8, addend: 0x0, symName: __ZN4grpc19SerializationTraitsINS_10ByteBufferEvE11DeserializeEPS1_S3_, symObjAddr: 0x7410, symBinAddr: 0x20664, symSize: 0xA0 }
  - { offsetInCU: 0x45137, offset: 0x2117D2, size: 0x8, addend: 0x0, symName: __ZN4grpc17ServerContextBase19set_server_rpc_infoEPKcNS_8internal9RpcMethod7RpcTypeERKNSt3__16vectorINS6_10unique_ptrINS_12experimental33ServerInterceptorFactoryInterfaceENS6_14default_deleteISA_EEEENS6_9allocatorISD_EEEE, symObjAddr: 0x74B0, symBinAddr: 0x20704, symSize: 0x68 }
  - { offsetInCU: 0x4558C, offset: 0x211C27, size: 0x8, addend: 0x0, symName: __ZN4grpc12experimental13ServerRpcInfo20RegisterInterceptorsERKNSt3__16vectorINS2_10unique_ptrINS0_33ServerInterceptorFactoryInterfaceENS2_14default_deleteIS5_EEEENS2_9allocatorIS8_EEEE, symObjAddr: 0x7518, symBinAddr: 0x2076C, symSize: 0x17C }
  - { offsetInCU: 0x46680, offset: 0x212D1B, size: 0x8, addend: 0x0, symName: __ZN4grpc8internal9CallOpSetINS0_25CallOpSendInitialMetadataENS0_17CallOpSendMessageENS0_22CallOpServerSendStatusENS0_8CallNoOpILi4EEENS5_ILi5EEENS5_ILi6EEEEC2Ev, symObjAddr: 0x7990, symBinAddr: 0x20B3C, symSize: 0x9C }
  - { offsetInCU: 0x466AB, offset: 0x212D46, size: 0x8, addend: 0x0, symName: __ZN4grpc8internal9CallOpSetINS0_25CallOpSendInitialMetadataENS0_17CallOpSendMessageENS0_22CallOpServerSendStatusENS0_8CallNoOpILi4EEENS5_ILi5EEENS5_ILi6EEEEC2Ev, symObjAddr: 0x7990, symBinAddr: 0x20B3C, symSize: 0x9C }
  - { offsetInCU: 0x46A12, offset: 0x2130AD, size: 0x8, addend: 0x0, symName: __ZN4grpc25ServerAsyncResponseWriterINS_10ByteBufferEED0Ev, symObjAddr: 0x7828, symBinAddr: 0x209D4, symSize: 0xA8 }
  - { offsetInCU: 0x46EC4, offset: 0x21355F, size: 0x8, addend: 0x0, symName: __ZN4grpc25ServerAsyncResponseWriterINS_10ByteBufferEE19SendInitialMetadataEPv, symObjAddr: 0x78D0, symBinAddr: 0x20A7C, symSize: 0xA8 }
  - { offsetInCU: 0x47009, offset: 0x2136A4, size: 0x8, addend: 0x0, symName: __ZN4grpc25ServerAsyncResponseWriterINS_10ByteBufferEE8BindCallEPNS_8internal4CallE, symObjAddr: 0x7978, symBinAddr: 0x20B24, symSize: 0x18 }
  - { offsetInCU: 0x470A5, offset: 0x213740, size: 0x8, addend: 0x0, symName: __ZNSt3__110__function6__funcINS_6__bindIMN4grpc25DefaultHealthCheckService22HealthCheckServiceImpl16CheckCallHandlerEFvNS_10shared_ptrINS5_11CallHandlerEEEbEJPS6_RKNS_12placeholders4__phILi1EEERKNSE_ILi2EEEEEENS_9allocatorISL_EEFvS9_bEED1Ev, symObjAddr: 0x7A2C, symBinAddr: 0x20BD8, symSize: 0x4 }
  - { offsetInCU: 0x470D1, offset: 0x21376C, size: 0x8, addend: 0x0, symName: __ZNSt3__110__function6__funcINS_6__bindIMN4grpc25DefaultHealthCheckService22HealthCheckServiceImpl16CheckCallHandlerEFvNS_10shared_ptrINS5_11CallHandlerEEEbEJPS6_RKNS_12placeholders4__phILi1EEERKNSE_ILi2EEEEEENS_9allocatorISL_EEFvS9_bEED0Ev, symObjAddr: 0x7A30, symBinAddr: 0x20BDC, symSize: 0x4 }
  - { offsetInCU: 0x472BE, offset: 0x213959, size: 0x8, addend: 0x0, symName: __ZNKSt3__110__function6__funcINS_6__bindIMN4grpc25DefaultHealthCheckService22HealthCheckServiceImpl16CheckCallHandlerEFvNS_10shared_ptrINS5_11CallHandlerEEEbEJPS6_RKNS_12placeholders4__phILi1EEERKNSE_ILi2EEEEEENS_9allocatorISL_EEFvS9_bEE7__cloneEv, symObjAddr: 0x7A34, symBinAddr: 0x20BE0, symSize: 0x44 }
  - { offsetInCU: 0x475F6, offset: 0x213C91, size: 0x8, addend: 0x0, symName: __ZNKSt3__110__function6__funcINS_6__bindIMN4grpc25DefaultHealthCheckService22HealthCheckServiceImpl16CheckCallHandlerEFvNS_10shared_ptrINS5_11CallHandlerEEEbEJPS6_RKNS_12placeholders4__phILi1EEERKNSE_ILi2EEEEEENS_9allocatorISL_EEFvS9_bEE7__cloneEPNS0_6__baseISO_EE, symObjAddr: 0x7A78, symBinAddr: 0x20C24, symSize: 0x24 }
  - { offsetInCU: 0x4762E, offset: 0x213CC9, size: 0x8, addend: 0x0, symName: __ZNKSt3__110__function6__funcINS_6__bindIMN4grpc25DefaultHealthCheckService22HealthCheckServiceImpl16CheckCallHandlerEFvNS_10shared_ptrINS5_11CallHandlerEEEbEJPS6_RKNS_12placeholders4__phILi1EEERKNSE_ILi2EEEEEENS_9allocatorISL_EEFvS9_bEE7__cloneEPNS0_6__baseISO_EE, symObjAddr: 0x7A78, symBinAddr: 0x20C24, symSize: 0x24 }
  - { offsetInCU: 0x4765D, offset: 0x213CF8, size: 0x8, addend: 0x0, symName: __ZNKSt3__110__function6__funcINS_6__bindIMN4grpc25DefaultHealthCheckService22HealthCheckServiceImpl16CheckCallHandlerEFvNS_10shared_ptrINS5_11CallHandlerEEEbEJPS6_RKNS_12placeholders4__phILi1EEERKNSE_ILi2EEEEEENS_9allocatorISL_EEFvS9_bEE7__cloneEPNS0_6__baseISO_EE, symObjAddr: 0x7A78, symBinAddr: 0x20C24, symSize: 0x24 }
  - { offsetInCU: 0x47775, offset: 0x213E10, size: 0x8, addend: 0x0, symName: __ZNSt3__110__function6__funcINS_6__bindIMN4grpc25DefaultHealthCheckService22HealthCheckServiceImpl16CheckCallHandlerEFvNS_10shared_ptrINS5_11CallHandlerEEEbEJPS6_RKNS_12placeholders4__phILi1EEERKNSE_ILi2EEEEEENS_9allocatorISL_EEFvS9_bEE7destroyEv, symObjAddr: 0x7A9C, symBinAddr: 0x20C48, symSize: 0x4 }
  - { offsetInCU: 0x477CA, offset: 0x213E65, size: 0x8, addend: 0x0, symName: __ZNSt3__110__function6__funcINS_6__bindIMN4grpc25DefaultHealthCheckService22HealthCheckServiceImpl16CheckCallHandlerEFvNS_10shared_ptrINS5_11CallHandlerEEEbEJPS6_RKNS_12placeholders4__phILi1EEERKNSE_ILi2EEEEEENS_9allocatorISL_EEFvS9_bEE18destroy_deallocateEv, symObjAddr: 0x7AA0, symBinAddr: 0x20C4C, symSize: 0x4 }
  - { offsetInCU: 0x47800, offset: 0x213E9B, size: 0x8, addend: 0x0, symName: __ZNSt3__110__function6__funcINS_6__bindIMN4grpc25DefaultHealthCheckService22HealthCheckServiceImpl16CheckCallHandlerEFvNS_10shared_ptrINS5_11CallHandlerEEEbEJPS6_RKNS_12placeholders4__phILi1EEERKNSE_ILi2EEEEEENS_9allocatorISL_EEFvS9_bEE18destroy_deallocateEv, symObjAddr: 0x7AA0, symBinAddr: 0x20C4C, symSize: 0x4 }
  - { offsetInCU: 0x47824, offset: 0x213EBF, size: 0x8, addend: 0x0, symName: __ZNSt3__110__function6__funcINS_6__bindIMN4grpc25DefaultHealthCheckService22HealthCheckServiceImpl16CheckCallHandlerEFvNS_10shared_ptrINS5_11CallHandlerEEEbEJPS6_RKNS_12placeholders4__phILi1EEERKNSE_ILi2EEEEEENS_9allocatorISL_EEFvS9_bEE18destroy_deallocateEv, symObjAddr: 0x7AA0, symBinAddr: 0x20C4C, symSize: 0x4 }
  - { offsetInCU: 0x47850, offset: 0x213EEB, size: 0x8, addend: 0x0, symName: __ZNSt3__110__function6__funcINS_6__bindIMN4grpc25DefaultHealthCheckService22HealthCheckServiceImpl16CheckCallHandlerEFvNS_10shared_ptrINS5_11CallHandlerEEEbEJPS6_RKNS_12placeholders4__phILi1EEERKNSE_ILi2EEEEEENS_9allocatorISL_EEFvS9_bEE18destroy_deallocateEv, symObjAddr: 0x7AA0, symBinAddr: 0x20C4C, symSize: 0x4 }
  - { offsetInCU: 0x47877, offset: 0x213F12, size: 0x8, addend: 0x0, symName: __ZNSt3__110__function6__funcINS_6__bindIMN4grpc25DefaultHealthCheckService22HealthCheckServiceImpl16CheckCallHandlerEFvNS_10shared_ptrINS5_11CallHandlerEEEbEJPS6_RKNS_12placeholders4__phILi1EEERKNSE_ILi2EEEEEENS_9allocatorISL_EEFvS9_bEE18destroy_deallocateEv, symObjAddr: 0x7AA0, symBinAddr: 0x20C4C, symSize: 0x4 }
  - { offsetInCU: 0x47914, offset: 0x213FAF, size: 0x8, addend: 0x0, symName: __ZNSt3__110__function6__funcINS_6__bindIMN4grpc25DefaultHealthCheckService22HealthCheckServiceImpl16CheckCallHandlerEFvNS_10shared_ptrINS5_11CallHandlerEEEbEJPS6_RKNS_12placeholders4__phILi1EEERKNSE_ILi2EEEEEENS_9allocatorISL_EEFvS9_bEEclEOS9_Ob, symObjAddr: 0x7AA4, symBinAddr: 0x20C50, symSize: 0x8 }
  - { offsetInCU: 0x47A00, offset: 0x21409B, size: 0x8, addend: 0x0, symName: __ZNSt3__16__bindIMN4grpc25DefaultHealthCheckService22HealthCheckServiceImpl16CheckCallHandlerEFvNS_10shared_ptrINS3_11CallHandlerEEEbEJPS4_RKNS_12placeholders4__phILi1EEERKNSC_ILi2EEEEEclB7v160006IJS7_bEEENS_13__bind_returnIS9_NS_5tupleIJSA_SD_SG_EEENSM_IJDpOT_EEEXsr22__is_valid_bind_returnIS9_SN_SR_EE5valueEE4typeESQ_, symObjAddr: 0x7AF4, symBinAddr: 0x20CA0, symSize: 0xA0 }
  - { offsetInCU: 0x47C02, offset: 0x21429D, size: 0x8, addend: 0x0, symName: __ZNKSt3__110__function6__funcINS_6__bindIMN4grpc25DefaultHealthCheckService22HealthCheckServiceImpl16CheckCallHandlerEFvNS_10shared_ptrINS5_11CallHandlerEEEbEJPS6_RKNS_12placeholders4__phILi1EEERKNSE_ILi2EEEEEENS_9allocatorISL_EEFvS9_bEE6targetERKSt9type_info, symObjAddr: 0x7AAC, symBinAddr: 0x20C58, symSize: 0x3C }
  - { offsetInCU: 0x47C52, offset: 0x2142ED, size: 0x8, addend: 0x0, symName: __ZNKSt3__110__function6__funcINS_6__bindIMN4grpc25DefaultHealthCheckService22HealthCheckServiceImpl16CheckCallHandlerEFvNS_10shared_ptrINS5_11CallHandlerEEEbEJPS6_RKNS_12placeholders4__phILi1EEERKNSE_ILi2EEEEEENS_9allocatorISL_EEFvS9_bEE11target_typeEv, symObjAddr: 0x7AE8, symBinAddr: 0x20C94, symSize: 0xC }
  - { offsetInCU: 0x47C7A, offset: 0x214315, size: 0x8, addend: 0x0, symName: __ZNSt3__16__bindIMN4grpc25DefaultHealthCheckService22HealthCheckServiceImpl16CheckCallHandlerEFvNS_10shared_ptrINS3_11CallHandlerEEEbEJPS4_RKNS_12placeholders4__phILi1EEERKNSC_ILi2EEEEEclB7v160006IJS7_bEEENS_13__bind_returnIS9_NS_5tupleIJSA_SD_SG_EEENSM_IJDpOT_EEEXsr22__is_valid_bind_returnIS9_SN_SR_EE5valueEE4typeESQ_.cold.1, symObjAddr: 0x8910, symBinAddr: 0x48F04, symSize: 0x2C }
  - { offsetInCU: 0x47D4D, offset: 0x2143E8, size: 0x8, addend: 0x0, symName: __ZN4grpc19SerializationTraitsINS_10ByteBufferEvE9SerializeERKS1_PS1_Pb, symObjAddr: 0x7CC0, symBinAddr: 0x20E6C, symSize: 0xA0 }
  - { offsetInCU: 0x47F12, offset: 0x2145AD, size: 0x8, addend: 0x0, symName: __ZN4grpc10ByteBufferaSERKS0_, symObjAddr: 0x7D60, symBinAddr: 0x20F0C, symSize: 0x74 }
  - { offsetInCU: 0x481CA, offset: 0x214865, size: 0x8, addend: 0x0, symName: __ZNSt3__120__shared_ptr_emplaceIN4grpc25DefaultHealthCheckService22HealthCheckServiceImpl16WatchCallHandlerENS_9allocatorIS4_EEEC2B7v160006IJRPNS1_21ServerCompletionQueueERPS2_RPS3_EEES6_DpOT_, symObjAddr: 0x7E44, symBinAddr: 0x20FF0, symSize: 0x58 }
  - { offsetInCU: 0x48323, offset: 0x2149BE, size: 0x8, addend: 0x0, symName: __ZNSt3__120__shared_ptr_emplaceIN4grpc25DefaultHealthCheckService22HealthCheckServiceImpl16WatchCallHandlerENS_9allocatorIS4_EEED1Ev, symObjAddr: 0x7E9C, symBinAddr: 0x21048, symSize: 0x14 }
  - { offsetInCU: 0x48345, offset: 0x2149E0, size: 0x8, addend: 0x0, symName: __ZNSt3__120__shared_ptr_emplaceIN4grpc25DefaultHealthCheckService22HealthCheckServiceImpl16WatchCallHandlerENS_9allocatorIS4_EEED1Ev, symObjAddr: 0x7E9C, symBinAddr: 0x21048, symSize: 0x14 }
  - { offsetInCU: 0x4837E, offset: 0x214A19, size: 0x8, addend: 0x0, symName: __ZNSt3__120__shared_ptr_emplaceIN4grpc25DefaultHealthCheckService22HealthCheckServiceImpl16WatchCallHandlerENS_9allocatorIS4_EEED0Ev, symObjAddr: 0x7EB0, symBinAddr: 0x2105C, symSize: 0x24 }
  - { offsetInCU: 0x483E6, offset: 0x214A81, size: 0x8, addend: 0x0, symName: __ZNSt3__120__shared_ptr_emplaceIN4grpc25DefaultHealthCheckService22HealthCheckServiceImpl16WatchCallHandlerENS_9allocatorIS4_EEE16__on_zero_sharedEv, symObjAddr: 0x7ED4, symBinAddr: 0x21080, symSize: 0xC }
  - { offsetInCU: 0x48418, offset: 0x214AB3, size: 0x8, addend: 0x0, symName: __ZNSt3__120__shared_ptr_emplaceIN4grpc25DefaultHealthCheckService22HealthCheckServiceImpl16WatchCallHandlerENS_9allocatorIS4_EEE21__on_zero_shared_weakEv, symObjAddr: 0x7EE0, symBinAddr: 0x2108C, symSize: 0x4 }
  - { offsetInCU: 0x4844C, offset: 0x214AE7, size: 0x8, addend: 0x0, symName: __ZNSt3__120__shared_ptr_emplaceIN4grpc25DefaultHealthCheckService22HealthCheckServiceImpl16WatchCallHandlerENS_9allocatorIS4_EEE21__on_zero_shared_weakEv, symObjAddr: 0x7EE0, symBinAddr: 0x2108C, symSize: 0x4 }
  - { offsetInCU: 0x48470, offset: 0x214B0B, size: 0x8, addend: 0x0, symName: __ZNSt3__120__shared_ptr_emplaceIN4grpc25DefaultHealthCheckService22HealthCheckServiceImpl16WatchCallHandlerENS_9allocatorIS4_EEE21__on_zero_shared_weakEv, symObjAddr: 0x7EE0, symBinAddr: 0x2108C, symSize: 0x4 }
  - { offsetInCU: 0x48494, offset: 0x214B2F, size: 0x8, addend: 0x0, symName: __ZNSt3__120__shared_ptr_emplaceIN4grpc25DefaultHealthCheckService22HealthCheckServiceImpl16WatchCallHandlerENS_9allocatorIS4_EEE21__on_zero_shared_weakEv, symObjAddr: 0x7EE0, symBinAddr: 0x2108C, symSize: 0x4 }
  - { offsetInCU: 0x484C2, offset: 0x214B5D, size: 0x8, addend: 0x0, symName: __ZNSt3__120__shared_ptr_emplaceIN4grpc25DefaultHealthCheckService22HealthCheckServiceImpl16WatchCallHandlerENS_9allocatorIS4_EEE21__on_zero_shared_weakEv, symObjAddr: 0x7EE0, symBinAddr: 0x2108C, symSize: 0x4 }
  - { offsetInCU: 0x484EB, offset: 0x214B86, size: 0x8, addend: 0x0, symName: __ZNSt3__120__shared_ptr_emplaceIN4grpc25DefaultHealthCheckService22HealthCheckServiceImpl16WatchCallHandlerENS_9allocatorIS4_EEE21__on_zero_shared_weakEv, symObjAddr: 0x7EE0, symBinAddr: 0x2108C, symSize: 0x4 }
  - { offsetInCU: 0x48517, offset: 0x214BB2, size: 0x8, addend: 0x0, symName: __ZNSt3__110__function6__funcINS_6__bindIMN4grpc25DefaultHealthCheckService22HealthCheckServiceImpl16WatchCallHandlerEFvNS_10shared_ptrINS5_11CallHandlerEEEbEJRPS6_RKNS_12placeholders4__phILi1EEERKNSF_ILi2EEEEEENS_9allocatorISM_EEFvS9_bEED1Ev, symObjAddr: 0x7EE4, symBinAddr: 0x21090, symSize: 0x4 }
  - { offsetInCU: 0x48543, offset: 0x214BDE, size: 0x8, addend: 0x0, symName: __ZNSt3__110__function6__funcINS_6__bindIMN4grpc25DefaultHealthCheckService22HealthCheckServiceImpl16WatchCallHandlerEFvNS_10shared_ptrINS5_11CallHandlerEEEbEJRPS6_RKNS_12placeholders4__phILi1EEERKNSF_ILi2EEEEEENS_9allocatorISM_EEFvS9_bEED0Ev, symObjAddr: 0x7EE8, symBinAddr: 0x21094, symSize: 0x4 }
  - { offsetInCU: 0x48730, offset: 0x214DCB, size: 0x8, addend: 0x0, symName: __ZNKSt3__110__function6__funcINS_6__bindIMN4grpc25DefaultHealthCheckService22HealthCheckServiceImpl16WatchCallHandlerEFvNS_10shared_ptrINS5_11CallHandlerEEEbEJRPS6_RKNS_12placeholders4__phILi1EEERKNSF_ILi2EEEEEENS_9allocatorISM_EEFvS9_bEE7__cloneEv, symObjAddr: 0x7EEC, symBinAddr: 0x21098, symSize: 0x44 }
  - { offsetInCU: 0x48A68, offset: 0x215103, size: 0x8, addend: 0x0, symName: __ZNKSt3__110__function6__funcINS_6__bindIMN4grpc25DefaultHealthCheckService22HealthCheckServiceImpl16WatchCallHandlerEFvNS_10shared_ptrINS5_11CallHandlerEEEbEJRPS6_RKNS_12placeholders4__phILi1EEERKNSF_ILi2EEEEEENS_9allocatorISM_EEFvS9_bEE7__cloneEPNS0_6__baseISP_EE, symObjAddr: 0x7F30, symBinAddr: 0x210DC, symSize: 0x24 }
  - { offsetInCU: 0x48AA0, offset: 0x21513B, size: 0x8, addend: 0x0, symName: __ZNKSt3__110__function6__funcINS_6__bindIMN4grpc25DefaultHealthCheckService22HealthCheckServiceImpl16WatchCallHandlerEFvNS_10shared_ptrINS5_11CallHandlerEEEbEJRPS6_RKNS_12placeholders4__phILi1EEERKNSF_ILi2EEEEEENS_9allocatorISM_EEFvS9_bEE7__cloneEPNS0_6__baseISP_EE, symObjAddr: 0x7F30, symBinAddr: 0x210DC, symSize: 0x24 }
  - { offsetInCU: 0x48ACF, offset: 0x21516A, size: 0x8, addend: 0x0, symName: __ZNKSt3__110__function6__funcINS_6__bindIMN4grpc25DefaultHealthCheckService22HealthCheckServiceImpl16WatchCallHandlerEFvNS_10shared_ptrINS5_11CallHandlerEEEbEJRPS6_RKNS_12placeholders4__phILi1EEERKNSF_ILi2EEEEEENS_9allocatorISM_EEFvS9_bEE7__cloneEPNS0_6__baseISP_EE, symObjAddr: 0x7F30, symBinAddr: 0x210DC, symSize: 0x24 }
  - { offsetInCU: 0x48BE7, offset: 0x215282, size: 0x8, addend: 0x0, symName: __ZNSt3__110__function6__funcINS_6__bindIMN4grpc25DefaultHealthCheckService22HealthCheckServiceImpl16WatchCallHandlerEFvNS_10shared_ptrINS5_11CallHandlerEEEbEJRPS6_RKNS_12placeholders4__phILi1EEERKNSF_ILi2EEEEEENS_9allocatorISM_EEFvS9_bEE7destroyEv, symObjAddr: 0x7F54, symBinAddr: 0x21100, symSize: 0x4 }
  - { offsetInCU: 0x48C3C, offset: 0x2152D7, size: 0x8, addend: 0x0, symName: __ZNSt3__110__function6__funcINS_6__bindIMN4grpc25DefaultHealthCheckService22HealthCheckServiceImpl16WatchCallHandlerEFvNS_10shared_ptrINS5_11CallHandlerEEEbEJRPS6_RKNS_12placeholders4__phILi1EEERKNSF_ILi2EEEEEENS_9allocatorISM_EEFvS9_bEE18destroy_deallocateEv, symObjAddr: 0x7F58, symBinAddr: 0x21104, symSize: 0x4 }
  - { offsetInCU: 0x48C72, offset: 0x21530D, size: 0x8, addend: 0x0, symName: __ZNSt3__110__function6__funcINS_6__bindIMN4grpc25DefaultHealthCheckService22HealthCheckServiceImpl16WatchCallHandlerEFvNS_10shared_ptrINS5_11CallHandlerEEEbEJRPS6_RKNS_12placeholders4__phILi1EEERKNSF_ILi2EEEEEENS_9allocatorISM_EEFvS9_bEE18destroy_deallocateEv, symObjAddr: 0x7F58, symBinAddr: 0x21104, symSize: 0x4 }
  - { offsetInCU: 0x48C96, offset: 0x215331, size: 0x8, addend: 0x0, symName: __ZNSt3__110__function6__funcINS_6__bindIMN4grpc25DefaultHealthCheckService22HealthCheckServiceImpl16WatchCallHandlerEFvNS_10shared_ptrINS5_11CallHandlerEEEbEJRPS6_RKNS_12placeholders4__phILi1EEERKNSF_ILi2EEEEEENS_9allocatorISM_EEFvS9_bEE18destroy_deallocateEv, symObjAddr: 0x7F58, symBinAddr: 0x21104, symSize: 0x4 }
  - { offsetInCU: 0x48CC2, offset: 0x21535D, size: 0x8, addend: 0x0, symName: __ZNSt3__110__function6__funcINS_6__bindIMN4grpc25DefaultHealthCheckService22HealthCheckServiceImpl16WatchCallHandlerEFvNS_10shared_ptrINS5_11CallHandlerEEEbEJRPS6_RKNS_12placeholders4__phILi1EEERKNSF_ILi2EEEEEENS_9allocatorISM_EEFvS9_bEE18destroy_deallocateEv, symObjAddr: 0x7F58, symBinAddr: 0x21104, symSize: 0x4 }
  - { offsetInCU: 0x48CE9, offset: 0x215384, size: 0x8, addend: 0x0, symName: __ZNSt3__110__function6__funcINS_6__bindIMN4grpc25DefaultHealthCheckService22HealthCheckServiceImpl16WatchCallHandlerEFvNS_10shared_ptrINS5_11CallHandlerEEEbEJRPS6_RKNS_12placeholders4__phILi1EEERKNSF_ILi2EEEEEENS_9allocatorISM_EEFvS9_bEE18destroy_deallocateEv, symObjAddr: 0x7F58, symBinAddr: 0x21104, symSize: 0x4 }
  - { offsetInCU: 0x48D86, offset: 0x215421, size: 0x8, addend: 0x0, symName: __ZNSt3__110__function6__funcINS_6__bindIMN4grpc25DefaultHealthCheckService22HealthCheckServiceImpl16WatchCallHandlerEFvNS_10shared_ptrINS5_11CallHandlerEEEbEJRPS6_RKNS_12placeholders4__phILi1EEERKNSF_ILi2EEEEEENS_9allocatorISM_EEFvS9_bEEclEOS9_Ob, symObjAddr: 0x7F5C, symBinAddr: 0x21108, symSize: 0x8 }
  - { offsetInCU: 0x48E72, offset: 0x21550D, size: 0x8, addend: 0x0, symName: __ZNSt3__16__bindIMN4grpc25DefaultHealthCheckService22HealthCheckServiceImpl16WatchCallHandlerEFvNS_10shared_ptrINS3_11CallHandlerEEEbEJRPS4_RKNS_12placeholders4__phILi1EEERKNSD_ILi2EEEEEclB7v160006IJS7_bEEENS_13__bind_returnIS9_NS_5tupleIJSA_SE_SH_EEENSN_IJDpOT_EEEXsr22__is_valid_bind_returnIS9_SO_SS_EE5valueEE4typeESR_, symObjAddr: 0x7FAC, symBinAddr: 0x21158, symSize: 0xA0 }
  - { offsetInCU: 0x49074, offset: 0x21570F, size: 0x8, addend: 0x0, symName: __ZNKSt3__110__function6__funcINS_6__bindIMN4grpc25DefaultHealthCheckService22HealthCheckServiceImpl16WatchCallHandlerEFvNS_10shared_ptrINS5_11CallHandlerEEEbEJRPS6_RKNS_12placeholders4__phILi1EEERKNSF_ILi2EEEEEENS_9allocatorISM_EEFvS9_bEE6targetERKSt9type_info, symObjAddr: 0x7F64, symBinAddr: 0x21110, symSize: 0x3C }
  - { offsetInCU: 0x490C4, offset: 0x21575F, size: 0x8, addend: 0x0, symName: __ZNKSt3__110__function6__funcINS_6__bindIMN4grpc25DefaultHealthCheckService22HealthCheckServiceImpl16WatchCallHandlerEFvNS_10shared_ptrINS5_11CallHandlerEEEbEJRPS6_RKNS_12placeholders4__phILi1EEERKNSF_ILi2EEEEEENS_9allocatorISM_EEFvS9_bEE11target_typeEv, symObjAddr: 0x7FA0, symBinAddr: 0x2114C, symSize: 0xC }
  - { offsetInCU: 0x490F2, offset: 0x21578D, size: 0x8, addend: 0x0, symName: __ZNSt3__16__bindIMN4grpc25DefaultHealthCheckService22HealthCheckServiceImpl16WatchCallHandlerEFvNS_10shared_ptrINS3_11CallHandlerEEEbEJRPS4_RKNS_12placeholders4__phILi1EEERKNSD_ILi2EEEEEclB7v160006IJS7_bEEENS_13__bind_returnIS9_NS_5tupleIJSA_SE_SH_EEENSN_IJDpOT_EEEXsr22__is_valid_bind_returnIS9_SO_SS_EE5valueEE4typeESR_.cold.1, symObjAddr: 0x893C, symBinAddr: 0x48F30, symSize: 0x2C }
  - { offsetInCU: 0x491E3, offset: 0x21587E, size: 0x8, addend: 0x0, symName: __ZN4grpc17ServerAsyncWriterINS_10ByteBufferEED0Ev, symObjAddr: 0x81C0, symBinAddr: 0x2136C, symSize: 0x14 }
  - { offsetInCU: 0x49238, offset: 0x2158D3, size: 0x8, addend: 0x0, symName: __ZN4grpc17ServerAsyncWriterINS_10ByteBufferEE19SendInitialMetadataEPv, symObjAddr: 0x81D4, symBinAddr: 0x21380, symSize: 0xA8 }
  - { offsetInCU: 0x4937D, offset: 0x215A18, size: 0x8, addend: 0x0, symName: __ZN4grpc17ServerAsyncWriterINS_10ByteBufferEE8BindCallEPNS_8internal4CallE, symObjAddr: 0x827C, symBinAddr: 0x21428, symSize: 0x14 }
  - { offsetInCU: 0x493B1, offset: 0x215A4C, size: 0x8, addend: 0x0, symName: __ZN4grpc17ServerAsyncWriterINS_10ByteBufferEE14WriteAndFinishERKS1_NS_12WriteOptionsERKNS_6StatusEPv, symObjAddr: 0x8290, symBinAddr: 0x2143C, symSize: 0x104 }
  - { offsetInCU: 0x49870, offset: 0x215F0B, size: 0x8, addend: 0x0, symName: __ZN4grpc17ServerAsyncWriterINS_10ByteBufferEE5WriteERKS1_NS_12WriteOptionsEPv, symObjAddr: 0x8394, symBinAddr: 0x21540, symSize: 0xEC }
  - { offsetInCU: 0x49D1D, offset: 0x2163B8, size: 0x8, addend: 0x0, symName: __ZThn8_N4grpc17ServerAsyncWriterINS_10ByteBufferEED0Ev, symObjAddr: 0x8480, symBinAddr: 0x2162C, symSize: 0x18 }
  - { offsetInCU: 0x49D7D, offset: 0x216418, size: 0x8, addend: 0x0, symName: __ZThn8_N4grpc17ServerAsyncWriterINS_10ByteBufferEE5WriteERKS1_Pv, symObjAddr: 0x8498, symBinAddr: 0x21644, symSize: 0x8 }
  - { offsetInCU: 0x49DB4, offset: 0x21644F, size: 0x8, addend: 0x0, symName: __ZThn8_N4grpc17ServerAsyncWriterINS_10ByteBufferEE5WriteERKS1_NS_12WriteOptionsEPv, symObjAddr: 0x84A0, symBinAddr: 0x2164C, symSize: 0x8 }
  - { offsetInCU: 0x49DF3, offset: 0x21648E, size: 0x8, addend: 0x0, symName: __ZNSt3__110__function6__funcINS_6__bindIMN4grpc25DefaultHealthCheckService22HealthCheckServiceImpl16WatchCallHandlerEFvNS_10shared_ptrINS5_11CallHandlerEEEbEJPS6_RKNS_12placeholders4__phILi1EEERKNSE_ILi2EEEEEENS_9allocatorISL_EEFvS9_bEED1Ev, symObjAddr: 0x84A8, symBinAddr: 0x21654, symSize: 0x4 }
  - { offsetInCU: 0x49E1F, offset: 0x2164BA, size: 0x8, addend: 0x0, symName: __ZNSt3__110__function6__funcINS_6__bindIMN4grpc25DefaultHealthCheckService22HealthCheckServiceImpl16WatchCallHandlerEFvNS_10shared_ptrINS5_11CallHandlerEEEbEJPS6_RKNS_12placeholders4__phILi1EEERKNSE_ILi2EEEEEENS_9allocatorISL_EEFvS9_bEED0Ev, symObjAddr: 0x84AC, symBinAddr: 0x21658, symSize: 0x4 }
  - { offsetInCU: 0x4A00C, offset: 0x2166A7, size: 0x8, addend: 0x0, symName: __ZNKSt3__110__function6__funcINS_6__bindIMN4grpc25DefaultHealthCheckService22HealthCheckServiceImpl16WatchCallHandlerEFvNS_10shared_ptrINS5_11CallHandlerEEEbEJPS6_RKNS_12placeholders4__phILi1EEERKNSE_ILi2EEEEEENS_9allocatorISL_EEFvS9_bEE7__cloneEv, symObjAddr: 0x84B0, symBinAddr: 0x2165C, symSize: 0x44 }
  - { offsetInCU: 0x4A344, offset: 0x2169DF, size: 0x8, addend: 0x0, symName: __ZNKSt3__110__function6__funcINS_6__bindIMN4grpc25DefaultHealthCheckService22HealthCheckServiceImpl16WatchCallHandlerEFvNS_10shared_ptrINS5_11CallHandlerEEEbEJPS6_RKNS_12placeholders4__phILi1EEERKNSE_ILi2EEEEEENS_9allocatorISL_EEFvS9_bEE7__cloneEPNS0_6__baseISO_EE, symObjAddr: 0x84F4, symBinAddr: 0x216A0, symSize: 0x24 }
  - { offsetInCU: 0x4A37C, offset: 0x216A17, size: 0x8, addend: 0x0, symName: __ZNKSt3__110__function6__funcINS_6__bindIMN4grpc25DefaultHealthCheckService22HealthCheckServiceImpl16WatchCallHandlerEFvNS_10shared_ptrINS5_11CallHandlerEEEbEJPS6_RKNS_12placeholders4__phILi1EEERKNSE_ILi2EEEEEENS_9allocatorISL_EEFvS9_bEE7__cloneEPNS0_6__baseISO_EE, symObjAddr: 0x84F4, symBinAddr: 0x216A0, symSize: 0x24 }
  - { offsetInCU: 0x4A3AB, offset: 0x216A46, size: 0x8, addend: 0x0, symName: __ZNKSt3__110__function6__funcINS_6__bindIMN4grpc25DefaultHealthCheckService22HealthCheckServiceImpl16WatchCallHandlerEFvNS_10shared_ptrINS5_11CallHandlerEEEbEJPS6_RKNS_12placeholders4__phILi1EEERKNSE_ILi2EEEEEENS_9allocatorISL_EEFvS9_bEE7__cloneEPNS0_6__baseISO_EE, symObjAddr: 0x84F4, symBinAddr: 0x216A0, symSize: 0x24 }
  - { offsetInCU: 0x4A4C3, offset: 0x216B5E, size: 0x8, addend: 0x0, symName: __ZNSt3__110__function6__funcINS_6__bindIMN4grpc25DefaultHealthCheckService22HealthCheckServiceImpl16WatchCallHandlerEFvNS_10shared_ptrINS5_11CallHandlerEEEbEJPS6_RKNS_12placeholders4__phILi1EEERKNSE_ILi2EEEEEENS_9allocatorISL_EEFvS9_bEE7destroyEv, symObjAddr: 0x8518, symBinAddr: 0x216C4, symSize: 0x4 }
  - { offsetInCU: 0x4A518, offset: 0x216BB3, size: 0x8, addend: 0x0, symName: __ZNSt3__110__function6__funcINS_6__bindIMN4grpc25DefaultHealthCheckService22HealthCheckServiceImpl16WatchCallHandlerEFvNS_10shared_ptrINS5_11CallHandlerEEEbEJPS6_RKNS_12placeholders4__phILi1EEERKNSE_ILi2EEEEEENS_9allocatorISL_EEFvS9_bEE18destroy_deallocateEv, symObjAddr: 0x851C, symBinAddr: 0x216C8, symSize: 0x4 }
  - { offsetInCU: 0x4A54E, offset: 0x216BE9, size: 0x8, addend: 0x0, symName: __ZNSt3__110__function6__funcINS_6__bindIMN4grpc25DefaultHealthCheckService22HealthCheckServiceImpl16WatchCallHandlerEFvNS_10shared_ptrINS5_11CallHandlerEEEbEJPS6_RKNS_12placeholders4__phILi1EEERKNSE_ILi2EEEEEENS_9allocatorISL_EEFvS9_bEE18destroy_deallocateEv, symObjAddr: 0x851C, symBinAddr: 0x216C8, symSize: 0x4 }
  - { offsetInCU: 0x4A572, offset: 0x216C0D, size: 0x8, addend: 0x0, symName: __ZNSt3__110__function6__funcINS_6__bindIMN4grpc25DefaultHealthCheckService22HealthCheckServiceImpl16WatchCallHandlerEFvNS_10shared_ptrINS5_11CallHandlerEEEbEJPS6_RKNS_12placeholders4__phILi1EEERKNSE_ILi2EEEEEENS_9allocatorISL_EEFvS9_bEE18destroy_deallocateEv, symObjAddr: 0x851C, symBinAddr: 0x216C8, symSize: 0x4 }
  - { offsetInCU: 0x4A59E, offset: 0x216C39, size: 0x8, addend: 0x0, symName: __ZNSt3__110__function6__funcINS_6__bindIMN4grpc25DefaultHealthCheckService22HealthCheckServiceImpl16WatchCallHandlerEFvNS_10shared_ptrINS5_11CallHandlerEEEbEJPS6_RKNS_12placeholders4__phILi1EEERKNSE_ILi2EEEEEENS_9allocatorISL_EEFvS9_bEE18destroy_deallocateEv, symObjAddr: 0x851C, symBinAddr: 0x216C8, symSize: 0x4 }
  - { offsetInCU: 0x4A5C5, offset: 0x216C60, size: 0x8, addend: 0x0, symName: __ZNSt3__110__function6__funcINS_6__bindIMN4grpc25DefaultHealthCheckService22HealthCheckServiceImpl16WatchCallHandlerEFvNS_10shared_ptrINS5_11CallHandlerEEEbEJPS6_RKNS_12placeholders4__phILi1EEERKNSE_ILi2EEEEEENS_9allocatorISL_EEFvS9_bEE18destroy_deallocateEv, symObjAddr: 0x851C, symBinAddr: 0x216C8, symSize: 0x4 }
  - { offsetInCU: 0x4A662, offset: 0x216CFD, size: 0x8, addend: 0x0, symName: __ZNSt3__110__function6__funcINS_6__bindIMN4grpc25DefaultHealthCheckService22HealthCheckServiceImpl16WatchCallHandlerEFvNS_10shared_ptrINS5_11CallHandlerEEEbEJPS6_RKNS_12placeholders4__phILi1EEERKNSE_ILi2EEEEEENS_9allocatorISL_EEFvS9_bEEclEOS9_Ob, symObjAddr: 0x8520, symBinAddr: 0x216CC, symSize: 0x8 }
  - { offsetInCU: 0x4A74E, offset: 0x216DE9, size: 0x8, addend: 0x0, symName: __ZNSt3__16__bindIMN4grpc25DefaultHealthCheckService22HealthCheckServiceImpl16WatchCallHandlerEFvNS_10shared_ptrINS3_11CallHandlerEEEbEJPS4_RKNS_12placeholders4__phILi1EEERKNSC_ILi2EEEEEclB7v160006IJS7_bEEENS_13__bind_returnIS9_NS_5tupleIJSA_SD_SG_EEENSM_IJDpOT_EEEXsr22__is_valid_bind_returnIS9_SN_SR_EE5valueEE4typeESQ_, symObjAddr: 0x8570, symBinAddr: 0x2171C, symSize: 0xA0 }
  - { offsetInCU: 0x4A950, offset: 0x216FEB, size: 0x8, addend: 0x0, symName: __ZNKSt3__110__function6__funcINS_6__bindIMN4grpc25DefaultHealthCheckService22HealthCheckServiceImpl16WatchCallHandlerEFvNS_10shared_ptrINS5_11CallHandlerEEEbEJPS6_RKNS_12placeholders4__phILi1EEERKNSE_ILi2EEEEEENS_9allocatorISL_EEFvS9_bEE6targetERKSt9type_info, symObjAddr: 0x8528, symBinAddr: 0x216D4, symSize: 0x3C }
  - { offsetInCU: 0x4A9A0, offset: 0x21703B, size: 0x8, addend: 0x0, symName: __ZNKSt3__110__function6__funcINS_6__bindIMN4grpc25DefaultHealthCheckService22HealthCheckServiceImpl16WatchCallHandlerEFvNS_10shared_ptrINS5_11CallHandlerEEEbEJPS6_RKNS_12placeholders4__phILi1EEERKNSE_ILi2EEEEEENS_9allocatorISL_EEFvS9_bEE11target_typeEv, symObjAddr: 0x8564, symBinAddr: 0x21710, symSize: 0xC }
  - { offsetInCU: 0x4A9C8, offset: 0x217063, size: 0x8, addend: 0x0, symName: __ZNSt3__16__bindIMN4grpc25DefaultHealthCheckService22HealthCheckServiceImpl16WatchCallHandlerEFvNS_10shared_ptrINS3_11CallHandlerEEEbEJPS4_RKNS_12placeholders4__phILi1EEERKNSC_ILi2EEEEEclB7v160006IJS7_bEEENS_13__bind_returnIS9_NS_5tupleIJSA_SD_SG_EEENSM_IJDpOT_EEEXsr22__is_valid_bind_returnIS9_SN_SR_EE5valueEE4typeESQ_.cold.1, symObjAddr: 0x8968, symBinAddr: 0x48F5C, symSize: 0x2C }
  - { offsetInCU: 0x4AA85, offset: 0x217120, size: 0x8, addend: 0x0, symName: _OUTLINED_FUNCTION_0, symObjAddr: 0x8994, symBinAddr: 0x218BC, symSize: 0x10 }
  - { offsetInCU: 0x4AA9D, offset: 0x217138, size: 0x8, addend: 0x0, symName: _OUTLINED_FUNCTION_1, symObjAddr: 0x89A4, symBinAddr: 0x218CC, symSize: 0x8 }
  - { offsetInCU: 0x4AAB5, offset: 0x217150, size: 0x8, addend: 0x0, symName: _OUTLINED_FUNCTION_2, symObjAddr: 0x89AC, symBinAddr: 0x218D4, symSize: 0x10 }
  - { offsetInCU: 0x4AACD, offset: 0x217168, size: 0x8, addend: 0x0, symName: _OUTLINED_FUNCTION_3, symObjAddr: 0x89BC, symBinAddr: 0x218E4, symSize: 0x8 }
  - { offsetInCU: 0x4AAE5, offset: 0x217180, size: 0x8, addend: 0x0, symName: _OUTLINED_FUNCTION_4, symObjAddr: 0x89C4, symBinAddr: 0x218EC, symSize: 0x8 }
  - { offsetInCU: 0x4AAFD, offset: 0x217198, size: 0x8, addend: 0x0, symName: _OUTLINED_FUNCTION_5, symObjAddr: 0x89CC, symBinAddr: 0x218F4, symSize: 0xC }
  - { offsetInCU: 0x67FA, offset: 0x21DA8F, size: 0x8, addend: 0x0, symName: __ZNSt3__119__allocate_at_leastB7v160006INS_9allocatorIPNS_8functionIFvvEEEEEEENS_19__allocation_resultINS_16allocator_traitsIT_E7pointerEEERS9_m, symObjAddr: 0x1414, symBinAddr: 0x22B20, symSize: 0x34 }
  - { offsetInCU: 0x91BB, offset: 0x220450, size: 0x8, addend: 0x0, symName: __ZN4grpc17DynamicThreadPool13DynamicThreadC2EPS0_, symObjAddr: 0x0, symBinAddr: 0x21900, symSize: 0x78 }
  - { offsetInCU: 0x92A0, offset: 0x220535, size: 0x8, addend: 0x0, symName: __ZN4grpc17DynamicThreadPool13DynamicThreadC1EPS0_, symObjAddr: 0xC8, symBinAddr: 0x21978, symSize: 0x4 }
  - { offsetInCU: 0x9301, offset: 0x220596, size: 0x8, addend: 0x0, symName: __ZN4grpc17DynamicThreadPool13DynamicThreadC1EPS0_, symObjAddr: 0xC8, symBinAddr: 0x21978, symSize: 0x4 }
  - { offsetInCU: 0x932B, offset: 0x2205C0, size: 0x8, addend: 0x0, symName: __ZN4grpc17DynamicThreadPool13DynamicThreadC1EPS0_, symObjAddr: 0xC8, symBinAddr: 0x21978, symSize: 0x4 }
  - { offsetInCU: 0x936E, offset: 0x220603, size: 0x8, addend: 0x0, symName: __ZN4grpc17DynamicThreadPool13DynamicThreadD2Ev, symObjAddr: 0xCC, symBinAddr: 0x2197C, symSize: 0x38 }
  - { offsetInCU: 0x9427, offset: 0x2206BC, size: 0x8, addend: 0x0, symName: __ZN4grpc17DynamicThreadPool13DynamicThreadD1Ev, symObjAddr: 0x174, symBinAddr: 0x219B4, symSize: 0x4 }
  - { offsetInCU: 0x944A, offset: 0x2206DF, size: 0x8, addend: 0x0, symName: __ZN4grpc17DynamicThreadPool13DynamicThreadD1Ev, symObjAddr: 0x174, symBinAddr: 0x219B4, symSize: 0x4 }
  - { offsetInCU: 0x96A6, offset: 0x22093B, size: 0x8, addend: 0x0, symName: __ZN4grpc17DynamicThreadPool13DynamicThread10ThreadFuncEv, symObjAddr: 0x178, symBinAddr: 0x219B8, symSize: 0xB8 }
  - { offsetInCU: 0x99B5, offset: 0x220C4A, size: 0x8, addend: 0x0, symName: __ZN4grpc17DynamicThreadPool10ThreadFuncEv, symObjAddr: 0x230, symBinAddr: 0x21A70, symSize: 0x1C8 }
  - { offsetInCU: 0xA1B0, offset: 0x221445, size: 0x8, addend: 0x0, symName: __ZNSt3__15dequeINS_8functionIFvvEEENS_9allocatorIS3_EEE9pop_frontEv, symObjAddr: 0xAAC, symBinAddr: 0x22204, symSize: 0x80 }
  - { offsetInCU: 0xA305, offset: 0x22159A, size: 0x8, addend: 0x0, symName: __ZN9grpc_core19ReleasableMutexLock7ReleaseEv, symObjAddr: 0x3F8, symBinAddr: 0x21C38, symSize: 0x28 }
  - { offsetInCU: 0xA357, offset: 0x2215EC, size: 0x8, addend: 0x0, symName: __ZN4grpc17DynamicThreadPoolC2Ei, symObjAddr: 0x420, symBinAddr: 0x21C60, symSize: 0x158 }
  - { offsetInCU: 0xA363, offset: 0x2215F8, size: 0x8, addend: 0x0, symName: __ZN9grpc_core19ReleasableMutexLockD2Ev, symObjAddr: 0x7F0, symBinAddr: 0x21FD4, symSize: 0x34 }
  - { offsetInCU: 0xA3D2, offset: 0x221667, size: 0x8, addend: 0x0, symName: __ZN9grpc_core19ReleasableMutexLock7ReleaseEv.cold.1, symObjAddr: 0x14E4, symBinAddr: 0x48F88, symSize: 0x34 }
  - { offsetInCU: 0xA742, offset: 0x2219D7, size: 0x8, addend: 0x0, symName: __ZN4grpc17DynamicThreadPoolC2Ei, symObjAddr: 0x420, symBinAddr: 0x21C60, symSize: 0x158 }
  - { offsetInCU: 0xAD09, offset: 0x221F9E, size: 0x8, addend: 0x0, symName: __ZNSt3__110__list_impIPN4grpc17DynamicThreadPool13DynamicThreadENS_9allocatorIS4_EEE5clearEv, symObjAddr: 0x824, symBinAddr: 0x22008, symSize: 0x60 }
  - { offsetInCU: 0xAEB7, offset: 0x22214C, size: 0x8, addend: 0x0, symName: __ZNSt3__15dequeINS_8functionIFvvEEENS_9allocatorIS3_EEED2B7v160006Ev, symObjAddr: 0x884, symBinAddr: 0x22068, symSize: 0x150 }
  - { offsetInCU: 0xB346, offset: 0x2225DB, size: 0x8, addend: 0x0, symName: __ZN4grpc17DynamicThreadPoolC1Ei, symObjAddr: 0x578, symBinAddr: 0x21DB8, symSize: 0x4 }
  - { offsetInCU: 0xB382, offset: 0x222617, size: 0x8, addend: 0x0, symName: __ZN4grpc17DynamicThreadPoolC1Ei, symObjAddr: 0x578, symBinAddr: 0x21DB8, symSize: 0x4 }
  - { offsetInCU: 0xB4C0, offset: 0x222755, size: 0x8, addend: 0x0, symName: __ZN4grpc17DynamicThreadPool11ReapThreadsEPNSt3__14listIPNS0_13DynamicThreadENS1_9allocatorIS4_EEEE, symObjAddr: 0x57C, symBinAddr: 0x21DBC, symSize: 0x70 }
  - { offsetInCU: 0xB6BD, offset: 0x222952, size: 0x8, addend: 0x0, symName: __ZN4grpc17DynamicThreadPoolD2Ev, symObjAddr: 0x5EC, symBinAddr: 0x21E2C, symSize: 0xD4 }
  - { offsetInCU: 0xBA2C, offset: 0x222CC1, size: 0x8, addend: 0x0, symName: __ZN4grpc17DynamicThreadPoolD1Ev, symObjAddr: 0x6C0, symBinAddr: 0x21F00, symSize: 0x4 }
  - { offsetInCU: 0xBA4F, offset: 0x222CE4, size: 0x8, addend: 0x0, symName: __ZN4grpc17DynamicThreadPoolD1Ev, symObjAddr: 0x6C0, symBinAddr: 0x21F00, symSize: 0x4 }
  - { offsetInCU: 0xBA7F, offset: 0x222D14, size: 0x8, addend: 0x0, symName: __ZN4grpc17DynamicThreadPoolD0Ev, symObjAddr: 0x6C4, symBinAddr: 0x21F04, symSize: 0x14 }
  - { offsetInCU: 0xBB36, offset: 0x222DCB, size: 0x8, addend: 0x0, symName: __ZN4grpc17DynamicThreadPool3AddERKNSt3__18functionIFvvEEE, symObjAddr: 0x6D8, symBinAddr: 0x21F18, symSize: 0xB8 }
  - { offsetInCU: 0xBD99, offset: 0x22302E, size: 0x8, addend: 0x0, symName: __ZNSt3__15dequeINS_8functionIFvvEEENS_9allocatorIS3_EEE9push_backERKS3_, symObjAddr: 0xBDC, symBinAddr: 0x222E8, symSize: 0x94 }
  - { offsetInCU: 0xBFA6, offset: 0x22323B, size: 0x8, addend: 0x0, symName: '__ZZN4grpc17DynamicThreadPool13DynamicThreadC1EPS0_EN3$_08__invokeEPv', symObjAddr: 0x790, symBinAddr: 0x21FD0, symSize: 0x4 }
  - { offsetInCU: 0xBFCF, offset: 0x223264, size: 0x8, addend: 0x0, symName: '__ZZN4grpc17DynamicThreadPool13DynamicThreadC1EPS0_EN3$_08__invokeEPv', symObjAddr: 0x790, symBinAddr: 0x21FD0, symSize: 0x4 }
  - { offsetInCU: 0xBFEC, offset: 0x223281, size: 0x8, addend: 0x0, symName: '__ZZN4grpc17DynamicThreadPool13DynamicThreadC1EPS0_EN3$_08__invokeEPv', symObjAddr: 0x790, symBinAddr: 0x21FD0, symSize: 0x4 }
  - { offsetInCU: 0xC24A, offset: 0x2234DF, size: 0x8, addend: 0x0, symName: __ZNSt3__114__split_bufferIPNS_8functionIFvvEEENS_9allocatorIS4_EEED2Ev, symObjAddr: 0x9D4, symBinAddr: 0x221B8, symSize: 0x4C }
  - { offsetInCU: 0xC46B, offset: 0x223700, size: 0x8, addend: 0x0, symName: __ZNSt3__15dequeINS_8functionIFvvEEENS_9allocatorIS3_EEE26__maybe_remove_front_spareB7v160006Eb, symObjAddr: 0xB2C, symBinAddr: 0x22284, symSize: 0x64 }
  - { offsetInCU: 0xC76C, offset: 0x223A01, size: 0x8, addend: 0x0, symName: __ZNSt3__15dequeINS_8functionIFvvEEENS_9allocatorIS3_EEE19__add_back_capacityEv, symObjAddr: 0xC70, symBinAddr: 0x2237C, symSize: 0x368 }
  - { offsetInCU: 0xDECA, offset: 0x22515F, size: 0x8, addend: 0x0, symName: __ZNSt3__114__split_bufferIPNS_8functionIFvvEEENS_9allocatorIS4_EEE9push_backEOS4_, symObjAddr: 0xFD8, symBinAddr: 0x226E4, symSize: 0x104 }
  - { offsetInCU: 0xE31B, offset: 0x2255B0, size: 0x8, addend: 0x0, symName: __ZNSt3__114__split_bufferIPNS_8functionIFvvEEERNS_9allocatorIS4_EEE9push_backEOS4_, symObjAddr: 0x11F8, symBinAddr: 0x22904, symSize: 0x104 }
  - { offsetInCU: 0xE7B4, offset: 0x225A49, size: 0x8, addend: 0x0, symName: __ZNSt3__114__split_bufferIPNS_8functionIFvvEEERNS_9allocatorIS4_EEE10push_frontERKS4_, symObjAddr: 0x12FC, symBinAddr: 0x22A08, symSize: 0x118 }
  - { offsetInCU: 0xEC6E, offset: 0x225F03, size: 0x8, addend: 0x0, symName: __ZNSt3__114__split_bufferIPNS_8functionIFvvEEENS_9allocatorIS4_EEE10push_frontEOS4_, symObjAddr: 0x10DC, symBinAddr: 0x227E8, symSize: 0x11C }
  - { offsetInCU: 0xF1A6, offset: 0x22643B, size: 0x8, addend: 0x0, symName: _OUTLINED_FUNCTION_0, symObjAddr: 0x1518, symBinAddr: 0x22B54, symSize: 0x8 }
  - { offsetInCU: 0x4B, offset: 0x22649D, size: 0x8, addend: 0x0, symName: __ZN11grpc_binder21GetEndpointBinderPoolEv, symObjAddr: 0x5D8, symBinAddr: 0x23134, symSize: 0xC4 }
  - { offsetInCU: 0x75, offset: 0x2264C7, size: 0x8, addend: 0x0, symName: __ZZN11grpc_binder21GetEndpointBinderPoolEvE1p, symObjAddr: 0xA78C8, symBinAddr: 0x68C60, symSize: 0x0 }
  - { offsetInCU: 0x272A, offset: 0x228B7C, size: 0x8, addend: 0x0, symName: __ZN4absl12lts_2021110218container_internal10DeallocateILm8ENSt3__19allocatorINS3_4pairIKNS3_12basic_stringIcNS3_11char_traitsIcEENS4_IcEEEENS3_10unique_ptrIN11grpc_binder6BinderENS3_14default_deleteISE_EEEEEEEEEEvPT0_Pvm, symObjAddr: 0x6A8, symBinAddr: 0x231F8, symSize: 0x18 }
  - { offsetInCU: 0x2828, offset: 0x228C7A, size: 0x8, addend: 0x0, symName: __ZN4absl12lts_2021110216allocator_traitsINSt3__19allocatorINS2_4pairIKNS2_12basic_stringIcNS2_11char_traitsIcEENS3_IcEEEENS2_10unique_ptrIN11grpc_binder6BinderENS2_14default_deleteISD_EEEEEEEEE12destroy_implINS4_IS9_SG_EEEEvcRSI_PT_, symObjAddr: 0x6C0, symBinAddr: 0x23210, symSize: 0x4C }
  - { offsetInCU: 0x2851, offset: 0x228CA3, size: 0x8, addend: 0x0, symName: __ZN4absl12lts_2021110218container_internal10DeallocateILm8ENSt3__19allocatorINS3_4pairIKNS3_12basic_stringIcNS3_11char_traitsIcEENS4_IcEEEENS3_8functionIFvNS3_10unique_ptrIN11grpc_binder6BinderENS3_14default_deleteISF_EEEEEEEEEEEEEvPT0_Pvm, symObjAddr: 0x2638, symBinAddr: 0x2508C, symSize: 0x18 }
  - { offsetInCU: 0x294F, offset: 0x228DA1, size: 0x8, addend: 0x0, symName: __ZN4absl12lts_2021110218container_internal8AllocateILm8ENSt3__19allocatorINS3_4pairIKNS3_12basic_stringIcNS3_11char_traitsIcEENS4_IcEEEENS3_8functionIFvNS3_10unique_ptrIN11grpc_binder6BinderENS3_14default_deleteISF_EEEEEEEEEEEEEPvPT0_m, symObjAddr: 0x2650, symBinAddr: 0x250A4, symSize: 0x30 }
  - { offsetInCU: 0x29F1, offset: 0x228E43, size: 0x8, addend: 0x0, symName: __ZN4absl12lts_2021110218container_internaleqERKNS1_12raw_hash_setINS1_17FlatHashMapPolicyINSt3__112basic_stringIcNS4_11char_traitsIcEENS4_9allocatorIcEEEENS4_10unique_ptrIN11grpc_binder6BinderENS4_14default_deleteISD_EEEEEENS1_10StringHashENS1_8StringEqENS8_INS4_4pairIKSA_SG_EEEEE8iteratorESR_, symObjAddr: 0x78C, symBinAddr: 0x232DC, symSize: 0x40 }
  - { offsetInCU: 0x2AA2, offset: 0x228EF4, size: 0x8, addend: 0x0, symName: __ZN4absl12lts_2021110218container_internal12raw_hash_setINS1_17FlatHashMapPolicyINSt3__112basic_stringIcNS4_11char_traitsIcEENS4_9allocatorIcEEEENS4_10unique_ptrIN11grpc_binder6BinderENS4_14default_deleteISD_EEEEEENS1_10StringHashENS1_8StringEqENS8_INS4_4pairIKSA_SG_EEEEE4findISA_EENSO_8iteratorERKT_m, symObjAddr: 0x7CC, symBinAddr: 0x2331C, symSize: 0x158 }
  - { offsetInCU: 0x2AAD, offset: 0x228EFF, size: 0x8, addend: 0x0, symName: __ZN4absl12lts_2021110218container_internaleqERKNS1_12raw_hash_setINS1_17FlatHashMapPolicyINSt3__112basic_stringIcNS4_11char_traitsIcEENS4_9allocatorIcEEEENS4_8functionIFvNS4_10unique_ptrIN11grpc_binder6BinderENS4_14default_deleteISE_EEEEEEEEENS1_10StringHashENS1_8StringEqENS8_INS4_4pairIKSA_SJ_EEEEE8iteratorESU_, symObjAddr: 0x1890, symBinAddr: 0x242E4, symSize: 0x40 }
  - { offsetInCU: 0x2B5E, offset: 0x228FB0, size: 0x8, addend: 0x0, symName: __ZN4absl12lts_2021110218container_internal12raw_hash_setINS1_17FlatHashMapPolicyINSt3__112basic_stringIcNS4_11char_traitsIcEENS4_9allocatorIcEEEENS4_8functionIFvNS4_10unique_ptrIN11grpc_binder6BinderENS4_14default_deleteISE_EEEEEEEEENS1_10StringHashENS1_8StringEqENS8_INS4_4pairIKSA_SJ_EEEEE4findISA_EENSR_8iteratorERKT_m, symObjAddr: 0x18D0, symBinAddr: 0x24324, symSize: 0x164 }
  - { offsetInCU: 0x31CF, offset: 0x229621, size: 0x8, addend: 0x0, symName: __ZN4absl12lts_2021110218container_internal8AllocateILm8ENSt3__19allocatorINS3_4pairIKNS3_12basic_stringIcNS3_11char_traitsIcEENS4_IcEEEENS3_10unique_ptrIN11grpc_binder6BinderENS3_14default_deleteISE_EEEEEEEEEEPvPT0_m, symObjAddr: 0x15FC, symBinAddr: 0x24050, symSize: 0x30 }
  - { offsetInCU: 0x32A8, offset: 0x2296FA, size: 0x8, addend: 0x0, symName: __ZN4absl12lts_2021110218container_internal12raw_hash_setINS1_17FlatHashMapPolicyINSt3__112basic_stringIcNS4_11char_traitsIcEENS4_9allocatorIcEEEENS4_10unique_ptrIN11grpc_binder6BinderENS4_14default_deleteISD_EEEEEENS1_10StringHashENS1_8StringEqENS8_INS4_4pairIKSA_SG_EEEEE17reset_growth_leftEv, symObjAddr: 0x162C, symBinAddr: 0x24080, symSize: 0x48 }
  - { offsetInCU: 0x33DB, offset: 0x22982D, size: 0x8, addend: 0x0, symName: __ZN4absl12lts_2021110218container_internal8AllocateILm8ENSt3__19allocatorINS3_4pairIKNS3_12basic_stringIcNS3_11char_traitsIcEENS4_IcEEEENS3_8functionIFvNS3_10unique_ptrIN11grpc_binder6BinderENS3_14default_deleteISF_EEEEEEEEEEEEEPvPT0_m, symObjAddr: 0x2650, symBinAddr: 0x250A4, symSize: 0x30 }
  - { offsetInCU: 0x34B4, offset: 0x229906, size: 0x8, addend: 0x0, symName: __ZN4absl12lts_2021110218container_internal12raw_hash_setINS1_17FlatHashMapPolicyINSt3__112basic_stringIcNS4_11char_traitsIcEENS4_9allocatorIcEEEENS4_8functionIFvNS4_10unique_ptrIN11grpc_binder6BinderENS4_14default_deleteISE_EEEEEEEEENS1_10StringHashENS1_8StringEqENS8_INS4_4pairIKSA_SJ_EEEEE17reset_growth_leftEv, symObjAddr: 0x2680, symBinAddr: 0x250D4, symSize: 0x48 }
  - { offsetInCU: 0x5DAF, offset: 0x22C201, size: 0x8, addend: 0x0, symName: __ZNSt3__1L19piecewise_constructE, symObjAddr: 0x3963, symBinAddr: 0x4F700, symSize: 0x0 }
  - { offsetInCU: 0x98C0, offset: 0x22FD12, size: 0x8, addend: 0x0, symName: __ZN11grpc_binder18EndpointBinderPool17GetEndpointBinderENSt3__112basic_stringIcNS1_11char_traitsIcEENS1_9allocatorIcEEEENS1_8functionIFvNS1_10unique_ptrINS_6BinderENS1_14default_deleteISA_EEEEEEE, symObjAddr: 0x0, symBinAddr: 0x22B5C, symSize: 0x21C }
  - { offsetInCU: 0x9FCE, offset: 0x230420, size: 0x8, addend: 0x0, symName: __ZNK4absl12lts_2021110218container_internal12raw_hash_setINS1_17FlatHashMapPolicyINSt3__112basic_stringIcNS4_11char_traitsIcEENS4_9allocatorIcEEEENS4_10unique_ptrIN11grpc_binder6BinderENS4_14default_deleteISD_EEEEEENS1_10StringHashENS1_8StringEqENS8_INS4_4pairIKSA_SG_EEEEE4findISA_EENSO_14const_iteratorERKT_, symObjAddr: 0x70C, symBinAddr: 0x2325C, symSize: 0x80 }
  - { offsetInCU: 0xA347, offset: 0x230799, size: 0x8, addend: 0x0, symName: __ZNK4absl12lts_2021110218container_internal12raw_hash_setINS1_17FlatHashMapPolicyINSt3__112basic_stringIcNS4_11char_traitsIcEENS4_9allocatorIcEEEENS4_8functionIFvNS4_10unique_ptrIN11grpc_binder6BinderENS4_14default_deleteISE_EEEEEEEEENS1_10StringHashENS1_8StringEqENS8_INS4_4pairIKSA_SJ_EEEEE4findISA_EENSR_14const_iteratorERKT_, symObjAddr: 0x1810, symBinAddr: 0x24264, symSize: 0x80 }
  - { offsetInCU: 0xA6CB, offset: 0x230B1D, size: 0x8, addend: 0x0, symName: __ZN4absl12lts_2021110218container_internal12raw_hash_mapINS1_17FlatHashMapPolicyINSt3__112basic_stringIcNS4_11char_traitsIcEENS4_9allocatorIcEEEENS4_8functionIFvNS4_10unique_ptrIN11grpc_binder6BinderENS4_14default_deleteISE_EEEEEEEEENS1_10StringHashENS1_8StringEqENS8_INS4_4pairIKSA_SJ_EEEEEixISA_SK_EEDTclsrT0_5valueclL_ZNS4_9addressofB7v160006ISP_EEPT_RSV_EclL_ZNS4_7declvalIRSP_EEDTclsr3stdE9__declvalISV_ELi0EEEvEEEEERKSV_, symObjAddr: 0x2B0, symBinAddr: 0x22E0C, symSize: 0x3C }
  - { offsetInCU: 0xA7AF, offset: 0x230C01, size: 0x8, addend: 0x0, symName: __ZN11grpc_binder18EndpointBinderPool17AddEndpointBinderENSt3__112basic_stringIcNS1_11char_traitsIcEENS1_9allocatorIcEEEENS1_10unique_ptrINS_6BinderENS1_14default_deleteIS9_EEEE, symObjAddr: 0x2EC, symBinAddr: 0x22E48, symSize: 0x294 }
  - { offsetInCU: 0xA7CD, offset: 0x230C1F, size: 0x8, addend: 0x0, symName: __ZNSt3__110__function12__value_funcIFvNS_10unique_ptrIN11grpc_binder6BinderENS_14default_deleteIS4_EEEEEEaSB7v160006EOS9_, symObjAddr: 0x2790, symBinAddr: 0x251E4, symSize: 0x90 }
  - { offsetInCU: 0xA85E, offset: 0x230CB0, size: 0x8, addend: 0x0, symName: __ZN4absl12lts_2021110218container_internal12raw_hash_mapINS1_17FlatHashMapPolicyINSt3__112basic_stringIcNS4_11char_traitsIcEENS4_9allocatorIcEEEENS4_10unique_ptrIN11grpc_binder6BinderENS4_14default_deleteISD_EEEEEENS1_10StringHashENS1_8StringEqENS8_INS4_4pairIKSA_SG_EEEEEixISA_SH_EEDTclsrT0_5valueclL_ZNS4_9addressofB7v160006ISM_EEPT_RSS_EclL_ZNS4_7declvalIRSM_EEDTclsr3stdE9__declvalISS_ELi0EEEvEEEEERKSS_, symObjAddr: 0x21C, symBinAddr: 0x22D78, symSize: 0x3C }
  - { offsetInCU: 0xA942, offset: 0x230D94, size: 0x8, addend: 0x0, symName: __ZN4absl12lts_2021110218container_internal12raw_hash_setINS1_17FlatHashMapPolicyINSt3__112basic_stringIcNS4_11char_traitsIcEENS4_9allocatorIcEEEENS4_10unique_ptrIN11grpc_binder6BinderENS4_14default_deleteISD_EEEEEENS1_10StringHashENS1_8StringEqENS8_INS4_4pairIKSA_SG_EEEEE5eraseISA_EEmRKT_, symObjAddr: 0x258, symBinAddr: 0x22DB4, symSize: 0x58 }
  - { offsetInCU: 0xA960, offset: 0x230DB2, size: 0x8, addend: 0x0, symName: __ZN4absl12lts_2021110218container_internal12raw_hash_setINS1_17FlatHashMapPolicyINSt3__112basic_stringIcNS4_11char_traitsIcEENS4_9allocatorIcEEEENS4_10unique_ptrIN11grpc_binder6BinderENS4_14default_deleteISD_EEEEEENS1_10StringHashENS1_8StringEqENS8_INS4_4pairIKSA_SG_EEEEE5eraseISA_EEmRKT_, symObjAddr: 0x258, symBinAddr: 0x22DB4, symSize: 0x58 }
  - { offsetInCU: 0xAA0F, offset: 0x230E61, size: 0x8, addend: 0x0, symName: __ZN11grpc_binder18EndpointBinderPool17GetEndpointBinderENSt3__112basic_stringIcNS1_11char_traitsIcEENS1_9allocatorIcEEEENS1_8functionIFvNS1_10unique_ptrINS_6BinderENS1_14default_deleteISA_EEEEEEE.cold.1, symObjAddr: 0x2A08, symBinAddr: 0x48FBC, symSize: 0x38 }
  - { offsetInCU: 0xAABD, offset: 0x230F0F, size: 0x8, addend: 0x0, symName: __ZN4absl12lts_2021110218container_internal12raw_hash_mapINS1_17FlatHashMapPolicyINSt3__112basic_stringIcNS4_11char_traitsIcEENS4_9allocatorIcEEEENS4_10unique_ptrIN11grpc_binder6BinderENS4_14default_deleteISD_EEEEEENS1_10StringHashENS1_8StringEqENS8_INS4_4pairIKSA_SG_EEEEE16try_emplace_implIRSL_JEEENSK_INS1_12raw_hash_setISH_SI_SJ_SN_E8iteratorEbEEOT_DpOT0_, symObjAddr: 0xA90, symBinAddr: 0x234E4, symSize: 0x90 }
  - { offsetInCU: 0xABE7, offset: 0x231039, size: 0x8, addend: 0x0, symName: __ZN4absl12lts_2021110218container_internal12raw_hash_setINS1_17FlatHashMapPolicyINSt3__112basic_stringIcNS4_11char_traitsIcEENS4_9allocatorIcEEEENS4_10unique_ptrIN11grpc_binder6BinderENS4_14default_deleteISD_EEEEEENS1_10StringHashENS1_8StringEqENS8_INS4_4pairIKSA_SG_EEEEE22find_or_prepare_insertISA_EENSK_ImbEERKT_, symObjAddr: 0xB20, symBinAddr: 0x23574, symSize: 0x1A8 }
  - { offsetInCU: 0xAC02, offset: 0x231054, size: 0x8, addend: 0x0, symName: __ZN4absl12lts_2021110218container_internal12raw_hash_mapINS1_17FlatHashMapPolicyINSt3__112basic_stringIcNS4_11char_traitsIcEENS4_9allocatorIcEEEENS4_10unique_ptrIN11grpc_binder6BinderENS4_14default_deleteISD_EEEEEENS1_10StringHashENS1_8StringEqENS8_INS4_4pairIKSA_SG_EEEEEixISA_SH_EEDTclsrT0_5valueclL_ZNS4_9addressofB7v160006ISM_EEPT_RSS_EclL_ZNS4_7declvalIRSM_EEDTclsr3stdE9__declvalISS_ELi0EEEvEEEEERKSS_.cold.1, symObjAddr: 0x2A40, symBinAddr: 0x48FF4, symSize: 0x24 }
  - { offsetInCU: 0xAC5D, offset: 0x2310AF, size: 0x8, addend: 0x0, symName: __ZN4absl12lts_2021110218container_internal12raw_hash_setINS1_17FlatHashMapPolicyINSt3__112basic_stringIcNS4_11char_traitsIcEENS4_9allocatorIcEEEENS4_10unique_ptrIN11grpc_binder6BinderENS4_14default_deleteISD_EEEEEENS1_10StringHashENS1_8StringEqENS8_INS4_4pairIKSA_SG_EEEEE4findISA_EENSO_8iteratorERKT_, symObjAddr: 0x1674, symBinAddr: 0x240C8, symSize: 0x80 }
  - { offsetInCU: 0xAFA4, offset: 0x2313F6, size: 0x8, addend: 0x0, symName: __ZN4absl12lts_2021110218container_internal12raw_hash_setINS1_17FlatHashMapPolicyINSt3__112basic_stringIcNS4_11char_traitsIcEENS4_9allocatorIcEEEENS4_10unique_ptrIN11grpc_binder6BinderENS4_14default_deleteISD_EEEEEENS1_10StringHashENS1_8StringEqENS8_INS4_4pairIKSA_SG_EEEEE5eraseENSO_8iteratorE, symObjAddr: 0x16F4, symBinAddr: 0x24148, symSize: 0x54 }
  - { offsetInCU: 0xB0D9, offset: 0x23152B, size: 0x8, addend: 0x0, symName: __ZN4absl12lts_2021110218container_internal12raw_hash_setINS1_17FlatHashMapPolicyINSt3__112basic_stringIcNS4_11char_traitsIcEENS4_9allocatorIcEEEENS4_10unique_ptrIN11grpc_binder6BinderENS4_14default_deleteISD_EEEEEENS1_10StringHashENS1_8StringEqENS8_INS4_4pairIKSA_SG_EEEEE15erase_meta_onlyENSO_14const_iteratorE, symObjAddr: 0x1748, symBinAddr: 0x2419C, symSize: 0xC8 }
  - { offsetInCU: 0xB152, offset: 0x2315A4, size: 0x8, addend: 0x0, symName: __ZN4absl12lts_2021110218container_internal12raw_hash_mapINS1_17FlatHashMapPolicyINSt3__112basic_stringIcNS4_11char_traitsIcEENS4_9allocatorIcEEEENS4_8functionIFvNS4_10unique_ptrIN11grpc_binder6BinderENS4_14default_deleteISE_EEEEEEEEENS1_10StringHashENS1_8StringEqENS8_INS4_4pairIKSA_SJ_EEEEE16try_emplace_implIRSO_JEEENSN_INS1_12raw_hash_setISK_SL_SM_SQ_E8iteratorEbEEOT_DpOT0_, symObjAddr: 0x1AA4, symBinAddr: 0x244F8, symSize: 0x94 }
  - { offsetInCU: 0xB27C, offset: 0x2316CE, size: 0x8, addend: 0x0, symName: __ZN4absl12lts_2021110218container_internal12raw_hash_setINS1_17FlatHashMapPolicyINSt3__112basic_stringIcNS4_11char_traitsIcEENS4_9allocatorIcEEEENS4_8functionIFvNS4_10unique_ptrIN11grpc_binder6BinderENS4_14default_deleteISE_EEEEEEEEENS1_10StringHashENS1_8StringEqENS8_INS4_4pairIKSA_SJ_EEEEE22find_or_prepare_insertISA_EENSN_ImbEERKT_, symObjAddr: 0x1B38, symBinAddr: 0x2458C, symSize: 0x1B0 }
  - { offsetInCU: 0xB297, offset: 0x2316E9, size: 0x8, addend: 0x0, symName: __ZN4absl12lts_2021110218container_internal12raw_hash_mapINS1_17FlatHashMapPolicyINSt3__112basic_stringIcNS4_11char_traitsIcEENS4_9allocatorIcEEEENS4_8functionIFvNS4_10unique_ptrIN11grpc_binder6BinderENS4_14default_deleteISE_EEEEEEEEENS1_10StringHashENS1_8StringEqENS8_INS4_4pairIKSA_SJ_EEEEEixISA_SK_EEDTclsrT0_5valueclL_ZNS4_9addressofB7v160006ISP_EEPT_RSV_EclL_ZNS4_7declvalIRSP_EEDTclsr3stdE9__declvalISV_ELi0EEEvEEEEERKSV_.cold.1, symObjAddr: 0x2A64, symBinAddr: 0x49018, symSize: 0x24 }
  - { offsetInCU: 0xB46A, offset: 0x2318BC, size: 0x8, addend: 0x0, symName: __ZN11grpc_binder18EndpointBinderPool17AddEndpointBinderENSt3__112basic_stringIcNS1_11char_traitsIcEENS1_9allocatorIcEEEENS1_10unique_ptrINS_6BinderENS1_14default_deleteIS9_EEEE, symObjAddr: 0x2EC, symBinAddr: 0x22E48, symSize: 0x294 }
  - { offsetInCU: 0xBED4, offset: 0x232326, size: 0x8, addend: 0x0, symName: __ZN4absl12lts_2021110218container_internal12raw_hash_setINS1_17FlatHashMapPolicyINSt3__112basic_stringIcNS4_11char_traitsIcEENS4_9allocatorIcEEEENS4_8functionIFvNS4_10unique_ptrIN11grpc_binder6BinderENS4_14default_deleteISE_EEEEEEEEENS1_10StringHashENS1_8StringEqENS8_INS4_4pairIKSA_SJ_EEEEE5eraseISA_EEmRKT_, symObjAddr: 0x580, symBinAddr: 0x230DC, symSize: 0x58 }
  - { offsetInCU: 0xBF76, offset: 0x2323C8, size: 0x8, addend: 0x0, symName: __ZN11grpc_binder18EndpointBinderPool17AddEndpointBinderENSt3__112basic_stringIcNS1_11char_traitsIcEENS1_9allocatorIcEEEENS1_10unique_ptrINS_6BinderENS1_14default_deleteIS9_EEEE.cold.1, symObjAddr: 0x2A88, symBinAddr: 0x4903C, symSize: 0x38 }
  - { offsetInCU: 0xBF8E, offset: 0x2323E0, size: 0x8, addend: 0x0, symName: __ZN4absl12lts_2021110218container_internal12raw_hash_setINS1_17FlatHashMapPolicyINSt3__112basic_stringIcNS4_11char_traitsIcEENS4_9allocatorIcEEEENS4_8functionIFvNS4_10unique_ptrIN11grpc_binder6BinderENS4_14default_deleteISE_EEEEEEEEENS1_10StringHashENS1_8StringEqENS8_INS4_4pairIKSA_SJ_EEEEE4findISA_EENSR_8iteratorERKT_, symObjAddr: 0x286C, symBinAddr: 0x25274, symSize: 0x80 }
  - { offsetInCU: 0xC2D5, offset: 0x232727, size: 0x8, addend: 0x0, symName: __ZN4absl12lts_2021110218container_internal12raw_hash_setINS1_17FlatHashMapPolicyINSt3__112basic_stringIcNS4_11char_traitsIcEENS4_9allocatorIcEEEENS4_8functionIFvNS4_10unique_ptrIN11grpc_binder6BinderENS4_14default_deleteISE_EEEEEEEEENS1_10StringHashENS1_8StringEqENS8_INS4_4pairIKSA_SJ_EEEEE5eraseENSR_8iteratorE, symObjAddr: 0x28EC, symBinAddr: 0x252F4, symSize: 0x54 }
  - { offsetInCU: 0xC40A, offset: 0x23285C, size: 0x8, addend: 0x0, symName: __ZN4absl12lts_2021110218container_internal12raw_hash_setINS1_17FlatHashMapPolicyINSt3__112basic_stringIcNS4_11char_traitsIcEENS4_9allocatorIcEEEENS4_8functionIFvNS4_10unique_ptrIN11grpc_binder6BinderENS4_14default_deleteISE_EEEEEEEEENS1_10StringHashENS1_8StringEqENS8_INS4_4pairIKSA_SJ_EEEEE15erase_meta_onlyENSR_14const_iteratorE, symObjAddr: 0x2940, symBinAddr: 0x25348, symSize: 0xC8 }
  - { offsetInCU: 0xC5D1, offset: 0x232A23, size: 0x8, addend: 0x0, symName: __ZN4absl12lts_2021110218container_internal10DeallocateILm8ENSt3__19allocatorINS3_4pairIKNS3_12basic_stringIcNS3_11char_traitsIcEENS4_IcEEEENS3_10unique_ptrIN11grpc_binder6BinderENS3_14default_deleteISE_EEEEEEEEEEvPT0_Pvm.cold.1, symObjAddr: 0x2AC0, symBinAddr: 0x49074, symSize: 0x28 }
  - { offsetInCU: 0xC6D6, offset: 0x232B28, size: 0x8, addend: 0x0, symName: __ZN4absl12lts_2021110216allocator_traitsINSt3__19allocatorINS2_4pairIKNS2_12basic_stringIcNS2_11char_traitsIcEENS3_IcEEEENS2_10unique_ptrIN11grpc_binder6BinderENS2_14default_deleteISD_EEEEEEEEE12destroy_implINS4_IS9_SG_EEEEvcRSI_PT_, symObjAddr: 0x6C0, symBinAddr: 0x23210, symSize: 0x4C }
  - { offsetInCU: 0xCD24, offset: 0x233176, size: 0x8, addend: 0x0, symName: __ZN4absl12lts_2021110218container_internal12raw_hash_setINS1_17FlatHashMapPolicyINSt3__112basic_stringIcNS4_11char_traitsIcEENS4_9allocatorIcEEEENS4_10unique_ptrIN11grpc_binder6BinderENS4_14default_deleteISD_EEEEEENS1_10StringHashENS1_8StringEqENS8_INS4_4pairIKSA_SG_EEEEE4findISA_EENSO_8iteratorERKT_m, symObjAddr: 0x7CC, symBinAddr: 0x2331C, symSize: 0x158 }
  - { offsetInCU: 0xD157, offset: 0x2335A9, size: 0x8, addend: 0x0, symName: __ZNK4absl12lts_2021110218container_internal12raw_hash_setINS1_17FlatHashMapPolicyINSt3__112basic_stringIcNS4_11char_traitsIcEENS4_9allocatorIcEEEENS4_10unique_ptrIN11grpc_binder6BinderENS4_14default_deleteISD_EEEEEENS1_10StringHashENS1_8StringEqENS8_INS4_4pairIKSA_SG_EEEEE12EqualElementISA_EclISA_JRKNS4_21piecewise_construct_tENS4_5tupleIJRSL_EEENSV_IJRKSG_EEEEEEbRKT_DpOT0_, symObjAddr: 0x924, symBinAddr: 0x23474, symSize: 0x70 }
  - { offsetInCU: 0xD195, offset: 0x2335E7, size: 0x8, addend: 0x0, symName: __ZN4absl12lts_2021110218container_internaleqERKNS1_12raw_hash_setINS1_17FlatHashMapPolicyINSt3__112basic_stringIcNS4_11char_traitsIcEENS4_9allocatorIcEEEENS4_10unique_ptrIN11grpc_binder6BinderENS4_14default_deleteISD_EEEEEENS1_10StringHashENS1_8StringEqENS8_INS4_4pairIKSA_SG_EEEEE8iteratorESR_.cold.2, symObjAddr: 0x2B0C, symBinAddr: 0x490C0, symSize: 0x24 }
  - { offsetInCU: 0xD1DB, offset: 0x23362D, size: 0x8, addend: 0x0, symName: __ZN4absl12lts_2021110218container_internaleqERKNS1_12raw_hash_setINS1_17FlatHashMapPolicyINSt3__112basic_stringIcNS4_11char_traitsIcEENS4_9allocatorIcEEEENS4_10unique_ptrIN11grpc_binder6BinderENS4_14default_deleteISD_EEEEEENS1_10StringHashENS1_8StringEqENS8_INS4_4pairIKSA_SG_EEEEE8iteratorESR_.cold.1, symObjAddr: 0x2AE8, symBinAddr: 0x4909C, symSize: 0x24 }
  - { offsetInCU: 0xD512, offset: 0x233964, size: 0x8, addend: 0x0, symName: __ZNK4absl12lts_2021110218container_internal12raw_hash_setINS1_17FlatHashMapPolicyINSt3__112basic_stringIcNS4_11char_traitsIcEENS4_9allocatorIcEEEENS4_10unique_ptrIN11grpc_binder6BinderENS4_14default_deleteISD_EEEEEENS1_10StringHashENS1_8StringEqENS8_INS4_4pairIKSA_SG_EEEEE12EqualElementISA_EclISA_JRKNS4_21piecewise_construct_tENS4_5tupleIJRSL_EEENSV_IJRKSG_EEEEEEbRKT_DpOT0_, symObjAddr: 0x924, symBinAddr: 0x23474, symSize: 0x70 }
  - { offsetInCU: 0xD6BA, offset: 0x233B0C, size: 0x8, addend: 0x0, symName: __ZN4absl12lts_2021110218container_internal12raw_hash_setINS1_17FlatHashMapPolicyINSt3__112basic_stringIcNS4_11char_traitsIcEENS4_9allocatorIcEEEENS4_10unique_ptrIN11grpc_binder6BinderENS4_14default_deleteISD_EEEEEENS1_10StringHashENS1_8StringEqENS8_INS4_4pairIKSA_SG_EEEEE4findISA_EENSO_8iteratorERKT_m.cold.1, symObjAddr: 0x2B30, symBinAddr: 0x490E4, symSize: 0x28 }
  - { offsetInCU: 0xD6D2, offset: 0x233B24, size: 0x8, addend: 0x0, symName: __ZN4absl12lts_2021110218container_internal12raw_hash_setINS1_17FlatHashMapPolicyINSt3__112basic_stringIcNS4_11char_traitsIcEENS4_9allocatorIcEEEENS4_10unique_ptrIN11grpc_binder6BinderENS4_14default_deleteISD_EEEEEENS1_10StringHashENS1_8StringEqENS8_INS4_4pairIKSA_SG_EEEEE4findISA_EENSO_8iteratorERKT_m.cold.3, symObjAddr: 0x2B7C, symBinAddr: 0x49130, symSize: 0x24 }
  - { offsetInCU: 0xD72E, offset: 0x233B80, size: 0x8, addend: 0x0, symName: __ZN4absl12lts_2021110218container_internal12raw_hash_setINS1_17FlatHashMapPolicyINSt3__112basic_stringIcNS4_11char_traitsIcEENS4_9allocatorIcEEEENS4_10unique_ptrIN11grpc_binder6BinderENS4_14default_deleteISD_EEEEEENS1_10StringHashENS1_8StringEqENS8_INS4_4pairIKSA_SG_EEEEE4findISA_EENSO_8iteratorERKT_m.cold.2, symObjAddr: 0x2B58, symBinAddr: 0x4910C, symSize: 0x24 }
  - { offsetInCU: 0xD99B, offset: 0x233DED, size: 0x8, addend: 0x0, symName: __ZN4absl12lts_2021110218container_internal12raw_hash_setINS1_17FlatHashMapPolicyINSt3__112basic_stringIcNS4_11char_traitsIcEENS4_9allocatorIcEEEENS4_10unique_ptrIN11grpc_binder6BinderENS4_14default_deleteISD_EEEEEENS1_10StringHashENS1_8StringEqENS8_INS4_4pairIKSA_SG_EEEEE22find_or_prepare_insertISA_EENSK_ImbEERKT_, symObjAddr: 0xB20, symBinAddr: 0x23574, symSize: 0x1A8 }
  - { offsetInCU: 0xDFB2, offset: 0x234404, size: 0x8, addend: 0x0, symName: __ZN4absl12lts_2021110218container_internal12raw_hash_setINS1_17FlatHashMapPolicyINSt3__112basic_stringIcNS4_11char_traitsIcEENS4_9allocatorIcEEEENS4_10unique_ptrIN11grpc_binder6BinderENS4_14default_deleteISD_EEEEEENS1_10StringHashENS1_8StringEqENS8_INS4_4pairIKSA_SG_EEEEE10emplace_atIJRKNS4_21piecewise_construct_tENS4_5tupleIJRSL_EEENST_IJEEEEEEvmDpOT_, symObjAddr: 0xCC8, symBinAddr: 0x2371C, symSize: 0x98 }
  - { offsetInCU: 0xDFD3, offset: 0x234425, size: 0x8, addend: 0x0, symName: __ZN4absl12lts_2021110218container_internal12raw_hash_setINS1_17FlatHashMapPolicyINSt3__112basic_stringIcNS4_11char_traitsIcEENS4_9allocatorIcEEEENS4_10unique_ptrIN11grpc_binder6BinderENS4_14default_deleteISD_EEEEEENS1_10StringHashENS1_8StringEqENS8_INS4_4pairIKSA_SG_EEEEE10emplace_atIJRKNS4_21piecewise_construct_tENS4_5tupleIJRSL_EEENST_IJEEEEEEvmDpOT_, symObjAddr: 0xCC8, symBinAddr: 0x2371C, symSize: 0x98 }
  - { offsetInCU: 0xE4AE, offset: 0x234900, size: 0x8, addend: 0x0, symName: __ZN4absl12lts_2021110218container_internal12raw_hash_setINS1_17FlatHashMapPolicyINSt3__112basic_stringIcNS4_11char_traitsIcEENS4_9allocatorIcEEEENS4_10unique_ptrIN11grpc_binder6BinderENS4_14default_deleteISD_EEEEEENS1_10StringHashENS1_8StringEqENS8_INS4_4pairIKSA_SG_EEEEE14prepare_insertEm, symObjAddr: 0xD60, symBinAddr: 0x237B4, symSize: 0x194 }
  - { offsetInCU: 0xE4CF, offset: 0x234921, size: 0x8, addend: 0x0, symName: __ZN4absl12lts_2021110218container_internal12raw_hash_mapINS1_17FlatHashMapPolicyINSt3__112basic_stringIcNS4_11char_traitsIcEENS4_9allocatorIcEEEENS4_10unique_ptrIN11grpc_binder6BinderENS4_14default_deleteISD_EEEEEENS1_10StringHashENS1_8StringEqENS8_INS4_4pairIKSA_SG_EEEEE16try_emplace_implIRSL_JEEENSK_INS1_12raw_hash_setISH_SI_SJ_SN_E8iteratorEbEEOT_DpOT0_.cold.1, symObjAddr: 0x2BA0, symBinAddr: 0x49154, symSize: 0x24 }
  - { offsetInCU: 0xE52A, offset: 0x23497C, size: 0x8, addend: 0x0, symName: __ZN4absl12lts_2021110218container_internal12raw_hash_setINS1_17FlatHashMapPolicyINSt3__112basic_stringIcNS4_11char_traitsIcEENS4_9allocatorIcEEEENS4_10unique_ptrIN11grpc_binder6BinderENS4_14default_deleteISD_EEEEEENS1_10StringHashENS1_8StringEqENS8_INS4_4pairIKSA_SG_EEEEE22find_or_prepare_insertISA_EENSK_ImbEERKT_.cold.1, symObjAddr: 0x2BC4, symBinAddr: 0x49178, symSize: 0x28 }
  - { offsetInCU: 0xE542, offset: 0x234994, size: 0x8, addend: 0x0, symName: __ZN4absl12lts_2021110218container_internal12raw_hash_setINS1_17FlatHashMapPolicyINSt3__112basic_stringIcNS4_11char_traitsIcEENS4_9allocatorIcEEEENS4_10unique_ptrIN11grpc_binder6BinderENS4_14default_deleteISD_EEEEEENS1_10StringHashENS1_8StringEqENS8_INS4_4pairIKSA_SG_EEEEE14prepare_insertEm, symObjAddr: 0xD60, symBinAddr: 0x237B4, symSize: 0x194 }
  - { offsetInCU: 0xE8CF, offset: 0x234D21, size: 0x8, addend: 0x0, symName: __ZN4absl12lts_2021110218container_internal12raw_hash_setINS1_17FlatHashMapPolicyINSt3__112basic_stringIcNS4_11char_traitsIcEENS4_9allocatorIcEEEENS4_10unique_ptrIN11grpc_binder6BinderENS4_14default_deleteISD_EEEEEENS1_10StringHashENS1_8StringEqENS8_INS4_4pairIKSA_SG_EEEEE22find_or_prepare_insertISA_EENSK_ImbEERKT_.cold.2, symObjAddr: 0x2BEC, symBinAddr: 0x491A0, symSize: 0x24 }
  - { offsetInCU: 0xEF1A, offset: 0x23536C, size: 0x8, addend: 0x0, symName: __ZN4absl12lts_2021110218container_internal12raw_hash_setINS1_17FlatHashMapPolicyINSt3__112basic_stringIcNS4_11char_traitsIcEENS4_9allocatorIcEEEENS4_10unique_ptrIN11grpc_binder6BinderENS4_14default_deleteISD_EEEEEENS1_10StringHashENS1_8StringEqENS8_INS4_4pairIKSA_SG_EEEEE10emplace_atIJRKNS4_21piecewise_construct_tENS4_5tupleIJRSL_EEENST_IJEEEEEEvmDpOT_.cold.1, symObjAddr: 0x2C10, symBinAddr: 0x491C4, symSize: 0x24 }
  - { offsetInCU: 0xEF77, offset: 0x2353C9, size: 0x8, addend: 0x0, symName: __ZN4absl12lts_2021110218container_internal12raw_hash_setINS1_17FlatHashMapPolicyINSt3__112basic_stringIcNS4_11char_traitsIcEENS4_9allocatorIcEEEENS4_10unique_ptrIN11grpc_binder6BinderENS4_14default_deleteISD_EEEEEENS1_10StringHashENS1_8StringEqENS8_INS4_4pairIKSA_SG_EEEEE10emplace_atIJRKNS4_21piecewise_construct_tENS4_5tupleIJRSL_EEENST_IJEEEEEEvmDpOT_.cold.4, symObjAddr: 0x2C80, symBinAddr: 0x49234, symSize: 0x24 }
  - { offsetInCU: 0xEFD4, offset: 0x235426, size: 0x8, addend: 0x0, symName: __ZN4absl12lts_2021110218container_internal12raw_hash_setINS1_17FlatHashMapPolicyINSt3__112basic_stringIcNS4_11char_traitsIcEENS4_9allocatorIcEEEENS4_10unique_ptrIN11grpc_binder6BinderENS4_14default_deleteISD_EEEEEENS1_10StringHashENS1_8StringEqENS8_INS4_4pairIKSA_SG_EEEEE10emplace_atIJRKNS4_21piecewise_construct_tENS4_5tupleIJRSL_EEENST_IJEEEEEEvmDpOT_.cold.2, symObjAddr: 0x2C34, symBinAddr: 0x491E8, symSize: 0x24 }
  - { offsetInCU: 0xF031, offset: 0x235483, size: 0x8, addend: 0x0, symName: __ZN4absl12lts_2021110218container_internal12raw_hash_setINS1_17FlatHashMapPolicyINSt3__112basic_stringIcNS4_11char_traitsIcEENS4_9allocatorIcEEEENS4_10unique_ptrIN11grpc_binder6BinderENS4_14default_deleteISD_EEEEEENS1_10StringHashENS1_8StringEqENS8_INS4_4pairIKSA_SG_EEEEE10emplace_atIJRKNS4_21piecewise_construct_tENS4_5tupleIJRSL_EEENST_IJEEEEEEvmDpOT_.cold.3, symObjAddr: 0x2C58, symBinAddr: 0x4920C, symSize: 0x28 }
  - { offsetInCU: 0xF082, offset: 0x2354D4, size: 0x8, addend: 0x0, symName: __ZN4absl12lts_2021110218container_internal12raw_hash_setINS1_17FlatHashMapPolicyINSt3__112basic_stringIcNS4_11char_traitsIcEENS4_9allocatorIcEEEENS4_10unique_ptrIN11grpc_binder6BinderENS4_14default_deleteISD_EEEEEENS1_10StringHashENS1_8StringEqENS8_INS4_4pairIKSA_SG_EEEEE28rehash_and_grow_if_necessaryEv, symObjAddr: 0xEF4, symBinAddr: 0x23948, symSize: 0x3C }
  - { offsetInCU: 0xF10C, offset: 0x23555E, size: 0x8, addend: 0x0, symName: __ZN4absl12lts_2021110218container_internal12raw_hash_setINS1_17FlatHashMapPolicyINSt3__112basic_stringIcNS4_11char_traitsIcEENS4_9allocatorIcEEEENS4_10unique_ptrIN11grpc_binder6BinderENS4_14default_deleteISD_EEEEEENS1_10StringHashENS1_8StringEqENS8_INS4_4pairIKSA_SG_EEEEE6resizeEm, symObjAddr: 0xF30, symBinAddr: 0x23984, symSize: 0x218 }
  - { offsetInCU: 0xFB26, offset: 0x235F78, size: 0x8, addend: 0x0, symName: __ZN4absl12lts_2021110218container_internal12raw_hash_setINS1_17FlatHashMapPolicyINSt3__112basic_stringIcNS4_11char_traitsIcEENS4_9allocatorIcEEEENS4_10unique_ptrIN11grpc_binder6BinderENS4_14default_deleteISD_EEEEEENS1_10StringHashENS1_8StringEqENS8_INS4_4pairIKSA_SG_EEEEE27drop_deletes_without_resizeEv, symObjAddr: 0x1148, symBinAddr: 0x23B9C, symSize: 0x418 }
  - { offsetInCU: 0xFB32, offset: 0x235F84, size: 0x8, addend: 0x0, symName: __ZN4absl12lts_2021110218container_internal12raw_hash_setINS1_17FlatHashMapPolicyINSt3__112basic_stringIcNS4_11char_traitsIcEENS4_9allocatorIcEEEENS4_10unique_ptrIN11grpc_binder6BinderENS4_14default_deleteISD_EEEEEENS1_10StringHashENS1_8StringEqENS8_INS4_4pairIKSA_SG_EEEEE27drop_deletes_without_resizeEv, symObjAddr: 0x1148, symBinAddr: 0x23B9C, symSize: 0x418 }
  - { offsetInCU: 0x110E6, offset: 0x237538, size: 0x8, addend: 0x0, symName: __ZN4absl12lts_2021110218container_internal12raw_hash_setINS1_17FlatHashMapPolicyINSt3__112basic_stringIcNS4_11char_traitsIcEENS4_9allocatorIcEEEENS4_10unique_ptrIN11grpc_binder6BinderENS4_14default_deleteISD_EEEEEENS1_10StringHashENS1_8StringEqENS8_INS4_4pairIKSA_SG_EEEEE16initialize_slotsEv, symObjAddr: 0x1560, symBinAddr: 0x23FB4, symSize: 0x9C }
  - { offsetInCU: 0x1124E, offset: 0x2376A0, size: 0x8, addend: 0x0, symName: __ZN4absl12lts_2021110218container_internal8AllocateILm8ENSt3__19allocatorINS3_4pairIKNS3_12basic_stringIcNS3_11char_traitsIcEENS4_IcEEEENS3_10unique_ptrIN11grpc_binder6BinderENS3_14default_deleteISE_EEEEEEEEEEPvPT0_m, symObjAddr: 0x15FC, symBinAddr: 0x24050, symSize: 0x30 }
  - { offsetInCU: 0x1125A, offset: 0x2376AC, size: 0x8, addend: 0x0, symName: __ZN4absl12lts_2021110218container_internal12raw_hash_setINS1_17FlatHashMapPolicyINSt3__112basic_stringIcNS4_11char_traitsIcEENS4_9allocatorIcEEEENS4_10unique_ptrIN11grpc_binder6BinderENS4_14default_deleteISD_EEEEEENS1_10StringHashENS1_8StringEqENS8_INS4_4pairIKSA_SG_EEEEE6resizeEm.cold.1, symObjAddr: 0x2CA4, symBinAddr: 0x49258, symSize: 0x28 }
  - { offsetInCU: 0x11289, offset: 0x2376DB, size: 0x8, addend: 0x0, symName: __ZN4absl12lts_2021110218container_internal12raw_hash_setINS1_17FlatHashMapPolicyINSt3__112basic_stringIcNS4_11char_traitsIcEENS4_9allocatorIcEEEENS4_10unique_ptrIN11grpc_binder6BinderENS4_14default_deleteISD_EEEEEENS1_10StringHashENS1_8StringEqENS8_INS4_4pairIKSA_SG_EEEEE6resizeEm.cold.4, symObjAddr: 0x2D14, symBinAddr: 0x492C8, symSize: 0x24 }
  - { offsetInCU: 0x112FC, offset: 0x23774E, size: 0x8, addend: 0x0, symName: __ZN4absl12lts_2021110218container_internal12raw_hash_setINS1_17FlatHashMapPolicyINSt3__112basic_stringIcNS4_11char_traitsIcEENS4_9allocatorIcEEEENS4_10unique_ptrIN11grpc_binder6BinderENS4_14default_deleteISD_EEEEEENS1_10StringHashENS1_8StringEqENS8_INS4_4pairIKSA_SG_EEEEE6resizeEm.cold.3, symObjAddr: 0x2CF0, symBinAddr: 0x492A4, symSize: 0x24 }
  - { offsetInCU: 0x11342, offset: 0x237794, size: 0x8, addend: 0x0, symName: __ZN4absl12lts_2021110218container_internal12raw_hash_setINS1_17FlatHashMapPolicyINSt3__112basic_stringIcNS4_11char_traitsIcEENS4_9allocatorIcEEEENS4_10unique_ptrIN11grpc_binder6BinderENS4_14default_deleteISD_EEEEEENS1_10StringHashENS1_8StringEqENS8_INS4_4pairIKSA_SG_EEEEE6resizeEm.cold.5, symObjAddr: 0x2D38, symBinAddr: 0x492EC, symSize: 0x28 }
  - { offsetInCU: 0x1135A, offset: 0x2377AC, size: 0x8, addend: 0x0, symName: __ZN4absl12lts_2021110218container_internal12raw_hash_setINS1_17FlatHashMapPolicyINSt3__112basic_stringIcNS4_11char_traitsIcEENS4_9allocatorIcEEEENS4_10unique_ptrIN11grpc_binder6BinderENS4_14default_deleteISD_EEEEEENS1_10StringHashENS1_8StringEqENS8_INS4_4pairIKSA_SG_EEEEE6resizeEm.cold.2, symObjAddr: 0x2CCC, symBinAddr: 0x49280, symSize: 0x24 }
  - { offsetInCU: 0x113D6, offset: 0x237828, size: 0x8, addend: 0x0, symName: __ZN4absl12lts_2021110218container_internal12raw_hash_setINS1_17FlatHashMapPolicyINSt3__112basic_stringIcNS4_11char_traitsIcEENS4_9allocatorIcEEEENS4_10unique_ptrIN11grpc_binder6BinderENS4_14default_deleteISD_EEEEEENS1_10StringHashENS1_8StringEqENS8_INS4_4pairIKSA_SG_EEEEE17reset_growth_leftEv, symObjAddr: 0x162C, symBinAddr: 0x24080, symSize: 0x48 }
  - { offsetInCU: 0x11453, offset: 0x2378A5, size: 0x8, addend: 0x0, symName: __ZN4absl12lts_2021110218container_internal12raw_hash_setINS1_17FlatHashMapPolicyINSt3__112basic_stringIcNS4_11char_traitsIcEENS4_9allocatorIcEEEENS4_10unique_ptrIN11grpc_binder6BinderENS4_14default_deleteISD_EEEEEENS1_10StringHashENS1_8StringEqENS8_INS4_4pairIKSA_SG_EEEEE4findISA_EENSO_8iteratorERKT_, symObjAddr: 0x1674, symBinAddr: 0x240C8, symSize: 0x80 }
  - { offsetInCU: 0x11475, offset: 0x2378C7, size: 0x8, addend: 0x0, symName: __ZN4absl12lts_2021110218container_internal12raw_hash_setINS1_17FlatHashMapPolicyINSt3__112basic_stringIcNS4_11char_traitsIcEENS4_9allocatorIcEEEENS4_10unique_ptrIN11grpc_binder6BinderENS4_14default_deleteISD_EEEEEENS1_10StringHashENS1_8StringEqENS8_INS4_4pairIKSA_SG_EEEEE16initialize_slotsEv.cold.1, symObjAddr: 0x2D60, symBinAddr: 0x49314, symSize: 0x28 }
  - { offsetInCU: 0x1148D, offset: 0x2378DF, size: 0x8, addend: 0x0, symName: __ZN4absl12lts_2021110218container_internal12raw_hash_setINS1_17FlatHashMapPolicyINSt3__112basic_stringIcNS4_11char_traitsIcEENS4_9allocatorIcEEEENS4_10unique_ptrIN11grpc_binder6BinderENS4_14default_deleteISD_EEEEEENS1_10StringHashENS1_8StringEqENS8_INS4_4pairIKSA_SG_EEEEE16initialize_slotsEv.cold.3, symObjAddr: 0x2DAC, symBinAddr: 0x49360, symSize: 0x24 }
  - { offsetInCU: 0x114D3, offset: 0x237925, size: 0x8, addend: 0x0, symName: __ZN4absl12lts_2021110218container_internal12raw_hash_setINS1_17FlatHashMapPolicyINSt3__112basic_stringIcNS4_11char_traitsIcEENS4_9allocatorIcEEEENS4_10unique_ptrIN11grpc_binder6BinderENS4_14default_deleteISD_EEEEEENS1_10StringHashENS1_8StringEqENS8_INS4_4pairIKSA_SG_EEEEE16initialize_slotsEv.cold.2, symObjAddr: 0x2D88, symBinAddr: 0x4933C, symSize: 0x24 }
  - { offsetInCU: 0x11546, offset: 0x237998, size: 0x8, addend: 0x0, symName: __ZN4absl12lts_2021110218container_internal8AllocateILm8ENSt3__19allocatorINS3_4pairIKNS3_12basic_stringIcNS3_11char_traitsIcEENS4_IcEEEENS3_10unique_ptrIN11grpc_binder6BinderENS3_14default_deleteISE_EEEEEEEEEEPvPT0_m.cold.1, symObjAddr: 0x2DD0, symBinAddr: 0x49384, symSize: 0x28 }
  - { offsetInCU: 0x1155E, offset: 0x2379B0, size: 0x8, addend: 0x0, symName: __ZN4absl12lts_2021110218container_internal8AllocateILm8ENSt3__19allocatorINS3_4pairIKNS3_12basic_stringIcNS3_11char_traitsIcEENS4_IcEEEENS3_10unique_ptrIN11grpc_binder6BinderENS3_14default_deleteISE_EEEEEEEEEEPvPT0_m.cold.2, symObjAddr: 0x2DF8, symBinAddr: 0x493AC, symSize: 0x28 }
  - { offsetInCU: 0x1158C, offset: 0x2379DE, size: 0x8, addend: 0x0, symName: __ZN4absl12lts_2021110218container_internal12raw_hash_setINS1_17FlatHashMapPolicyINSt3__112basic_stringIcNS4_11char_traitsIcEENS4_9allocatorIcEEEENS4_10unique_ptrIN11grpc_binder6BinderENS4_14default_deleteISD_EEEEEENS1_10StringHashENS1_8StringEqENS8_INS4_4pairIKSA_SG_EEEEE17reset_growth_leftEv.cold.1, symObjAddr: 0x2E20, symBinAddr: 0x493D4, symSize: 0x28 }
  - { offsetInCU: 0x1160F, offset: 0x237A61, size: 0x8, addend: 0x0, symName: __ZN4absl12lts_2021110218container_internal12raw_hash_setINS1_17FlatHashMapPolicyINSt3__112basic_stringIcNS4_11char_traitsIcEENS4_9allocatorIcEEEENS4_10unique_ptrIN11grpc_binder6BinderENS4_14default_deleteISD_EEEEEENS1_10StringHashENS1_8StringEqENS8_INS4_4pairIKSA_SG_EEEEE15erase_meta_onlyENSO_14const_iteratorE, symObjAddr: 0x1748, symBinAddr: 0x2419C, symSize: 0xC8 }
  - { offsetInCU: 0x118DA, offset: 0x237D2C, size: 0x8, addend: 0x0, symName: __ZNK4absl12lts_2021110218container_internal12raw_hash_setINS1_17FlatHashMapPolicyINSt3__112basic_stringIcNS4_11char_traitsIcEENS4_9allocatorIcEEEENS4_8functionIFvNS4_10unique_ptrIN11grpc_binder6BinderENS4_14default_deleteISE_EEEEEEEEENS1_10StringHashENS1_8StringEqENS8_INS4_4pairIKSA_SJ_EEEEE4findISA_EENSR_14const_iteratorERKT_, symObjAddr: 0x1810, symBinAddr: 0x24264, symSize: 0x80 }
  - { offsetInCU: 0x118E6, offset: 0x237D38, size: 0x8, addend: 0x0, symName: __ZN4absl12lts_2021110218container_internal12raw_hash_setINS1_17FlatHashMapPolicyINSt3__112basic_stringIcNS4_11char_traitsIcEENS4_9allocatorIcEEEENS4_10unique_ptrIN11grpc_binder6BinderENS4_14default_deleteISD_EEEEEENS1_10StringHashENS1_8StringEqENS8_INS4_4pairIKSA_SG_EEEEE5eraseENSO_8iteratorE.cold.1, symObjAddr: 0x2E48, symBinAddr: 0x493FC, symSize: 0x24 }
  - { offsetInCU: 0x11970, offset: 0x237DC2, size: 0x8, addend: 0x0, symName: __ZN4absl12lts_2021110218container_internal12raw_hash_setINS1_17FlatHashMapPolicyINSt3__112basic_stringIcNS4_11char_traitsIcEENS4_9allocatorIcEEEENS4_10unique_ptrIN11grpc_binder6BinderENS4_14default_deleteISD_EEEEEENS1_10StringHashENS1_8StringEqENS8_INS4_4pairIKSA_SG_EEEEE15erase_meta_onlyENSO_14const_iteratorE.cold.2, symObjAddr: 0x2E90, symBinAddr: 0x49444, symSize: 0x28 }
  - { offsetInCU: 0x11988, offset: 0x237DDA, size: 0x8, addend: 0x0, symName: __ZN4absl12lts_2021110218container_internal12raw_hash_setINS1_17FlatHashMapPolicyINSt3__112basic_stringIcNS4_11char_traitsIcEENS4_9allocatorIcEEEENS4_10unique_ptrIN11grpc_binder6BinderENS4_14default_deleteISD_EEEEEENS1_10StringHashENS1_8StringEqENS8_INS4_4pairIKSA_SG_EEEEE15erase_meta_onlyENSO_14const_iteratorE.cold.1, symObjAddr: 0x2E6C, symBinAddr: 0x49420, symSize: 0x24 }
  - { offsetInCU: 0x11A06, offset: 0x237E58, size: 0x8, addend: 0x0, symName: __ZN4absl12lts_2021110218container_internal12raw_hash_setINS1_17FlatHashMapPolicyINSt3__112basic_stringIcNS4_11char_traitsIcEENS4_9allocatorIcEEEENS4_8functionIFvNS4_10unique_ptrIN11grpc_binder6BinderENS4_14default_deleteISE_EEEEEEEEENS1_10StringHashENS1_8StringEqENS8_INS4_4pairIKSA_SJ_EEEEE4findISA_EENSR_8iteratorERKT_m, symObjAddr: 0x18D0, symBinAddr: 0x24324, symSize: 0x164 }
  - { offsetInCU: 0x11E39, offset: 0x23828B, size: 0x8, addend: 0x0, symName: __ZNK4absl12lts_2021110218container_internal12raw_hash_setINS1_17FlatHashMapPolicyINSt3__112basic_stringIcNS4_11char_traitsIcEENS4_9allocatorIcEEEENS4_8functionIFvNS4_10unique_ptrIN11grpc_binder6BinderENS4_14default_deleteISE_EEEEEEEEENS1_10StringHashENS1_8StringEqENS8_INS4_4pairIKSA_SJ_EEEEE12EqualElementISA_EclISA_JRKNS4_21piecewise_construct_tENS4_5tupleIJRSO_EEENSY_IJRKSJ_EEEEEEbRKT_DpOT0_, symObjAddr: 0x1A34, symBinAddr: 0x24488, symSize: 0x70 }
  - { offsetInCU: 0x11E4E, offset: 0x2382A0, size: 0x8, addend: 0x0, symName: __ZN4absl12lts_2021110218container_internaleqERKNS1_12raw_hash_setINS1_17FlatHashMapPolicyINSt3__112basic_stringIcNS4_11char_traitsIcEENS4_9allocatorIcEEEENS4_8functionIFvNS4_10unique_ptrIN11grpc_binder6BinderENS4_14default_deleteISE_EEEEEEEEENS1_10StringHashENS1_8StringEqENS8_INS4_4pairIKSA_SJ_EEEEE8iteratorESU_.cold.2, symObjAddr: 0x2EDC, symBinAddr: 0x49490, symSize: 0x24 }
  - { offsetInCU: 0x11E94, offset: 0x2382E6, size: 0x8, addend: 0x0, symName: __ZN4absl12lts_2021110218container_internaleqERKNS1_12raw_hash_setINS1_17FlatHashMapPolicyINSt3__112basic_stringIcNS4_11char_traitsIcEENS4_9allocatorIcEEEENS4_8functionIFvNS4_10unique_ptrIN11grpc_binder6BinderENS4_14default_deleteISE_EEEEEEEEENS1_10StringHashENS1_8StringEqENS8_INS4_4pairIKSA_SJ_EEEEE8iteratorESU_.cold.1, symObjAddr: 0x2EB8, symBinAddr: 0x4946C, symSize: 0x24 }
  - { offsetInCU: 0x12009, offset: 0x23845B, size: 0x8, addend: 0x0, symName: __ZNK4absl12lts_2021110218container_internal12raw_hash_setINS1_17FlatHashMapPolicyINSt3__112basic_stringIcNS4_11char_traitsIcEENS4_9allocatorIcEEEENS4_8functionIFvNS4_10unique_ptrIN11grpc_binder6BinderENS4_14default_deleteISE_EEEEEEEEENS1_10StringHashENS1_8StringEqENS8_INS4_4pairIKSA_SJ_EEEEE12EqualElementISA_EclISA_JRKNS4_21piecewise_construct_tENS4_5tupleIJRSO_EEENSY_IJRKSJ_EEEEEEbRKT_DpOT0_, symObjAddr: 0x1A34, symBinAddr: 0x24488, symSize: 0x70 }
  - { offsetInCU: 0x121B1, offset: 0x238603, size: 0x8, addend: 0x0, symName: __ZN4absl12lts_2021110218container_internal12raw_hash_setINS1_17FlatHashMapPolicyINSt3__112basic_stringIcNS4_11char_traitsIcEENS4_9allocatorIcEEEENS4_8functionIFvNS4_10unique_ptrIN11grpc_binder6BinderENS4_14default_deleteISE_EEEEEEEEENS1_10StringHashENS1_8StringEqENS8_INS4_4pairIKSA_SJ_EEEEE4findISA_EENSR_8iteratorERKT_m.cold.1, symObjAddr: 0x2F00, symBinAddr: 0x494B4, symSize: 0x28 }
  - { offsetInCU: 0x121C9, offset: 0x23861B, size: 0x8, addend: 0x0, symName: __ZN4absl12lts_2021110218container_internal12raw_hash_setINS1_17FlatHashMapPolicyINSt3__112basic_stringIcNS4_11char_traitsIcEENS4_9allocatorIcEEEENS4_8functionIFvNS4_10unique_ptrIN11grpc_binder6BinderENS4_14default_deleteISE_EEEEEEEEENS1_10StringHashENS1_8StringEqENS8_INS4_4pairIKSA_SJ_EEEEE4findISA_EENSR_8iteratorERKT_m.cold.3, symObjAddr: 0x2F4C, symBinAddr: 0x49500, symSize: 0x24 }
  - { offsetInCU: 0x12225, offset: 0x238677, size: 0x8, addend: 0x0, symName: __ZN4absl12lts_2021110218container_internal12raw_hash_setINS1_17FlatHashMapPolicyINSt3__112basic_stringIcNS4_11char_traitsIcEENS4_9allocatorIcEEEENS4_8functionIFvNS4_10unique_ptrIN11grpc_binder6BinderENS4_14default_deleteISE_EEEEEEEEENS1_10StringHashENS1_8StringEqENS8_INS4_4pairIKSA_SJ_EEEEE4findISA_EENSR_8iteratorERKT_m.cold.2, symObjAddr: 0x2F28, symBinAddr: 0x494DC, symSize: 0x24 }
  - { offsetInCU: 0x12321, offset: 0x238773, size: 0x8, addend: 0x0, symName: __ZN4absl12lts_2021110218container_internal12raw_hash_setINS1_17FlatHashMapPolicyINSt3__112basic_stringIcNS4_11char_traitsIcEENS4_9allocatorIcEEEENS4_8functionIFvNS4_10unique_ptrIN11grpc_binder6BinderENS4_14default_deleteISE_EEEEEEEEENS1_10StringHashENS1_8StringEqENS8_INS4_4pairIKSA_SJ_EEEEE22find_or_prepare_insertISA_EENSN_ImbEERKT_, symObjAddr: 0x1B38, symBinAddr: 0x2458C, symSize: 0x1B0 }
  - { offsetInCU: 0x12938, offset: 0x238D8A, size: 0x8, addend: 0x0, symName: __ZN4absl12lts_2021110218container_internal12raw_hash_setINS1_17FlatHashMapPolicyINSt3__112basic_stringIcNS4_11char_traitsIcEENS4_9allocatorIcEEEENS4_8functionIFvNS4_10unique_ptrIN11grpc_binder6BinderENS4_14default_deleteISE_EEEEEEEEENS1_10StringHashENS1_8StringEqENS8_INS4_4pairIKSA_SJ_EEEEE10emplace_atIJRKNS4_21piecewise_construct_tENS4_5tupleIJRSO_EEENSW_IJEEEEEEvmDpOT_, symObjAddr: 0x1CE8, symBinAddr: 0x2473C, symSize: 0xA4 }
  - { offsetInCU: 0x1294D, offset: 0x238D9F, size: 0x8, addend: 0x0, symName: __ZN4absl12lts_2021110218container_internal12raw_hash_setINS1_17FlatHashMapPolicyINSt3__112basic_stringIcNS4_11char_traitsIcEENS4_9allocatorIcEEEENS4_8functionIFvNS4_10unique_ptrIN11grpc_binder6BinderENS4_14default_deleteISE_EEEEEEEEENS1_10StringHashENS1_8StringEqENS8_INS4_4pairIKSA_SJ_EEEEE10emplace_atIJRKNS4_21piecewise_construct_tENS4_5tupleIJRSO_EEENSW_IJEEEEEEvmDpOT_, symObjAddr: 0x1CE8, symBinAddr: 0x2473C, symSize: 0xA4 }
  - { offsetInCU: 0x12E10, offset: 0x239262, size: 0x8, addend: 0x0, symName: __ZN4absl12lts_2021110218container_internal12raw_hash_setINS1_17FlatHashMapPolicyINSt3__112basic_stringIcNS4_11char_traitsIcEENS4_9allocatorIcEEEENS4_8functionIFvNS4_10unique_ptrIN11grpc_binder6BinderENS4_14default_deleteISE_EEEEEEEEENS1_10StringHashENS1_8StringEqENS8_INS4_4pairIKSA_SJ_EEEEE14prepare_insertEm, symObjAddr: 0x1D8C, symBinAddr: 0x247E0, symSize: 0x194 }
  - { offsetInCU: 0x12E31, offset: 0x239283, size: 0x8, addend: 0x0, symName: __ZN4absl12lts_2021110218container_internal12raw_hash_mapINS1_17FlatHashMapPolicyINSt3__112basic_stringIcNS4_11char_traitsIcEENS4_9allocatorIcEEEENS4_8functionIFvNS4_10unique_ptrIN11grpc_binder6BinderENS4_14default_deleteISE_EEEEEEEEENS1_10StringHashENS1_8StringEqENS8_INS4_4pairIKSA_SJ_EEEEE16try_emplace_implIRSO_JEEENSN_INS1_12raw_hash_setISK_SL_SM_SQ_E8iteratorEbEEOT_DpOT0_.cold.1, symObjAddr: 0x2F70, symBinAddr: 0x49524, symSize: 0x24 }
  - { offsetInCU: 0x12E8C, offset: 0x2392DE, size: 0x8, addend: 0x0, symName: __ZN4absl12lts_2021110218container_internal12raw_hash_setINS1_17FlatHashMapPolicyINSt3__112basic_stringIcNS4_11char_traitsIcEENS4_9allocatorIcEEEENS4_8functionIFvNS4_10unique_ptrIN11grpc_binder6BinderENS4_14default_deleteISE_EEEEEEEEENS1_10StringHashENS1_8StringEqENS8_INS4_4pairIKSA_SJ_EEEEE22find_or_prepare_insertISA_EENSN_ImbEERKT_.cold.1, symObjAddr: 0x2F94, symBinAddr: 0x49548, symSize: 0x28 }
  - { offsetInCU: 0x12EA4, offset: 0x2392F6, size: 0x8, addend: 0x0, symName: __ZN4absl12lts_2021110218container_internal12raw_hash_setINS1_17FlatHashMapPolicyINSt3__112basic_stringIcNS4_11char_traitsIcEENS4_9allocatorIcEEEENS4_8functionIFvNS4_10unique_ptrIN11grpc_binder6BinderENS4_14default_deleteISE_EEEEEEEEENS1_10StringHashENS1_8StringEqENS8_INS4_4pairIKSA_SJ_EEEEE14prepare_insertEm, symObjAddr: 0x1D8C, symBinAddr: 0x247E0, symSize: 0x194 }
  - { offsetInCU: 0x13231, offset: 0x239683, size: 0x8, addend: 0x0, symName: __ZN4absl12lts_2021110218container_internal12raw_hash_setINS1_17FlatHashMapPolicyINSt3__112basic_stringIcNS4_11char_traitsIcEENS4_9allocatorIcEEEENS4_8functionIFvNS4_10unique_ptrIN11grpc_binder6BinderENS4_14default_deleteISE_EEEEEEEEENS1_10StringHashENS1_8StringEqENS8_INS4_4pairIKSA_SJ_EEEEE22find_or_prepare_insertISA_EENSN_ImbEERKT_.cold.2, symObjAddr: 0x2FBC, symBinAddr: 0x49570, symSize: 0x24 }
  - { offsetInCU: 0x137B9, offset: 0x239C0B, size: 0x8, addend: 0x0, symName: __ZN4absl12lts_2021110218container_internal12raw_hash_setINS1_17FlatHashMapPolicyINSt3__112basic_stringIcNS4_11char_traitsIcEENS4_9allocatorIcEEEENS4_8functionIFvNS4_10unique_ptrIN11grpc_binder6BinderENS4_14default_deleteISE_EEEEEEEEENS1_10StringHashENS1_8StringEqENS8_INS4_4pairIKSA_SJ_EEEEE10emplace_atIJRKNS4_21piecewise_construct_tENS4_5tupleIJRSO_EEENSW_IJEEEEEEvmDpOT_.cold.1, symObjAddr: 0x2FE0, symBinAddr: 0x49594, symSize: 0x24 }
  - { offsetInCU: 0x13816, offset: 0x239C68, size: 0x8, addend: 0x0, symName: __ZN4absl12lts_2021110218container_internal12raw_hash_setINS1_17FlatHashMapPolicyINSt3__112basic_stringIcNS4_11char_traitsIcEENS4_9allocatorIcEEEENS4_8functionIFvNS4_10unique_ptrIN11grpc_binder6BinderENS4_14default_deleteISE_EEEEEEEEENS1_10StringHashENS1_8StringEqENS8_INS4_4pairIKSA_SJ_EEEEE10emplace_atIJRKNS4_21piecewise_construct_tENS4_5tupleIJRSO_EEENSW_IJEEEEEEvmDpOT_.cold.4, symObjAddr: 0x3050, symBinAddr: 0x49604, symSize: 0x24 }
  - { offsetInCU: 0x13873, offset: 0x239CC5, size: 0x8, addend: 0x0, symName: __ZN4absl12lts_2021110218container_internal12raw_hash_setINS1_17FlatHashMapPolicyINSt3__112basic_stringIcNS4_11char_traitsIcEENS4_9allocatorIcEEEENS4_8functionIFvNS4_10unique_ptrIN11grpc_binder6BinderENS4_14default_deleteISE_EEEEEEEEENS1_10StringHashENS1_8StringEqENS8_INS4_4pairIKSA_SJ_EEEEE10emplace_atIJRKNS4_21piecewise_construct_tENS4_5tupleIJRSO_EEENSW_IJEEEEEEvmDpOT_.cold.2, symObjAddr: 0x3004, symBinAddr: 0x495B8, symSize: 0x24 }
  - { offsetInCU: 0x138D0, offset: 0x239D22, size: 0x8, addend: 0x0, symName: __ZN4absl12lts_2021110218container_internal12raw_hash_setINS1_17FlatHashMapPolicyINSt3__112basic_stringIcNS4_11char_traitsIcEENS4_9allocatorIcEEEENS4_8functionIFvNS4_10unique_ptrIN11grpc_binder6BinderENS4_14default_deleteISE_EEEEEEEEENS1_10StringHashENS1_8StringEqENS8_INS4_4pairIKSA_SJ_EEEEE10emplace_atIJRKNS4_21piecewise_construct_tENS4_5tupleIJRSO_EEENSW_IJEEEEEEvmDpOT_.cold.3, symObjAddr: 0x3028, symBinAddr: 0x495DC, symSize: 0x28 }
  - { offsetInCU: 0x138E8, offset: 0x239D3A, size: 0x8, addend: 0x0, symName: __ZN4absl12lts_2021110218container_internal12raw_hash_setINS1_17FlatHashMapPolicyINSt3__112basic_stringIcNS4_11char_traitsIcEENS4_9allocatorIcEEEENS4_8functionIFvNS4_10unique_ptrIN11grpc_binder6BinderENS4_14default_deleteISE_EEEEEEEEENS1_10StringHashENS1_8StringEqENS8_INS4_4pairIKSA_SJ_EEEEE28rehash_and_grow_if_necessaryEv, symObjAddr: 0x1F20, symBinAddr: 0x24974, symSize: 0x3C }
  - { offsetInCU: 0x13972, offset: 0x239DC4, size: 0x8, addend: 0x0, symName: __ZN4absl12lts_2021110218container_internal12raw_hash_setINS1_17FlatHashMapPolicyINSt3__112basic_stringIcNS4_11char_traitsIcEENS4_9allocatorIcEEEENS4_8functionIFvNS4_10unique_ptrIN11grpc_binder6BinderENS4_14default_deleteISE_EEEEEEEEENS1_10StringHashENS1_8StringEqENS8_INS4_4pairIKSA_SJ_EEEEE6resizeEm, symObjAddr: 0x1F5C, symBinAddr: 0x249B0, symSize: 0x228 }
  - { offsetInCU: 0x1436D, offset: 0x23A7BF, size: 0x8, addend: 0x0, symName: __ZN4absl12lts_2021110218container_internal12raw_hash_setINS1_17FlatHashMapPolicyINSt3__112basic_stringIcNS4_11char_traitsIcEENS4_9allocatorIcEEEENS4_8functionIFvNS4_10unique_ptrIN11grpc_binder6BinderENS4_14default_deleteISE_EEEEEEEEENS1_10StringHashENS1_8StringEqENS8_INS4_4pairIKSA_SJ_EEEEE27drop_deletes_without_resizeEv, symObjAddr: 0x2184, symBinAddr: 0x24BD8, symSize: 0x3C4 }
  - { offsetInCU: 0x14379, offset: 0x23A7CB, size: 0x8, addend: 0x0, symName: __ZN4absl12lts_2021110218container_internal12raw_hash_setINS1_17FlatHashMapPolicyINSt3__112basic_stringIcNS4_11char_traitsIcEENS4_9allocatorIcEEEENS4_8functionIFvNS4_10unique_ptrIN11grpc_binder6BinderENS4_14default_deleteISE_EEEEEEEEENS1_10StringHashENS1_8StringEqENS8_INS4_4pairIKSA_SJ_EEEEE27drop_deletes_without_resizeEv, symObjAddr: 0x2184, symBinAddr: 0x24BD8, symSize: 0x3C4 }
  - { offsetInCU: 0x1505B, offset: 0x23B4AD, size: 0x8, addend: 0x0, symName: __ZN4absl12lts_2021110218container_internal12raw_hash_setINS1_17FlatHashMapPolicyINSt3__112basic_stringIcNS4_11char_traitsIcEENS4_9allocatorIcEEEENS4_8functionIFvNS4_10unique_ptrIN11grpc_binder6BinderENS4_14default_deleteISE_EEEEEEEEENS1_10StringHashENS1_8StringEqENS8_INS4_4pairIKSA_SJ_EEEEE16initialize_slotsEv, symObjAddr: 0x2548, symBinAddr: 0x24F9C, symSize: 0xA0 }
  - { offsetInCU: 0x151C3, offset: 0x23B615, size: 0x8, addend: 0x0, symName: __ZN4absl12lts_2021110218container_internal18hash_policy_traitsINS1_17FlatHashMapPolicyINSt3__112basic_stringIcNS4_11char_traitsIcEENS4_9allocatorIcEEEENS4_8functionIFvNS4_10unique_ptrIN11grpc_binder6BinderENS4_14default_deleteISE_EEEEEEEEEvE8transferINS8_INS4_4pairIKSA_SJ_EEEEEEvPT_PNS1_13map_slot_typeISA_SJ_EESV_, symObjAddr: 0x25E8, symBinAddr: 0x2503C, symSize: 0x50 }
  - { offsetInCU: 0x151CF, offset: 0x23B621, size: 0x8, addend: 0x0, symName: __ZNSt3__110__function12__value_funcIFvNS_10unique_ptrIN11grpc_binder6BinderENS_14default_deleteIS4_EEEEEEC2B7v160006EOS9_, symObjAddr: 0x26C8, symBinAddr: 0x2511C, symSize: 0x64 }
  - { offsetInCU: 0x1521D, offset: 0x23B66F, size: 0x8, addend: 0x0, symName: __ZN4absl12lts_2021110216allocator_traitsINSt3__19allocatorINS2_4pairIKNS2_12basic_stringIcNS2_11char_traitsIcEENS3_IcEEEENS2_8functionIFvNS2_10unique_ptrIN11grpc_binder6BinderENS2_14default_deleteISE_EEEEEEEEEEEE12destroy_implINS4_IS9_SJ_EEEEvcRSL_PT_, symObjAddr: 0x272C, symBinAddr: 0x25180, symSize: 0x64 }
  - { offsetInCU: 0x1542D, offset: 0x23B87F, size: 0x8, addend: 0x0, symName: __ZN4absl12lts_2021110218container_internal12raw_hash_setINS1_17FlatHashMapPolicyINSt3__112basic_stringIcNS4_11char_traitsIcEENS4_9allocatorIcEEEENS4_8functionIFvNS4_10unique_ptrIN11grpc_binder6BinderENS4_14default_deleteISE_EEEEEEEEENS1_10StringHashENS1_8StringEqENS8_INS4_4pairIKSA_SJ_EEEEE6resizeEm.cold.1, symObjAddr: 0x3074, symBinAddr: 0x49628, symSize: 0x28 }
  - { offsetInCU: 0x1545C, offset: 0x23B8AE, size: 0x8, addend: 0x0, symName: __ZN4absl12lts_2021110218container_internal12raw_hash_setINS1_17FlatHashMapPolicyINSt3__112basic_stringIcNS4_11char_traitsIcEENS4_9allocatorIcEEEENS4_8functionIFvNS4_10unique_ptrIN11grpc_binder6BinderENS4_14default_deleteISE_EEEEEEEEENS1_10StringHashENS1_8StringEqENS8_INS4_4pairIKSA_SJ_EEEEE6resizeEm.cold.4, symObjAddr: 0x30E4, symBinAddr: 0x49698, symSize: 0x24 }
  - { offsetInCU: 0x154CF, offset: 0x23B921, size: 0x8, addend: 0x0, symName: __ZN4absl12lts_2021110218container_internal12raw_hash_setINS1_17FlatHashMapPolicyINSt3__112basic_stringIcNS4_11char_traitsIcEENS4_9allocatorIcEEEENS4_8functionIFvNS4_10unique_ptrIN11grpc_binder6BinderENS4_14default_deleteISE_EEEEEEEEENS1_10StringHashENS1_8StringEqENS8_INS4_4pairIKSA_SJ_EEEEE6resizeEm.cold.3, symObjAddr: 0x30C0, symBinAddr: 0x49674, symSize: 0x24 }
  - { offsetInCU: 0x15515, offset: 0x23B967, size: 0x8, addend: 0x0, symName: __ZN4absl12lts_2021110218container_internal12raw_hash_setINS1_17FlatHashMapPolicyINSt3__112basic_stringIcNS4_11char_traitsIcEENS4_9allocatorIcEEEENS4_8functionIFvNS4_10unique_ptrIN11grpc_binder6BinderENS4_14default_deleteISE_EEEEEEEEENS1_10StringHashENS1_8StringEqENS8_INS4_4pairIKSA_SJ_EEEEE6resizeEm.cold.5, symObjAddr: 0x3108, symBinAddr: 0x496BC, symSize: 0x28 }
  - { offsetInCU: 0x1552D, offset: 0x23B97F, size: 0x8, addend: 0x0, symName: __ZN4absl12lts_2021110218container_internal12raw_hash_setINS1_17FlatHashMapPolicyINSt3__112basic_stringIcNS4_11char_traitsIcEENS4_9allocatorIcEEEENS4_8functionIFvNS4_10unique_ptrIN11grpc_binder6BinderENS4_14default_deleteISE_EEEEEEEEENS1_10StringHashENS1_8StringEqENS8_INS4_4pairIKSA_SJ_EEEEE6resizeEm.cold.2, symObjAddr: 0x309C, symBinAddr: 0x49650, symSize: 0x24 }
  - { offsetInCU: 0x155A9, offset: 0x23B9FB, size: 0x8, addend: 0x0, symName: __ZN4absl12lts_2021110218container_internal18hash_policy_traitsINS1_17FlatHashMapPolicyINSt3__112basic_stringIcNS4_11char_traitsIcEENS4_9allocatorIcEEEENS4_8functionIFvNS4_10unique_ptrIN11grpc_binder6BinderENS4_14default_deleteISE_EEEEEEEEEvE8transferINS8_INS4_4pairIKSA_SJ_EEEEEEvPT_PNS1_13map_slot_typeISA_SJ_EESV_, symObjAddr: 0x25E8, symBinAddr: 0x2503C, symSize: 0x50 }
  - { offsetInCU: 0x158B7, offset: 0x23BD09, size: 0x8, addend: 0x0, symName: __ZN4absl12lts_2021110218container_internal12raw_hash_setINS1_17FlatHashMapPolicyINSt3__112basic_stringIcNS4_11char_traitsIcEENS4_9allocatorIcEEEENS4_8functionIFvNS4_10unique_ptrIN11grpc_binder6BinderENS4_14default_deleteISE_EEEEEEEEENS1_10StringHashENS1_8StringEqENS8_INS4_4pairIKSA_SJ_EEEEE17reset_growth_leftEv, symObjAddr: 0x2680, symBinAddr: 0x250D4, symSize: 0x48 }
  - { offsetInCU: 0x15934, offset: 0x23BD86, size: 0x8, addend: 0x0, symName: __ZNSt3__110__function12__value_funcIFvNS_10unique_ptrIN11grpc_binder6BinderENS_14default_deleteIS4_EEEEEEC2B7v160006EOS9_, symObjAddr: 0x26C8, symBinAddr: 0x2511C, symSize: 0x64 }
  - { offsetInCU: 0x15956, offset: 0x23BDA8, size: 0x8, addend: 0x0, symName: __ZN4absl12lts_2021110218container_internal12raw_hash_setINS1_17FlatHashMapPolicyINSt3__112basic_stringIcNS4_11char_traitsIcEENS4_9allocatorIcEEEENS4_8functionIFvNS4_10unique_ptrIN11grpc_binder6BinderENS4_14default_deleteISE_EEEEEEEEENS1_10StringHashENS1_8StringEqENS8_INS4_4pairIKSA_SJ_EEEEE16initialize_slotsEv.cold.1, symObjAddr: 0x3130, symBinAddr: 0x496E4, symSize: 0x28 }
  - { offsetInCU: 0x1596E, offset: 0x23BDC0, size: 0x8, addend: 0x0, symName: __ZN4absl12lts_2021110218container_internal12raw_hash_setINS1_17FlatHashMapPolicyINSt3__112basic_stringIcNS4_11char_traitsIcEENS4_9allocatorIcEEEENS4_8functionIFvNS4_10unique_ptrIN11grpc_binder6BinderENS4_14default_deleteISE_EEEEEEEEENS1_10StringHashENS1_8StringEqENS8_INS4_4pairIKSA_SJ_EEEEE16initialize_slotsEv.cold.3, symObjAddr: 0x317C, symBinAddr: 0x49730, symSize: 0x24 }
  - { offsetInCU: 0x159B4, offset: 0x23BE06, size: 0x8, addend: 0x0, symName: __ZN4absl12lts_2021110218container_internal12raw_hash_setINS1_17FlatHashMapPolicyINSt3__112basic_stringIcNS4_11char_traitsIcEENS4_9allocatorIcEEEENS4_8functionIFvNS4_10unique_ptrIN11grpc_binder6BinderENS4_14default_deleteISE_EEEEEEEEENS1_10StringHashENS1_8StringEqENS8_INS4_4pairIKSA_SJ_EEEEE16initialize_slotsEv.cold.2, symObjAddr: 0x3158, symBinAddr: 0x4970C, symSize: 0x24 }
  - { offsetInCU: 0x159E3, offset: 0x23BE35, size: 0x8, addend: 0x0, symName: __ZN4absl12lts_2021110218container_internal10DeallocateILm8ENSt3__19allocatorINS3_4pairIKNS3_12basic_stringIcNS3_11char_traitsIcEENS4_IcEEEENS3_8functionIFvNS3_10unique_ptrIN11grpc_binder6BinderENS3_14default_deleteISF_EEEEEEEEEEEEEvPT0_Pvm.cold.1, symObjAddr: 0x31A0, symBinAddr: 0x49754, symSize: 0x28 }
  - { offsetInCU: 0x159FB, offset: 0x23BE4D, size: 0x8, addend: 0x0, symName: __ZN4absl12lts_2021110218container_internal8AllocateILm8ENSt3__19allocatorINS3_4pairIKNS3_12basic_stringIcNS3_11char_traitsIcEENS4_IcEEEENS3_8functionIFvNS3_10unique_ptrIN11grpc_binder6BinderENS3_14default_deleteISF_EEEEEEEEEEEEEPvPT0_m.cold.1, symObjAddr: 0x31C8, symBinAddr: 0x4977C, symSize: 0x28 }
  - { offsetInCU: 0x15A13, offset: 0x23BE65, size: 0x8, addend: 0x0, symName: __ZN4absl12lts_2021110218container_internal8AllocateILm8ENSt3__19allocatorINS3_4pairIKNS3_12basic_stringIcNS3_11char_traitsIcEENS4_IcEEEENS3_8functionIFvNS3_10unique_ptrIN11grpc_binder6BinderENS3_14default_deleteISF_EEEEEEEEEEEEEPvPT0_m.cold.2, symObjAddr: 0x31F0, symBinAddr: 0x497A4, symSize: 0x28 }
  - { offsetInCU: 0x15A41, offset: 0x23BE93, size: 0x8, addend: 0x0, symName: __ZN4absl12lts_2021110218container_internal12raw_hash_setINS1_17FlatHashMapPolicyINSt3__112basic_stringIcNS4_11char_traitsIcEENS4_9allocatorIcEEEENS4_8functionIFvNS4_10unique_ptrIN11grpc_binder6BinderENS4_14default_deleteISE_EEEEEEEEENS1_10StringHashENS1_8StringEqENS8_INS4_4pairIKSA_SJ_EEEEE17reset_growth_leftEv.cold.1, symObjAddr: 0x3218, symBinAddr: 0x497CC, symSize: 0x28 }
  - { offsetInCU: 0x15B6A, offset: 0x23BFBC, size: 0x8, addend: 0x0, symName: __ZN4absl12lts_2021110218container_internal12raw_hash_setINS1_17FlatHashMapPolicyINSt3__112basic_stringIcNS4_11char_traitsIcEENS4_9allocatorIcEEEENS4_8functionIFvNS4_10unique_ptrIN11grpc_binder6BinderENS4_14default_deleteISE_EEEEEEEEENS1_10StringHashENS1_8StringEqENS8_INS4_4pairIKSA_SJ_EEEEE15erase_meta_onlyENSR_14const_iteratorE, symObjAddr: 0x2940, symBinAddr: 0x25348, symSize: 0xC8 }
  - { offsetInCU: 0x15E35, offset: 0x23C287, size: 0x8, addend: 0x0, symName: __ZN11grpc_binder18EndpointBinderPool17GetEndpointBinderENSt3__112basic_stringIcNS1_11char_traitsIcEENS1_9allocatorIcEEEENS1_8functionIFvNS1_10unique_ptrINS_6BinderENS1_14default_deleteISA_EEEEEEE.cold.1, symObjAddr: 0x2A08, symBinAddr: 0x48FBC, symSize: 0x38 }
  - { offsetInCU: 0x15E41, offset: 0x23C293, size: 0x8, addend: 0x0, symName: __ZN4absl12lts_2021110218container_internal12raw_hash_setINS1_17FlatHashMapPolicyINSt3__112basic_stringIcNS4_11char_traitsIcEENS4_9allocatorIcEEEENS4_8functionIFvNS4_10unique_ptrIN11grpc_binder6BinderENS4_14default_deleteISE_EEEEEEEEENS1_10StringHashENS1_8StringEqENS8_INS4_4pairIKSA_SJ_EEEEE5eraseENSR_8iteratorE.cold.1, symObjAddr: 0x3240, symBinAddr: 0x497F4, symSize: 0x24 }
  - { offsetInCU: 0x15E87, offset: 0x23C2D9, size: 0x8, addend: 0x0, symName: __ZN4absl12lts_2021110218container_internal12raw_hash_setINS1_17FlatHashMapPolicyINSt3__112basic_stringIcNS4_11char_traitsIcEENS4_9allocatorIcEEEENS4_8functionIFvNS4_10unique_ptrIN11grpc_binder6BinderENS4_14default_deleteISE_EEEEEEEEENS1_10StringHashENS1_8StringEqENS8_INS4_4pairIKSA_SJ_EEEEE15erase_meta_onlyENSR_14const_iteratorE.cold.2, symObjAddr: 0x3288, symBinAddr: 0x4983C, symSize: 0x28 }
  - { offsetInCU: 0x15E9F, offset: 0x23C2F1, size: 0x8, addend: 0x0, symName: __ZN4absl12lts_2021110218container_internal12raw_hash_setINS1_17FlatHashMapPolicyINSt3__112basic_stringIcNS4_11char_traitsIcEENS4_9allocatorIcEEEENS4_8functionIFvNS4_10unique_ptrIN11grpc_binder6BinderENS4_14default_deleteISE_EEEEEEEEENS1_10StringHashENS1_8StringEqENS8_INS4_4pairIKSA_SJ_EEEEE15erase_meta_onlyENSR_14const_iteratorE.cold.1, symObjAddr: 0x3264, symBinAddr: 0x49818, symSize: 0x24 }
  - { offsetInCU: 0x15ECE, offset: 0x23C320, size: 0x8, addend: 0x0, symName: _OUTLINED_FUNCTION_0, symObjAddr: 0x32B0, symBinAddr: 0x25410, symSize: 0x8 }
  - { offsetInCU: 0x15EE6, offset: 0x23C338, size: 0x8, addend: 0x0, symName: _OUTLINED_FUNCTION_1, symObjAddr: 0x32B8, symBinAddr: 0x25418, symSize: 0x8 }
  - { offsetInCU: 0x15EFE, offset: 0x23C350, size: 0x8, addend: 0x0, symName: _OUTLINED_FUNCTION_2, symObjAddr: 0x32C0, symBinAddr: 0x25420, symSize: 0x8 }
  - { offsetInCU: 0x15F16, offset: 0x23C368, size: 0x8, addend: 0x0, symName: _OUTLINED_FUNCTION_3, symObjAddr: 0x32C8, symBinAddr: 0x25428, symSize: 0x8 }
  - { offsetInCU: 0x15F2E, offset: 0x23C380, size: 0x8, addend: 0x0, symName: _OUTLINED_FUNCTION_4, symObjAddr: 0x32D0, symBinAddr: 0x25430, symSize: 0x8 }
  - { offsetInCU: 0x15F46, offset: 0x23C398, size: 0x8, addend: 0x0, symName: _OUTLINED_FUNCTION_5, symObjAddr: 0x32D8, symBinAddr: 0x25438, symSize: 0x8 }
  - { offsetInCU: 0x11378, offset: 0x24D760, size: 0x8, addend: 0x0, symName: __ZN4grpc8internal30ExternalConnectionAcceptorImplC2ERKNSt3__112basic_stringIcNS2_11char_traitsIcEENS2_9allocatorIcEEEENS_13ServerBuilder17experimental_type22ExternalConnectionTypeENS2_10shared_ptrINS_17ServerCredentialsEEE, symObjAddr: 0x0, symBinAddr: 0x25440, symSize: 0xF8 }
  - { offsetInCU: 0x11701, offset: 0x24DAE9, size: 0x8, addend: 0x0, symName: __ZNSt3__110shared_ptrIN4grpc17ServerCredentialsEED2B7v160006Ev, symObjAddr: 0x604, symBinAddr: 0x25914, symSize: 0x58 }
  - { offsetInCU: 0x11794, offset: 0x24DB7C, size: 0x8, addend: 0x0, symName: __ZN4grpc8internal30ExternalConnectionAcceptorImplC1ERKNSt3__112basic_stringIcNS2_11char_traitsIcEENS2_9allocatorIcEEEENS_13ServerBuilder17experimental_type22ExternalConnectionTypeENS2_10shared_ptrINS_17ServerCredentialsEEE, symObjAddr: 0xF8, symBinAddr: 0x25538, symSize: 0x4 }
  - { offsetInCU: 0x117ED, offset: 0x24DBD5, size: 0x8, addend: 0x0, symName: __ZN4grpc8internal30ExternalConnectionAcceptorImplC1ERKNSt3__112basic_stringIcNS2_11char_traitsIcEENS2_9allocatorIcEEEENS_13ServerBuilder17experimental_type22ExternalConnectionTypeENS2_10shared_ptrINS_17ServerCredentialsEEE, symObjAddr: 0xF8, symBinAddr: 0x25538, symSize: 0x4 }
  - { offsetInCU: 0x11ADE, offset: 0x24DEC6, size: 0x8, addend: 0x0, symName: __ZN4grpc8internal30ExternalConnectionAcceptorImpl11GetAcceptorEv, symObjAddr: 0xFC, symBinAddr: 0x2553C, symSize: 0xE4 }
  - { offsetInCU: 0x11DDA, offset: 0x24E1C2, size: 0x8, addend: 0x0, symName: __ZNSt3__110shared_ptrIN4grpc8internal30ExternalConnectionAcceptorImplEEC2B7v160006IS3_vEERKNS_8weak_ptrIT_EE, symObjAddr: 0x65C, symBinAddr: 0x2596C, symSize: 0x40 }
  - { offsetInCU: 0x11E50, offset: 0x24E238, size: 0x8, addend: 0x0, symName: __ZN4grpc8internal30ExternalConnectionAcceptorImpl19HandleNewConnectionEPNS_12experimental26ExternalConnectionAcceptor23NewConnectionParametersE, symObjAddr: 0x1E0, symBinAddr: 0x25620, symSize: 0xB8 }
  - { offsetInCU: 0x11FF2, offset: 0x24E3DA, size: 0x8, addend: 0x0, symName: __ZN4grpc8internal30ExternalConnectionAcceptorImpl8ShutdownEv, symObjAddr: 0x298, symBinAddr: 0x256D8, symSize: 0x3C }
  - { offsetInCU: 0x120E2, offset: 0x24E4CA, size: 0x8, addend: 0x0, symName: __ZN4grpc8internal30ExternalConnectionAcceptorImpl5StartEv, symObjAddr: 0x2D4, symBinAddr: 0x25714, symSize: 0xC4 }
  - { offsetInCU: 0x122CC, offset: 0x24E6B4, size: 0x8, addend: 0x0, symName: __ZN4grpc8internal30ExternalConnectionAcceptorImpl16SetToChannelArgsEPNS_16ChannelArgumentsE, symObjAddr: 0x398, symBinAddr: 0x257D8, symSize: 0x7C }
  - { offsetInCU: 0x12880, offset: 0x24EC68, size: 0x8, addend: 0x0, symName: __ZN4grpc8internal12_GLOBAL__N_115AcceptorWrapperD1Ev, symObjAddr: 0x420, symBinAddr: 0x25854, symSize: 0x30 }
  - { offsetInCU: 0x128E9, offset: 0x24ECD1, size: 0x8, addend: 0x0, symName: __ZNSt3__110shared_ptrIN4grpc8internal30ExternalConnectionAcceptorImplEED2B7v160006Ev, symObjAddr: 0x5AC, symBinAddr: 0x258BC, symSize: 0x58 }
  - { offsetInCU: 0x12998, offset: 0x24ED80, size: 0x8, addend: 0x0, symName: __ZN4grpc8internal12_GLOBAL__N_115AcceptorWrapperD0Ev, symObjAddr: 0x450, symBinAddr: 0x25884, symSize: 0x30 }
  - { offsetInCU: 0x12A3C, offset: 0x24EE24, size: 0x8, addend: 0x0, symName: __ZN4grpc8internal12_GLOBAL__N_115AcceptorWrapper19HandleNewConnectionEPNS_12experimental26ExternalConnectionAcceptor23NewConnectionParametersE, symObjAddr: 0x480, symBinAddr: 0x258B4, symSize: 0x8 }
  - { offsetInCU: 0x12A72, offset: 0x24EE5A, size: 0x8, addend: 0x0, symName: __ZN4grpc8internal12_GLOBAL__N_115AcceptorWrapper19HandleNewConnectionEPNS_12experimental26ExternalConnectionAcceptor23NewConnectionParametersE, symObjAddr: 0x480, symBinAddr: 0x258B4, symSize: 0x8 }
  - { offsetInCU: 0x26, offset: 0x24F163, size: 0x8, addend: 0x0, symName: __ZN4grpc32DefaultHealthCheckServiceEnabledEv, symObjAddr: 0x0, symBinAddr: 0x259AC, symSize: 0xC }
  - { offsetInCU: 0x47, offset: 0x24F184, size: 0x8, addend: 0x0, symName: __ZN4grpc12_GLOBAL__N_143g_grpc_default_health_check_service_enabledE, symObjAddr: 0xE357, symBinAddr: 0x68C70, symSize: 0x0 }
  - { offsetInCU: 0x63, offset: 0x24F1A0, size: 0x8, addend: 0x0, symName: __ZN4grpc32DefaultHealthCheckServiceEnabledEv, symObjAddr: 0x0, symBinAddr: 0x259AC, symSize: 0xC }
  - { offsetInCU: 0x81, offset: 0x24F1BE, size: 0x8, addend: 0x0, symName: __ZN4grpc31EnableDefaultHealthCheckServiceEb, symObjAddr: 0xC, symBinAddr: 0x259B8, symSize: 0xC }
  - { offsetInCU: 0x26, offset: 0x2532A8, size: 0x8, addend: 0x0, symName: __ZN4grpc37HealthCheckServiceServerBuilderOptionC2ENSt3__110unique_ptrINS_27HealthCheckServiceInterfaceENS1_14default_deleteIS3_EEEE, symObjAddr: 0x0, symBinAddr: 0x259C4, symSize: 0x18 }
  - { offsetInCU: 0x45, offset: 0x2532C7, size: 0x8, addend: 0x0, symName: __ZN4grpcL31kHealthCheckServiceInterfaceArgE, symObjAddr: 0x2C8, symBinAddr: 0x4F763, symSize: 0x0 }
  - { offsetInCU: 0x6200, offset: 0x259482, size: 0x8, addend: 0x0, symName: __ZN4grpc37HealthCheckServiceServerBuilderOptionC2ENSt3__110unique_ptrINS_27HealthCheckServiceInterfaceENS1_14default_deleteIS3_EEEE, symObjAddr: 0x0, symBinAddr: 0x259C4, symSize: 0x18 }
  - { offsetInCU: 0x622B, offset: 0x2594AD, size: 0x8, addend: 0x0, symName: __ZN4grpc37HealthCheckServiceServerBuilderOptionC2ENSt3__110unique_ptrINS_27HealthCheckServiceInterfaceENS1_14default_deleteIS3_EEEE, symObjAddr: 0x0, symBinAddr: 0x259C4, symSize: 0x18 }
  - { offsetInCU: 0x623F, offset: 0x2594C1, size: 0x8, addend: 0x0, symName: __ZN4grpc37HealthCheckServiceServerBuilderOptionC2ENSt3__110unique_ptrINS_27HealthCheckServiceInterfaceENS1_14default_deleteIS3_EEEE, symObjAddr: 0x0, symBinAddr: 0x259C4, symSize: 0x18 }
  - { offsetInCU: 0x6253, offset: 0x2594D5, size: 0x8, addend: 0x0, symName: __ZN4grpc37HealthCheckServiceServerBuilderOptionC2ENSt3__110unique_ptrINS_27HealthCheckServiceInterfaceENS1_14default_deleteIS3_EEEE, symObjAddr: 0x0, symBinAddr: 0x259C4, symSize: 0x18 }
  - { offsetInCU: 0x629E, offset: 0x259520, size: 0x8, addend: 0x0, symName: __ZN4grpc37HealthCheckServiceServerBuilderOptionC1ENSt3__110unique_ptrINS_27HealthCheckServiceInterfaceENS1_14default_deleteIS3_EEEE, symObjAddr: 0x18, symBinAddr: 0x259DC, symSize: 0x18 }
  - { offsetInCU: 0x62DB, offset: 0x25955D, size: 0x8, addend: 0x0, symName: __ZN4grpc37HealthCheckServiceServerBuilderOptionC1ENSt3__110unique_ptrINS_27HealthCheckServiceInterfaceENS1_14default_deleteIS3_EEEE, symObjAddr: 0x18, symBinAddr: 0x259DC, symSize: 0x18 }
  - { offsetInCU: 0x62FE, offset: 0x259580, size: 0x8, addend: 0x0, symName: __ZN4grpc37HealthCheckServiceServerBuilderOptionC1ENSt3__110unique_ptrINS_27HealthCheckServiceInterfaceENS1_14default_deleteIS3_EEEE, symObjAddr: 0x18, symBinAddr: 0x259DC, symSize: 0x18 }
