---
triple:          'arm64-apple-darwin'
binary-path:     '/Users/saadbhati/Downloads/Alghurfah/build/ios/Release-iphoneos/abseil/absl.framework/absl'
relocations:
  - { offsetInCU: 0x33, offset: 0x33, size: 0x8, addend: 0x0, symName: _abslVersionString, symObjAddr: 0x0, symBinAddr: 0x58170, symSize: 0x0 }
  - { offsetInCU: 0x67, offset: 0x67, size: 0x8, addend: 0x0, symName: _abslVersionNumber, symObjAddr: 0x28, symBinAddr: 0x58198, symSize: 0x0 }
  - { offsetInCU: 0x26, offset: 0xA2, size: 0x8, addend: 0x0, symName: __ZN4absl12lts_2021110218debugging_internal17AddressIsReadableEPKv, symObjAddr: 0x0, symBinAddr: 0x4000, symSize: 0x8 }
  - { offsetInCU: 0xB0, offset: 0x12C, size: 0x8, addend: 0x0, symName: __ZN4absl12lts_2021110218debugging_internal17AddressIsReadableEPKv, symObjAddr: 0x0, symBinAddr: 0x4000, symSize: 0x8 }
  - { offsetInCU: 0x26, offset: 0x18B, size: 0x8, addend: 0x0, symName: __ZN4absl12lts_2021110219str_format_internal13FormatArgImpl8DispatchINS1_7VoidPtrEEEbNS2_4DataENS1_24FormatConversionSpecImplEPv, symObjAddr: 0x0, symBinAddr: 0x4008, symSize: 0x34 }
  - { offsetInCU: 0x1047, offset: 0x11AC, size: 0x8, addend: 0x0, symName: __ZN4absl12lts_2021110219str_format_internal12_GLOBAL__N_123ConvertIntImplInnerSlowERKNS2_9IntDigitsENS1_24FormatConversionSpecImplEPNS1_14FormatSinkImplE, symObjAddr: 0x2248, symBinAddr: 0x6250, symSize: 0x244 }
  - { offsetInCU: 0x13F9, offset: 0x155E, size: 0x8, addend: 0x0, symName: __ZN4absl12lts_2021110219str_format_internal12_GLOBAL__N_115ConvertCharImplEhNS1_24FormatConversionSpecImplEPNS1_14FormatSinkImplE, symObjAddr: 0x25A4, symBinAddr: 0x65AC, symSize: 0x7C }
  - { offsetInCU: 0x19FB, offset: 0x1B60, size: 0x8, addend: 0x0, symName: __ZN4absl12lts_2021110219str_format_internal17FormatConvertImplENS1_7VoidPtrENS1_24FormatConversionSpecImplEPNS1_14FormatSinkImplE, symObjAddr: 0x34, symBinAddr: 0x403C, symSize: 0xC0 }
  - { offsetInCU: 0x1B51, offset: 0x1CB6, size: 0x8, addend: 0x0, symName: __ZN4absl12lts_2021110219str_format_internal17FormatConvertImplEiNS1_24FormatConversionSpecImplEPNS1_14FormatSinkImplE, symObjAddr: 0xC44, symBinAddr: 0x4C4C, symSize: 0x1E0 }
  - { offsetInCU: 0x1E0E, offset: 0x1F73, size: 0x8, addend: 0x0, symName: __ZN4absl12lts_2021110219str_format_internal13FormatArgImpl8DispatchIjEEbNS2_4DataENS1_24FormatConversionSpecImplEPv, symObjAddr: 0xE24, symBinAddr: 0x4E2C, symSize: 0x60 }
  - { offsetInCU: 0x1E18, offset: 0x1F7D, size: 0x8, addend: 0x0, symName: __ZN4absl12lts_2021110219str_format_internal17FormatConvertImplEcNS1_24FormatConversionSpecImplEPNS1_14FormatSinkImplE, symObjAddr: 0x1AC, symBinAddr: 0x41B4, symSize: 0x1C4 }
  - { offsetInCU: 0x20DC, offset: 0x2241, size: 0x8, addend: 0x0, symName: __ZN4absl12lts_2021110219str_format_internal13FormatArgImpl8DispatchIaEEbNS2_4DataENS1_24FormatConversionSpecImplEPv, symObjAddr: 0x370, symBinAddr: 0x4378, symSize: 0x5C }
  - { offsetInCU: 0x2105, offset: 0x226A, size: 0x8, addend: 0x0, symName: __ZN4absl12lts_2021110219str_format_internal17FormatConvertImplEaNS1_24FormatConversionSpecImplEPNS1_14FormatSinkImplE, symObjAddr: 0x3CC, symBinAddr: 0x43D4, symSize: 0x1C4 }
  - { offsetInCU: 0x23C9, offset: 0x252E, size: 0x8, addend: 0x0, symName: __ZN4absl12lts_2021110219str_format_internal13FormatArgImpl8DispatchIhEEbNS2_4DataENS1_24FormatConversionSpecImplEPv, symObjAddr: 0x590, symBinAddr: 0x4598, symSize: 0x5C }
  - { offsetInCU: 0x23D3, offset: 0x2538, size: 0x8, addend: 0x0, symName: __ZN4absl12lts_2021110219str_format_internal17FormatConvertImplEhNS1_24FormatConversionSpecImplEPNS1_14FormatSinkImplE, symObjAddr: 0x5EC, symBinAddr: 0x45F4, symSize: 0x1A8 }
  - { offsetInCU: 0x2628, offset: 0x278D, size: 0x8, addend: 0x0, symName: __ZN4absl12lts_2021110219str_format_internal13FormatArgImpl8DispatchIsEEbNS2_4DataENS1_24FormatConversionSpecImplEPv, symObjAddr: 0x794, symBinAddr: 0x479C, symSize: 0x5C }
  - { offsetInCU: 0x2632, offset: 0x2797, size: 0x8, addend: 0x0, symName: __ZN4absl12lts_2021110219str_format_internal17FormatConvertImplEsNS1_24FormatConversionSpecImplEPNS1_14FormatSinkImplE, symObjAddr: 0x7F0, symBinAddr: 0x47F8, symSize: 0x1DC }
  - { offsetInCU: 0x28F6, offset: 0x2A5B, size: 0x8, addend: 0x0, symName: __ZN4absl12lts_2021110219str_format_internal13FormatArgImpl8DispatchItEEbNS2_4DataENS1_24FormatConversionSpecImplEPv, symObjAddr: 0x9CC, symBinAddr: 0x49D4, symSize: 0x5C }
  - { offsetInCU: 0x2900, offset: 0x2A65, size: 0x8, addend: 0x0, symName: __ZN4absl12lts_2021110219str_format_internal17FormatConvertImplEtNS1_24FormatConversionSpecImplEPNS1_14FormatSinkImplE, symObjAddr: 0xA28, symBinAddr: 0x4A30, symSize: 0x1C8 }
  - { offsetInCU: 0x2B55, offset: 0x2CBA, size: 0x8, addend: 0x0, symName: __ZN4absl12lts_2021110219str_format_internal13FormatArgImpl8DispatchIiEEbNS2_4DataENS1_24FormatConversionSpecImplEPv, symObjAddr: 0xBF0, symBinAddr: 0x4BF8, symSize: 0x54 }
  - { offsetInCU: 0x2B5F, offset: 0x2CC4, size: 0x8, addend: 0x0, symName: __ZN4absl12lts_2021110219str_format_internal17FormatConvertImplEjNS1_24FormatConversionSpecImplEPNS1_14FormatSinkImplE, symObjAddr: 0xE84, symBinAddr: 0x4E8C, symSize: 0x1C8 }
  - { offsetInCU: 0x2DBA, offset: 0x2F1F, size: 0x8, addend: 0x0, symName: __ZN4absl12lts_2021110219str_format_internal13FormatArgImpl8DispatchIlEEbNS2_4DataENS1_24FormatConversionSpecImplEPv, symObjAddr: 0x104C, symBinAddr: 0x5054, symSize: 0x6C }
  - { offsetInCU: 0x2DC4, offset: 0x2F29, size: 0x8, addend: 0x0, symName: __ZN4absl12lts_2021110219str_format_internal17FormatConvertImplElNS1_24FormatConversionSpecImplEPNS1_14FormatSinkImplE, symObjAddr: 0x10B8, symBinAddr: 0x50C0, symSize: 0x1E0 }
  - { offsetInCU: 0x30C9, offset: 0x322E, size: 0x8, addend: 0x0, symName: __ZN4absl12lts_2021110219str_format_internal13FormatArgImpl8DispatchImEEbNS2_4DataENS1_24FormatConversionSpecImplEPv, symObjAddr: 0x1298, symBinAddr: 0x52A0, symSize: 0x60 }
  - { offsetInCU: 0x30D3, offset: 0x3238, size: 0x8, addend: 0x0, symName: __ZN4absl12lts_2021110219str_format_internal17FormatConvertImplEmNS1_24FormatConversionSpecImplEPNS1_14FormatSinkImplE, symObjAddr: 0x12F8, symBinAddr: 0x5300, symSize: 0x1C8 }
  - { offsetInCU: 0x332E, offset: 0x3493, size: 0x8, addend: 0x0, symName: __ZN4absl12lts_2021110219str_format_internal13FormatArgImpl8DispatchIxEEbNS2_4DataENS1_24FormatConversionSpecImplEPv, symObjAddr: 0x14C0, symBinAddr: 0x54C8, symSize: 0x6C }
  - { offsetInCU: 0x3338, offset: 0x349D, size: 0x8, addend: 0x0, symName: __ZN4absl12lts_2021110219str_format_internal17FormatConvertImplExNS1_24FormatConversionSpecImplEPNS1_14FormatSinkImplE, symObjAddr: 0x152C, symBinAddr: 0x5534, symSize: 0x1E0 }
  - { offsetInCU: 0x35F5, offset: 0x375A, size: 0x8, addend: 0x0, symName: __ZN4absl12lts_2021110219str_format_internal13FormatArgImpl8DispatchIyEEbNS2_4DataENS1_24FormatConversionSpecImplEPv, symObjAddr: 0x170C, symBinAddr: 0x5714, symSize: 0x60 }
  - { offsetInCU: 0x35FF, offset: 0x3764, size: 0x8, addend: 0x0, symName: __ZN4absl12lts_2021110219str_format_internal17FormatConvertImplEyNS1_24FormatConversionSpecImplEPNS1_14FormatSinkImplE, symObjAddr: 0x176C, symBinAddr: 0x5774, symSize: 0x1C8 }
  - { offsetInCU: 0x385A, offset: 0x39BF, size: 0x8, addend: 0x0, symName: __ZN4absl12lts_2021110219str_format_internal13FormatArgImpl8DispatchINS0_6int128EEEbNS2_4DataENS1_24FormatConversionSpecImplEPv, symObjAddr: 0x1934, symBinAddr: 0x593C, symSize: 0x58 }
  - { offsetInCU: 0x3864, offset: 0x39C9, size: 0x8, addend: 0x0, symName: __ZN4absl12lts_2021110219str_format_internal17FormatConvertImplENS0_6int128ENS1_24FormatConversionSpecImplEPNS1_14FormatSinkImplE, symObjAddr: 0x198C, symBinAddr: 0x5994, symSize: 0x1D8 }
  - { offsetInCU: 0x3B69, offset: 0x3CCE, size: 0x8, addend: 0x0, symName: __ZN4absl12lts_2021110219str_format_internal13FormatArgImpl8DispatchINS0_7uint128EEEbNS2_4DataENS1_24FormatConversionSpecImplEPv, symObjAddr: 0x1B64, symBinAddr: 0x5B6C, symSize: 0x58 }
  - { offsetInCU: 0x3B73, offset: 0x3CD8, size: 0x8, addend: 0x0, symName: __ZN4absl12lts_2021110219str_format_internal17FormatConvertImplENS0_7uint128ENS1_24FormatConversionSpecImplEPNS1_14FormatSinkImplE, symObjAddr: 0x1BBC, symBinAddr: 0x5BC4, symSize: 0x1C0 }
  - { offsetInCU: 0x3E4A, offset: 0x3FAF, size: 0x8, addend: 0x0, symName: __ZN4absl12lts_2021110219str_format_internal13FormatArgImpl8DispatchIfEEbNS2_4DataENS1_24FormatConversionSpecImplEPv, symObjAddr: 0x1D7C, symBinAddr: 0x5D84, symSize: 0x68 }
  - { offsetInCU: 0x3EC5, offset: 0x402A, size: 0x8, addend: 0x0, symName: __ZN4absl12lts_2021110219str_format_internal17FormatConvertImplEfNS1_24FormatConversionSpecImplEPNS1_14FormatSinkImplE, symObjAddr: 0x1DE4, symBinAddr: 0x5DEC, symSize: 0x40 }
  - { offsetInCU: 0x3F7B, offset: 0x40E0, size: 0x8, addend: 0x0, symName: __ZN4absl12lts_2021110219str_format_internal17FormatConvertImplEdNS1_24FormatConversionSpecImplEPNS1_14FormatSinkImplE, symObjAddr: 0x1E8C, symBinAddr: 0x5E94, symSize: 0x40 }
  - { offsetInCU: 0x4050, offset: 0x41B5, size: 0x8, addend: 0x0, symName: __ZN4absl12lts_2021110219str_format_internal17FormatConvertImplEeNS1_24FormatConversionSpecImplEPNS1_14FormatSinkImplE, symObjAddr: 0x1F34, symBinAddr: 0x5F3C, symSize: 0x40 }
  - { offsetInCU: 0x40D0, offset: 0x4235, size: 0x8, addend: 0x0, symName: __ZN4absl12lts_2021110219str_format_internal17FormatConvertImplEPKcNS1_24FormatConversionSpecImplEPNS1_14FormatSinkImplE, symObjAddr: 0x1FB8, symBinAddr: 0x5FC0, symSize: 0xE4 }
  - { offsetInCU: 0x4256, offset: 0x43BB, size: 0x8, addend: 0x0, symName: __ZN4absl12lts_2021110219str_format_internal13FormatArgImpl8DispatchINSt3__112basic_stringIcNS4_11char_traitsIcEENS4_9allocatorIcEEEEEEbNS2_4DataENS1_24FormatConversionSpecImplEPv, symObjAddr: 0x209C, symBinAddr: 0x60A4, symSize: 0x30 }
  - { offsetInCU: 0x4287, offset: 0x43EC, size: 0x8, addend: 0x0, symName: __ZN4absl12lts_2021110219str_format_internal17FormatConvertImplERKNSt3__112basic_stringIcNS2_11char_traitsIcEENS2_9allocatorIcEEEENS1_24FormatConversionSpecImplEPNS1_14FormatSinkImplE, symObjAddr: 0x20CC, symBinAddr: 0x60D4, symSize: 0x60 }
  - { offsetInCU: 0x43A7, offset: 0x450C, size: 0x8, addend: 0x0, symName: __ZN4absl12lts_2021110219str_format_internal17FormatConvertImplENS0_11string_viewENS1_24FormatConversionSpecImplEPNS1_14FormatSinkImplE, symObjAddr: 0x2170, symBinAddr: 0x6178, symSize: 0x50 }
  - { offsetInCU: 0xAEFA, offset: 0xB05F, size: 0x8, addend: 0x0, symName: __ZN4absl12lts_2021110219str_format_internal13FormatArgImpl8DispatchINS1_7VoidPtrEEEbNS2_4DataENS1_24FormatConversionSpecImplEPv, symObjAddr: 0x0, symBinAddr: 0x4008, symSize: 0x34 }
  - { offsetInCU: 0xAFBD, offset: 0xB122, size: 0x8, addend: 0x0, symName: __ZN4absl12lts_2021110219str_format_internal14FormatSinkImpl6AppendENS0_11string_viewE, symObjAddr: 0x21C0, symBinAddr: 0x61C8, symSize: 0x88 }
  - { offsetInCU: 0xB0A4, offset: 0xB209, size: 0x8, addend: 0x0, symName: __ZN4absl12lts_2021110219str_format_internal13FormatArgImpl8DispatchIbEEbNS2_4DataENS1_24FormatConversionSpecImplEPv, symObjAddr: 0xF4, symBinAddr: 0x40FC, symSize: 0x5C }
  - { offsetInCU: 0xB1D6, offset: 0xB33B, size: 0x8, addend: 0x0, symName: __ZN4absl12lts_2021110219str_format_internal13FormatArgImpl8DispatchIcEEbNS2_4DataENS1_24FormatConversionSpecImplEPv, symObjAddr: 0x150, symBinAddr: 0x4158, symSize: 0x5C }
  - { offsetInCU: 0xB4AD, offset: 0xB612, size: 0x8, addend: 0x0, symName: __ZN4absl12lts_2021110219str_format_internal17FormatConvertImplEcNS1_24FormatConversionSpecImplEPNS1_14FormatSinkImplE.cold.2, symObjAddr: 0x2744, symBinAddr: 0x4F070, symSize: 0x24 }
  - { offsetInCU: 0xB546, offset: 0xB6AB, size: 0x8, addend: 0x0, symName: __ZN4absl12lts_2021110219str_format_internal17FormatConvertImplEcNS1_24FormatConversionSpecImplEPNS1_14FormatSinkImplE.cold.1, symObjAddr: 0x2720, symBinAddr: 0x4F04C, symSize: 0x24 }
  - { offsetInCU: 0xB5CC, offset: 0xB731, size: 0x8, addend: 0x0, symName: __ZN4absl12lts_2021110219str_format_internal13FormatArgImpl8DispatchIaEEbNS2_4DataENS1_24FormatConversionSpecImplEPv, symObjAddr: 0x370, symBinAddr: 0x4378, symSize: 0x5C }
  - { offsetInCU: 0xB6BF, offset: 0xB824, size: 0x8, addend: 0x0, symName: __ZN4absl12lts_2021110219str_format_internal17FormatConvertImplEaNS1_24FormatConversionSpecImplEPNS1_14FormatSinkImplE.cold.2, symObjAddr: 0x278C, symBinAddr: 0x4F0B8, symSize: 0x24 }
  - { offsetInCU: 0xB758, offset: 0xB8BD, size: 0x8, addend: 0x0, symName: __ZN4absl12lts_2021110219str_format_internal17FormatConvertImplEaNS1_24FormatConversionSpecImplEPNS1_14FormatSinkImplE.cold.1, symObjAddr: 0x2768, symBinAddr: 0x4F094, symSize: 0x24 }
  - { offsetInCU: 0xB7DE, offset: 0xB943, size: 0x8, addend: 0x0, symName: __ZN4absl12lts_2021110219str_format_internal13FormatArgImpl8DispatchIhEEbNS2_4DataENS1_24FormatConversionSpecImplEPv, symObjAddr: 0x590, symBinAddr: 0x4598, symSize: 0x5C }
  - { offsetInCU: 0xB8A7, offset: 0xBA0C, size: 0x8, addend: 0x0, symName: __ZN4absl12lts_2021110219str_format_internal17FormatConvertImplEhNS1_24FormatConversionSpecImplEPNS1_14FormatSinkImplE.cold.2, symObjAddr: 0x27D4, symBinAddr: 0x4F100, symSize: 0x24 }
  - { offsetInCU: 0xB940, offset: 0xBAA5, size: 0x8, addend: 0x0, symName: __ZN4absl12lts_2021110219str_format_internal17FormatConvertImplEhNS1_24FormatConversionSpecImplEPNS1_14FormatSinkImplE.cold.1, symObjAddr: 0x27B0, symBinAddr: 0x4F0DC, symSize: 0x24 }
  - { offsetInCU: 0xB9C6, offset: 0xBB2B, size: 0x8, addend: 0x0, symName: __ZN4absl12lts_2021110219str_format_internal13FormatArgImpl8DispatchIsEEbNS2_4DataENS1_24FormatConversionSpecImplEPv, symObjAddr: 0x794, symBinAddr: 0x479C, symSize: 0x5C }
  - { offsetInCU: 0xBB90, offset: 0xBCF5, size: 0x8, addend: 0x0, symName: __ZN4absl12lts_2021110219str_format_internal17FormatConvertImplEsNS1_24FormatConversionSpecImplEPNS1_14FormatSinkImplE.cold.2, symObjAddr: 0x281C, symBinAddr: 0x4F148, symSize: 0x24 }
  - { offsetInCU: 0xBC29, offset: 0xBD8E, size: 0x8, addend: 0x0, symName: __ZN4absl12lts_2021110219str_format_internal17FormatConvertImplEsNS1_24FormatConversionSpecImplEPNS1_14FormatSinkImplE.cold.1, symObjAddr: 0x27F8, symBinAddr: 0x4F124, symSize: 0x24 }
  - { offsetInCU: 0xBCAF, offset: 0xBE14, size: 0x8, addend: 0x0, symName: __ZN4absl12lts_2021110219str_format_internal13FormatArgImpl8DispatchItEEbNS2_4DataENS1_24FormatConversionSpecImplEPv, symObjAddr: 0x9CC, symBinAddr: 0x49D4, symSize: 0x5C }
  - { offsetInCU: 0xBD78, offset: 0xBEDD, size: 0x8, addend: 0x0, symName: __ZN4absl12lts_2021110219str_format_internal17FormatConvertImplEtNS1_24FormatConversionSpecImplEPNS1_14FormatSinkImplE.cold.2, symObjAddr: 0x2864, symBinAddr: 0x4F190, symSize: 0x24 }
  - { offsetInCU: 0xBE11, offset: 0xBF76, size: 0x8, addend: 0x0, symName: __ZN4absl12lts_2021110219str_format_internal17FormatConvertImplEtNS1_24FormatConversionSpecImplEPNS1_14FormatSinkImplE.cold.1, symObjAddr: 0x2840, symBinAddr: 0x4F16C, symSize: 0x24 }
  - { offsetInCU: 0xBE7A, offset: 0xBFDF, size: 0x8, addend: 0x0, symName: __ZN4absl12lts_2021110219str_format_internal13FormatArgImpl8DispatchIiEEbNS2_4DataENS1_24FormatConversionSpecImplEPv, symObjAddr: 0xBF0, symBinAddr: 0x4BF8, symSize: 0x54 }
  - { offsetInCU: 0xC02F, offset: 0xC194, size: 0x8, addend: 0x0, symName: __ZN4absl12lts_2021110219str_format_internal17FormatConvertImplEiNS1_24FormatConversionSpecImplEPNS1_14FormatSinkImplE.cold.2, symObjAddr: 0x28AC, symBinAddr: 0x4F1D8, symSize: 0x24 }
  - { offsetInCU: 0xC0C8, offset: 0xC22D, size: 0x8, addend: 0x0, symName: __ZN4absl12lts_2021110219str_format_internal17FormatConvertImplEiNS1_24FormatConversionSpecImplEPNS1_14FormatSinkImplE.cold.1, symObjAddr: 0x2888, symBinAddr: 0x4F1B4, symSize: 0x24 }
  - { offsetInCU: 0xC14E, offset: 0xC2B3, size: 0x8, addend: 0x0, symName: __ZN4absl12lts_2021110219str_format_internal13FormatArgImpl8DispatchIjEEbNS2_4DataENS1_24FormatConversionSpecImplEPv, symObjAddr: 0xE24, symBinAddr: 0x4E2C, symSize: 0x60 }
  - { offsetInCU: 0xC217, offset: 0xC37C, size: 0x8, addend: 0x0, symName: __ZN4absl12lts_2021110219str_format_internal17FormatConvertImplEjNS1_24FormatConversionSpecImplEPNS1_14FormatSinkImplE.cold.2, symObjAddr: 0x28F4, symBinAddr: 0x4F220, symSize: 0x24 }
  - { offsetInCU: 0xC2B0, offset: 0xC415, size: 0x8, addend: 0x0, symName: __ZN4absl12lts_2021110219str_format_internal17FormatConvertImplEjNS1_24FormatConversionSpecImplEPNS1_14FormatSinkImplE.cold.1, symObjAddr: 0x28D0, symBinAddr: 0x4F1FC, symSize: 0x24 }
  - { offsetInCU: 0xC336, offset: 0xC49B, size: 0x8, addend: 0x0, symName: __ZN4absl12lts_2021110219str_format_internal13FormatArgImpl8DispatchIlEEbNS2_4DataENS1_24FormatConversionSpecImplEPv, symObjAddr: 0x104C, symBinAddr: 0x5054, symSize: 0x6C }
  - { offsetInCU: 0xC4BD, offset: 0xC622, size: 0x8, addend: 0x0, symName: __ZN4absl12lts_2021110219str_format_internal17FormatConvertImplElNS1_24FormatConversionSpecImplEPNS1_14FormatSinkImplE.cold.2, symObjAddr: 0x293C, symBinAddr: 0x4F268, symSize: 0x24 }
  - { offsetInCU: 0xC556, offset: 0xC6BB, size: 0x8, addend: 0x0, symName: __ZN4absl12lts_2021110219str_format_internal17FormatConvertImplElNS1_24FormatConversionSpecImplEPNS1_14FormatSinkImplE.cold.1, symObjAddr: 0x2918, symBinAddr: 0x4F244, symSize: 0x24 }
  - { offsetInCU: 0xC5DC, offset: 0xC741, size: 0x8, addend: 0x0, symName: __ZN4absl12lts_2021110219str_format_internal13FormatArgImpl8DispatchImEEbNS2_4DataENS1_24FormatConversionSpecImplEPv, symObjAddr: 0x1298, symBinAddr: 0x52A0, symSize: 0x60 }
  - { offsetInCU: 0xC6A5, offset: 0xC80A, size: 0x8, addend: 0x0, symName: __ZN4absl12lts_2021110219str_format_internal17FormatConvertImplEmNS1_24FormatConversionSpecImplEPNS1_14FormatSinkImplE.cold.2, symObjAddr: 0x2984, symBinAddr: 0x4F2B0, symSize: 0x24 }
  - { offsetInCU: 0xC73E, offset: 0xC8A3, size: 0x8, addend: 0x0, symName: __ZN4absl12lts_2021110219str_format_internal17FormatConvertImplEmNS1_24FormatConversionSpecImplEPNS1_14FormatSinkImplE.cold.1, symObjAddr: 0x2960, symBinAddr: 0x4F28C, symSize: 0x24 }
  - { offsetInCU: 0xC7C4, offset: 0xC929, size: 0x8, addend: 0x0, symName: __ZN4absl12lts_2021110219str_format_internal13FormatArgImpl8DispatchIxEEbNS2_4DataENS1_24FormatConversionSpecImplEPv, symObjAddr: 0x14C0, symBinAddr: 0x54C8, symSize: 0x6C }
  - { offsetInCU: 0xC98E, offset: 0xCAF3, size: 0x8, addend: 0x0, symName: __ZN4absl12lts_2021110219str_format_internal17FormatConvertImplExNS1_24FormatConversionSpecImplEPNS1_14FormatSinkImplE.cold.2, symObjAddr: 0x29CC, symBinAddr: 0x4F2F8, symSize: 0x24 }
  - { offsetInCU: 0xCA27, offset: 0xCB8C, size: 0x8, addend: 0x0, symName: __ZN4absl12lts_2021110219str_format_internal17FormatConvertImplExNS1_24FormatConversionSpecImplEPNS1_14FormatSinkImplE.cold.1, symObjAddr: 0x29A8, symBinAddr: 0x4F2D4, symSize: 0x24 }
  - { offsetInCU: 0xCAAD, offset: 0xCC12, size: 0x8, addend: 0x0, symName: __ZN4absl12lts_2021110219str_format_internal13FormatArgImpl8DispatchIyEEbNS2_4DataENS1_24FormatConversionSpecImplEPv, symObjAddr: 0x170C, symBinAddr: 0x5714, symSize: 0x60 }
  - { offsetInCU: 0xCB76, offset: 0xCCDB, size: 0x8, addend: 0x0, symName: __ZN4absl12lts_2021110219str_format_internal17FormatConvertImplEyNS1_24FormatConversionSpecImplEPNS1_14FormatSinkImplE.cold.2, symObjAddr: 0x2A14, symBinAddr: 0x4F340, symSize: 0x24 }
  - { offsetInCU: 0xCC0F, offset: 0xCD74, size: 0x8, addend: 0x0, symName: __ZN4absl12lts_2021110219str_format_internal17FormatConvertImplEyNS1_24FormatConversionSpecImplEPNS1_14FormatSinkImplE.cold.1, symObjAddr: 0x29F0, symBinAddr: 0x4F31C, symSize: 0x24 }
  - { offsetInCU: 0xCC3D, offset: 0xCDA2, size: 0x8, addend: 0x0, symName: __ZN4absl12lts_2021110219str_format_internal13FormatArgImpl8DispatchINS0_6int128EEEbNS2_4DataENS1_24FormatConversionSpecImplEPv, symObjAddr: 0x1934, symBinAddr: 0x593C, symSize: 0x58 }
  - { offsetInCU: 0xCDC5, offset: 0xCF2A, size: 0x8, addend: 0x0, symName: __ZN4absl12lts_2021110219str_format_internal12_GLOBAL__N_19IntDigits10PrintAsDecENS0_7uint128Eb, symObjAddr: 0x2678, symBinAddr: 0x6680, symSize: 0xA8 }
  - { offsetInCU: 0xCE97, offset: 0xCFFC, size: 0x8, addend: 0x0, symName: __ZN4absl12lts_2021110219str_format_internal12_GLOBAL__N_19IntDigits15PrintAsHexLowerINS0_7uint128EEEvT_, symObjAddr: 0x2620, symBinAddr: 0x6628, symSize: 0x58 }
  - { offsetInCU: 0xCF4B, offset: 0xD0B0, size: 0x8, addend: 0x0, symName: __ZN4absl12lts_2021110219str_format_internal17FormatConvertImplENS0_6int128ENS1_24FormatConversionSpecImplEPNS1_14FormatSinkImplE.cold.2, symObjAddr: 0x2A5C, symBinAddr: 0x4F388, symSize: 0x24 }
  - { offsetInCU: 0xCFE4, offset: 0xD149, size: 0x8, addend: 0x0, symName: __ZN4absl12lts_2021110219str_format_internal17FormatConvertImplENS0_6int128ENS1_24FormatConversionSpecImplEPNS1_14FormatSinkImplE.cold.1, symObjAddr: 0x2A38, symBinAddr: 0x4F364, symSize: 0x24 }
  - { offsetInCU: 0xD012, offset: 0xD177, size: 0x8, addend: 0x0, symName: __ZN4absl12lts_2021110219str_format_internal13FormatArgImpl8DispatchINS0_7uint128EEEbNS2_4DataENS1_24FormatConversionSpecImplEPv, symObjAddr: 0x1B64, symBinAddr: 0x5B6C, symSize: 0x58 }
  - { offsetInCU: 0xD0B8, offset: 0xD21D, size: 0x8, addend: 0x0, symName: __ZN4absl12lts_2021110219str_format_internal17FormatConvertImplENS0_7uint128ENS1_24FormatConversionSpecImplEPNS1_14FormatSinkImplE.cold.2, symObjAddr: 0x2AA4, symBinAddr: 0x4F3D0, symSize: 0x24 }
  - { offsetInCU: 0xD151, offset: 0xD2B6, size: 0x8, addend: 0x0, symName: __ZN4absl12lts_2021110219str_format_internal17FormatConvertImplENS0_7uint128ENS1_24FormatConversionSpecImplEPNS1_14FormatSinkImplE.cold.1, symObjAddr: 0x2A80, symBinAddr: 0x4F3AC, symSize: 0x24 }
  - { offsetInCU: 0xD1A9, offset: 0xD30E, size: 0x8, addend: 0x0, symName: __ZN4absl12lts_2021110219str_format_internal13FormatArgImpl8DispatchIfEEbNS2_4DataENS1_24FormatConversionSpecImplEPv, symObjAddr: 0x1D7C, symBinAddr: 0x5D84, symSize: 0x68 }
  - { offsetInCU: 0xD307, offset: 0xD46C, size: 0x8, addend: 0x0, symName: __ZN4absl12lts_2021110219str_format_internal13FormatArgImpl8DispatchIdEEbNS2_4DataENS1_24FormatConversionSpecImplEPv, symObjAddr: 0x1E24, symBinAddr: 0x5E2C, symSize: 0x68 }
  - { offsetInCU: 0xD467, offset: 0xD5CC, size: 0x8, addend: 0x0, symName: __ZN4absl12lts_2021110219str_format_internal13FormatArgImpl8DispatchIeEEbNS2_4DataENS1_24FormatConversionSpecImplEPv, symObjAddr: 0x1ECC, symBinAddr: 0x5ED4, symSize: 0x68 }
  - { offsetInCU: 0xD59D, offset: 0xD702, size: 0x8, addend: 0x0, symName: __ZN4absl12lts_2021110219str_format_internal13FormatArgImpl8DispatchIPKcEEbNS2_4DataENS1_24FormatConversionSpecImplEPv, symObjAddr: 0x1F74, symBinAddr: 0x5F7C, symSize: 0x44 }
  - { offsetInCU: 0xD641, offset: 0xD7A6, size: 0x8, addend: 0x0, symName: __ZN4absl12lts_2021110219str_format_internal17FormatConvertImplEPKcNS1_24FormatConversionSpecImplEPNS1_14FormatSinkImplE.cold.1, symObjAddr: 0x2AC8, symBinAddr: 0x4F3F4, symSize: 0x24 }
  - { offsetInCU: 0xD6AF, offset: 0xD814, size: 0x8, addend: 0x0, symName: __ZN4absl12lts_2021110219str_format_internal13FormatArgImpl8DispatchINSt3__112basic_stringIcNS4_11char_traitsIcEENS4_9allocatorIcEEEEEEbNS2_4DataENS1_24FormatConversionSpecImplEPv, symObjAddr: 0x209C, symBinAddr: 0x60A4, symSize: 0x30 }
  - { offsetInCU: 0xD77A, offset: 0xD8DF, size: 0x8, addend: 0x0, symName: __ZN4absl12lts_2021110219str_format_internal13FormatArgImpl8DispatchINS0_11string_viewEEEbNS2_4DataENS1_24FormatConversionSpecImplEPv, symObjAddr: 0x212C, symBinAddr: 0x6134, symSize: 0x44 }
  - { offsetInCU: 0xD816, offset: 0xD97B, size: 0x8, addend: 0x0, symName: __ZN4absl12lts_2021110219str_format_internal14FormatSinkImpl5FlushEv, symObjAddr: 0x248C, symBinAddr: 0x6494, symSize: 0x40 }
  - { offsetInCU: 0xD8D7, offset: 0xDA3C, size: 0x8, addend: 0x0, symName: __ZNK4absl12lts_2021110219str_format_internal12_GLOBAL__N_19IntDigits19without_neg_or_zeroEv, symObjAddr: 0x24CC, symBinAddr: 0x64D4, symSize: 0x30 }
  - { offsetInCU: 0xD902, offset: 0xDA67, size: 0x8, addend: 0x0, symName: __ZNK4absl12lts_2021110219str_format_internal12_GLOBAL__N_19IntDigits19without_neg_or_zeroEv, symObjAddr: 0x24CC, symBinAddr: 0x64D4, symSize: 0x30 }
  - { offsetInCU: 0xD9A3, offset: 0xDB08, size: 0x8, addend: 0x0, symName: __ZN4absl12lts_2021110219str_format_internal14FormatSinkImpl6AppendEmc, symObjAddr: 0x24FC, symBinAddr: 0x6504, symSize: 0xA8 }
  - { offsetInCU: 0xD9AE, offset: 0xDB13, size: 0x8, addend: 0x0, symName: __ZN4absl12lts_2021110219str_format_internal14FormatSinkImpl6AppendEmc, symObjAddr: 0x24FC, symBinAddr: 0x6504, symSize: 0xA8 }
  - { offsetInCU: 0xDA98, offset: 0xDBFD, size: 0x8, addend: 0x0, symName: __ZN4absl12lts_2021110219str_format_internal14FormatSinkImpl5FlushEv.cold.1, symObjAddr: 0x2AEC, symBinAddr: 0x4F418, symSize: 0x24 }
  - { offsetInCU: 0xDB05, offset: 0xDC6A, size: 0x8, addend: 0x0, symName: __ZNK4absl12lts_2021110219str_format_internal12_GLOBAL__N_19IntDigits19without_neg_or_zeroEv.cold.1, symObjAddr: 0x2B10, symBinAddr: 0x4F43C, symSize: 0x24 }
  - { offsetInCU: 0xDBCA, offset: 0xDD2F, size: 0x8, addend: 0x0, symName: _OUTLINED_FUNCTION_0, symObjAddr: 0x2B34, symBinAddr: 0x6728, symSize: 0x8 }
  - { offsetInCU: 0xDBE2, offset: 0xDD47, size: 0x8, addend: 0x0, symName: _OUTLINED_FUNCTION_1, symObjAddr: 0x2B3C, symBinAddr: 0x6730, symSize: 0x8 }
  - { offsetInCU: 0x26, offset: 0xDD8E, size: 0x8, addend: 0x0, symName: __ZN4absl12lts_2021110215AsciiStrToLowerEPNSt3__112basic_stringIcNS1_11char_traitsIcEENS1_9allocatorIcEEEE, symObjAddr: 0x0, symBinAddr: 0x6738, symSize: 0x3C }
  - { offsetInCU: 0x4E, offset: 0xDDB6, size: 0x8, addend: 0x0, symName: __ZN4absl12lts_2021110214ascii_internal13kPropertyBitsE, symObjAddr: 0x238, symBinAddr: 0x58270, symSize: 0x0 }
  - { offsetInCU: 0x68, offset: 0xDDD0, size: 0x8, addend: 0x0, symName: __ZN4absl12lts_2021110214ascii_internal8kToLowerE, symObjAddr: 0x338, symBinAddr: 0x58370, symSize: 0x0 }
  - { offsetInCU: 0x82, offset: 0xDDEA, size: 0x8, addend: 0x0, symName: __ZN4absl12lts_2021110214ascii_internal8kToUpperE, symObjAddr: 0x438, symBinAddr: 0x58470, symSize: 0x0 }
  - { offsetInCU: 0xAD, offset: 0xDE15, size: 0x8, addend: 0x0, symName: __ZN4absl12lts_2021110215AsciiStrToLowerEPNSt3__112basic_stringIcNS1_11char_traitsIcEENS1_9allocatorIcEEEE, symObjAddr: 0x0, symBinAddr: 0x6738, symSize: 0x3C }
  - { offsetInCU: 0xD6, offset: 0xDE3E, size: 0x8, addend: 0x0, symName: __ZN4absl12lts_2021110215AsciiStrToLowerEPNSt3__112basic_stringIcNS1_11char_traitsIcEENS1_9allocatorIcEEEE, symObjAddr: 0x0, symBinAddr: 0x6738, symSize: 0x3C }
  - { offsetInCU: 0x111, offset: 0xDE79, size: 0x8, addend: 0x0, symName: __ZN4absl12lts_2021110215AsciiStrToLowerEPNSt3__112basic_stringIcNS1_11char_traitsIcEENS1_9allocatorIcEEEE, symObjAddr: 0x0, symBinAddr: 0x6738, symSize: 0x3C }
  - { offsetInCU: 0x12C, offset: 0xDE94, size: 0x8, addend: 0x0, symName: __ZN4absl12lts_2021110215AsciiStrToLowerEPNSt3__112basic_stringIcNS1_11char_traitsIcEENS1_9allocatorIcEEEE, symObjAddr: 0x0, symBinAddr: 0x6738, symSize: 0x3C }
  - { offsetInCU: 0x148, offset: 0xDEB0, size: 0x8, addend: 0x0, symName: __ZN4absl12lts_2021110215AsciiStrToLowerEPNSt3__112basic_stringIcNS1_11char_traitsIcEENS1_9allocatorIcEEEE, symObjAddr: 0x0, symBinAddr: 0x6738, symSize: 0x3C }
  - { offsetInCU: 0x21A, offset: 0xDF82, size: 0x8, addend: 0x0, symName: __ZN4absl12lts_2021110215AsciiStrToUpperEPNSt3__112basic_stringIcNS1_11char_traitsIcEENS1_9allocatorIcEEEE, symObjAddr: 0x3C, symBinAddr: 0x6774, symSize: 0x3C }
  - { offsetInCU: 0x243, offset: 0xDFAB, size: 0x8, addend: 0x0, symName: __ZN4absl12lts_2021110215AsciiStrToUpperEPNSt3__112basic_stringIcNS1_11char_traitsIcEENS1_9allocatorIcEEEE, symObjAddr: 0x3C, symBinAddr: 0x6774, symSize: 0x3C }
  - { offsetInCU: 0x27E, offset: 0xDFE6, size: 0x8, addend: 0x0, symName: __ZN4absl12lts_2021110215AsciiStrToUpperEPNSt3__112basic_stringIcNS1_11char_traitsIcEENS1_9allocatorIcEEEE, symObjAddr: 0x3C, symBinAddr: 0x6774, symSize: 0x3C }
  - { offsetInCU: 0x299, offset: 0xE001, size: 0x8, addend: 0x0, symName: __ZN4absl12lts_2021110215AsciiStrToUpperEPNSt3__112basic_stringIcNS1_11char_traitsIcEENS1_9allocatorIcEEEE, symObjAddr: 0x3C, symBinAddr: 0x6774, symSize: 0x3C }
  - { offsetInCU: 0x2B5, offset: 0xE01D, size: 0x8, addend: 0x0, symName: __ZN4absl12lts_2021110215AsciiStrToUpperEPNSt3__112basic_stringIcNS1_11char_traitsIcEENS1_9allocatorIcEEEE, symObjAddr: 0x3C, symBinAddr: 0x6774, symSize: 0x3C }
  - { offsetInCU: 0x3F1, offset: 0xE159, size: 0x8, addend: 0x0, symName: __ZN4absl12lts_2021110226RemoveExtraAsciiWhitespaceEPNSt3__112basic_stringIcNS1_11char_traitsIcEENS1_9allocatorIcEEEE, symObjAddr: 0x78, symBinAddr: 0x67B0, symSize: 0x154 }
  - { offsetInCU: 0x50BE, offset: 0x12E26, size: 0x8, addend: 0x0, symName: __ZNK4absl12lts_2021110211string_view6substrEmm, symObjAddr: 0x1CC, symBinAddr: 0x6904, symSize: 0x44 }
  - { offsetInCU: 0x519D, offset: 0x12F05, size: 0x8, addend: 0x0, symName: __ZNK4absl12lts_2021110211string_view6substrEmm.cold.1, symObjAddr: 0x210, symBinAddr: 0x4F460, symSize: 0x28 }
  - { offsetInCU: 0x527E, offset: 0x12FE6, size: 0x8, addend: 0x0, symName: __ZNK4absl12lts_2021110211string_view6substrEmm.cold.1, symObjAddr: 0x210, symBinAddr: 0x4F460, symSize: 0x28 }
  - { offsetInCU: 0x26, offset: 0x13089, size: 0x8, addend: 0x0, symName: __ZN4absl12lts_2021110212bad_any_castD2Ev, symObjAddr: 0x0, symBinAddr: 0x6948, symSize: 0x4 }
  - { offsetInCU: 0x2B19, offset: 0x15B7C, size: 0x8, addend: 0x0, symName: __ZN4absl12lts_2021110212any_internal15ThrowBadAnyCastEv, symObjAddr: 0x28, symBinAddr: 0x6970, symSize: 0x2C }
  - { offsetInCU: 0x2B90, offset: 0x15BF3, size: 0x8, addend: 0x0, symName: __ZN4absl12lts_2021110212bad_any_castD2Ev, symObjAddr: 0x0, symBinAddr: 0x6948, symSize: 0x4 }
  - { offsetInCU: 0x2BD1, offset: 0x15C34, size: 0x8, addend: 0x0, symName: __ZN4absl12lts_2021110212bad_any_castD1Ev, symObjAddr: 0x4, symBinAddr: 0x694C, symSize: 0x4 }
  - { offsetInCU: 0x2BF4, offset: 0x15C57, size: 0x8, addend: 0x0, symName: __ZN4absl12lts_2021110212bad_any_castD1Ev, symObjAddr: 0x4, symBinAddr: 0x694C, symSize: 0x4 }
  - { offsetInCU: 0x2C29, offset: 0x15C8C, size: 0x8, addend: 0x0, symName: __ZN4absl12lts_2021110212bad_any_castD0Ev, symObjAddr: 0x8, symBinAddr: 0x6950, symSize: 0x14 }
  - { offsetInCU: 0x2C8C, offset: 0x15CEF, size: 0x8, addend: 0x0, symName: __ZNK4absl12lts_2021110212bad_any_cast4whatEv, symObjAddr: 0x1C, symBinAddr: 0x6964, symSize: 0xC }
  - { offsetInCU: 0x2CB1, offset: 0x15D14, size: 0x8, addend: 0x0, symName: __ZN4absl12lts_2021110212bad_any_castC1Ev, symObjAddr: 0x54, symBinAddr: 0x699C, symSize: 0x20 }
  - { offsetInCU: 0x26, offset: 0x15DA2, size: 0x8, addend: 0x0, symName: __ZN4absl12lts_2021110219bad_optional_accessD2Ev, symObjAddr: 0x0, symBinAddr: 0x69BC, symSize: 0x4 }
  - { offsetInCU: 0x2A37, offset: 0x187B3, size: 0x8, addend: 0x0, symName: __ZN4absl12lts_2021110217optional_internal25throw_bad_optional_accessEv, symObjAddr: 0x28, symBinAddr: 0x69E4, symSize: 0x30 }
  - { offsetInCU: 0x2A9C, offset: 0x18818, size: 0x8, addend: 0x0, symName: __ZN4absl12lts_2021110219bad_optional_accessD2Ev, symObjAddr: 0x0, symBinAddr: 0x69BC, symSize: 0x4 }
  - { offsetInCU: 0x2ADD, offset: 0x18859, size: 0x8, addend: 0x0, symName: __ZN4absl12lts_2021110219bad_optional_accessD1Ev, symObjAddr: 0x4, symBinAddr: 0x69C0, symSize: 0x4 }
  - { offsetInCU: 0x2B00, offset: 0x1887C, size: 0x8, addend: 0x0, symName: __ZN4absl12lts_2021110219bad_optional_accessD1Ev, symObjAddr: 0x4, symBinAddr: 0x69C0, symSize: 0x4 }
  - { offsetInCU: 0x2B35, offset: 0x188B1, size: 0x8, addend: 0x0, symName: __ZN4absl12lts_2021110219bad_optional_accessD0Ev, symObjAddr: 0x8, symBinAddr: 0x69C4, symSize: 0x14 }
  - { offsetInCU: 0x2B98, offset: 0x18914, size: 0x8, addend: 0x0, symName: __ZNK4absl12lts_2021110219bad_optional_access4whatEv, symObjAddr: 0x1C, symBinAddr: 0x69D8, symSize: 0xC }
  - { offsetInCU: 0x26, offset: 0x18998, size: 0x8, addend: 0x0, symName: __ZN4absl12lts_2021110218bad_variant_accessD2Ev, symObjAddr: 0x0, symBinAddr: 0x6A14, symSize: 0x4 }
  - { offsetInCU: 0x2A37, offset: 0x1B3A9, size: 0x8, addend: 0x0, symName: __ZN4absl12lts_2021110216variant_internal21ThrowBadVariantAccessEv, symObjAddr: 0x28, symBinAddr: 0x6A3C, symSize: 0x30 }
  - { offsetInCU: 0x2A8A, offset: 0x1B3FC, size: 0x8, addend: 0x0, symName: __ZN4absl12lts_2021110216variant_internal7RethrowEv, symObjAddr: 0x58, symBinAddr: 0x6A6C, symSize: 0xC }
  - { offsetInCU: 0x2AB6, offset: 0x1B428, size: 0x8, addend: 0x0, symName: __ZN4absl12lts_2021110218bad_variant_accessD2Ev, symObjAddr: 0x0, symBinAddr: 0x6A14, symSize: 0x4 }
  - { offsetInCU: 0x2AF7, offset: 0x1B469, size: 0x8, addend: 0x0, symName: __ZN4absl12lts_2021110218bad_variant_accessD1Ev, symObjAddr: 0x4, symBinAddr: 0x6A18, symSize: 0x4 }
  - { offsetInCU: 0x2B1A, offset: 0x1B48C, size: 0x8, addend: 0x0, symName: __ZN4absl12lts_2021110218bad_variant_accessD1Ev, symObjAddr: 0x4, symBinAddr: 0x6A18, symSize: 0x4 }
  - { offsetInCU: 0x2B4F, offset: 0x1B4C1, size: 0x8, addend: 0x0, symName: __ZN4absl12lts_2021110218bad_variant_accessD0Ev, symObjAddr: 0x8, symBinAddr: 0x6A1C, symSize: 0x14 }
  - { offsetInCU: 0x2BB2, offset: 0x1B524, size: 0x8, addend: 0x0, symName: __ZNK4absl12lts_2021110218bad_variant_access4whatEv, symObjAddr: 0x1C, symBinAddr: 0x6A30, symSize: 0xC }
  - { offsetInCU: 0x26, offset: 0x1B5A8, size: 0x8, addend: 0x0, symName: __ZN4absl12lts_202111027Barrier5BlockEv, symObjAddr: 0x0, symBinAddr: 0x6A78, symSize: 0x104 }
  - { offsetInCU: 0x17C7, offset: 0x1CD49, size: 0x8, addend: 0x0, symName: __ZN4absl12lts_20211102L6IsZeroEPv, symObjAddr: 0x104, symBinAddr: 0x6B7C, symSize: 0x10 }
  - { offsetInCU: 0x7B66, offset: 0x230E8, size: 0x8, addend: 0x0, symName: __ZN4absl12lts_202111027Barrier5BlockEv, symObjAddr: 0x0, symBinAddr: 0x6A78, symSize: 0x104 }
  - { offsetInCU: 0x696, offset: 0x238A2, size: 0x8, addend: 0x0, symName: __ZN4absl12lts_2021110219str_format_internal9SummarizeENS1_21UntypedFormatSpecImplENS0_4SpanIKNS1_13FormatArgImplEEE, symObjAddr: 0x194, symBinAddr: 0x6D2C, symSize: 0x300 }
  - { offsetInCU: 0x1297, offset: 0x244A3, size: 0x8, addend: 0x0, symName: __ZN4absl12lts_2021110219str_format_internal13FormatUntypedENS1_17FormatRawSinkImplENS1_21UntypedFormatSpecImplENS0_4SpanIKNS1_13FormatArgImplEEE, symObjAddr: 0x494, symBinAddr: 0x702C, symSize: 0x2AC }
  - { offsetInCU: 0x1CC7, offset: 0x24ED3, size: 0x8, addend: 0x0, symName: __ZN4absl12lts_2021110219str_format_internal12BindWithPackEPKNS1_17UnboundConversionENS0_4SpanIKNS1_13FormatArgImplEEEPNS1_15BoundConversionE, symObjAddr: 0x0, symBinAddr: 0x6B98, symSize: 0x30 }
  - { offsetInCU: 0x2186, offset: 0x25392, size: 0x8, addend: 0x0, symName: __ZN4absl12lts_2021110219str_format_internal10AppendPackEPNSt3__112basic_stringIcNS2_11char_traitsIcEENS2_9allocatorIcEEEENS1_21UntypedFormatSpecImplENS0_4SpanIKNS1_13FormatArgImplEEE, symObjAddr: 0x798, symBinAddr: 0x7330, symSize: 0x6C }
  - { offsetInCU: 0x2262, offset: 0x2546E, size: 0x8, addend: 0x0, symName: __ZN4absl12lts_2021110219str_format_internal10FormatPackENS1_21UntypedFormatSpecImplENS0_4SpanIKNS1_13FormatArgImplEEE, symObjAddr: 0x804, symBinAddr: 0x739C, symSize: 0x88 }
  - { offsetInCU: 0x250C, offset: 0x25718, size: 0x8, addend: 0x0, symName: __ZN4absl12lts_2021110219str_format_internal7FprintFEP7__sFILENS1_21UntypedFormatSpecImplENS0_4SpanIKNS1_13FormatArgImplEEE, symObjAddr: 0x88C, symBinAddr: 0x7424, symSize: 0x8C }
  - { offsetInCU: 0x2615, offset: 0x25821, size: 0x8, addend: 0x0, symName: __ZN4absl12lts_2021110219str_format_internal8SnprintFEPcmNS1_21UntypedFormatSpecImplENS0_4SpanIKNS1_13FormatArgImplEEE, symObjAddr: 0x918, symBinAddr: 0x74B0, symSize: 0x80 }
  - { offsetInCU: 0x6B99, offset: 0x29DA5, size: 0x8, addend: 0x0, symName: __ZNSt3__124__put_character_sequenceB7v160006IcNS_11char_traitsIcEEEERNS_13basic_ostreamIT_T0_EES7_PKS4_m, symObjAddr: 0x1448, symBinAddr: 0x7F94, symSize: 0x164 }
  - { offsetInCU: 0x98D3, offset: 0x2CADF, size: 0x8, addend: 0x0, symName: __ZNSt3__116__pad_and_outputB7v160006IcNS_11char_traitsIcEEEENS_19ostreambuf_iteratorIT_T0_EES6_PKS4_S8_S8_RNS_8ios_baseES4_, symObjAddr: 0x15AC, symBinAddr: 0x80F8, symSize: 0x13C }
  - { offsetInCU: 0x9EFF, offset: 0x2D10B, size: 0x8, addend: 0x0, symName: __ZNSt3__120__throw_length_errorB7v160006EPKc, symObjAddr: 0x1794, symBinAddr: 0x82E0, symSize: 0x50 }
  - { offsetInCU: 0xA457, offset: 0x2D663, size: 0x8, addend: 0x0, symName: __ZNSt3__119__allocate_at_leastB7v160006INS_9allocatorIN4absl12lts_2021110219str_format_internal13FormatArgImplEEEEENS_19__allocation_resultINS_16allocator_traitsIT_E7pointerEEERS9_m, symObjAddr: 0x1A84, symBinAddr: 0x85D0, symSize: 0x34 }
  - { offsetInCU: 0xAB9D, offset: 0x2DDA9, size: 0x8, addend: 0x0, symName: __ZSt28__throw_bad_array_new_lengthB7v160006v, symObjAddr: 0x1808, symBinAddr: 0x8354, symSize: 0x28 }
  - { offsetInCU: 0xD197, offset: 0x303A3, size: 0x8, addend: 0x0, symName: __ZN4absl12lts_2021110219str_format_internal12_GLOBAL__N_110ArgContext4BindEPKNS1_17UnboundConversionEPNS1_15BoundConversionE, symObjAddr: 0x30, symBinAddr: 0x6BC8, symSize: 0x164 }
  - { offsetInCU: 0xD573, offset: 0x3077F, size: 0x8, addend: 0x0, symName: __ZNK4absl12lts_202111024SpanIKNS0_19str_format_internal13FormatArgImplEEixEm, symObjAddr: 0x998, symBinAddr: 0x7530, symSize: 0x4C }
  - { offsetInCU: 0xDACA, offset: 0x30CD6, size: 0x8, addend: 0x0, symName: __ZNK4absl12lts_2021110219str_format_internal21UntypedFormatSpecImpl3strEv, symObjAddr: 0xA34, symBinAddr: 0x7580, symSize: 0x2C }
  - { offsetInCU: 0xDB74, offset: 0x30D80, size: 0x8, addend: 0x0, symName: __ZN4absl12lts_2021110219str_format_internal12_GLOBAL__N_117ConverterConsumerINS2_20SummarizingConverterEE10ConvertOneERKNS1_17UnboundConversionENS0_11string_viewE, symObjAddr: 0xA60, symBinAddr: 0x75AC, symSize: 0x324 }
  - { offsetInCU: 0xDBF3, offset: 0x30DFF, size: 0x8, addend: 0x0, symName: __ZN4absl12lts_2021110219str_format_internal12_GLOBAL__N_117ConverterConsumerINS2_20SummarizingConverterEE10ConvertOneERKNS1_17UnboundConversionENS0_11string_viewE, symObjAddr: 0xA60, symBinAddr: 0x75AC, symSize: 0x324 }
  - { offsetInCU: 0xEA74, offset: 0x31C80, size: 0x8, addend: 0x0, symName: __ZNSt3__112basic_stringIcNS_11char_traitsIcEENS_9allocatorIcEEEC2B7v160006IDnEEPKc, symObjAddr: 0x1C40, symBinAddr: 0x8704, symSize: 0x9C }
  - { offsetInCU: 0xEDD1, offset: 0x31FDD, size: 0x8, addend: 0x0, symName: __ZN4absl12lts_2021110219str_format_internal12_GLOBAL__N_117ConverterConsumerINS2_16DefaultConverterEE10ConvertOneERKNS1_17UnboundConversionENS0_11string_viewE, symObjAddr: 0x1CDC, symBinAddr: 0x87A0, symSize: 0x60 }
  - { offsetInCU: 0xEE69, offset: 0x32075, size: 0x8, addend: 0x0, symName: __ZN4absl12lts_2021110219str_format_internal17FormatRawSinkImpl5FlushINSt3__112basic_stringIcNS4_11char_traitsIcEENS4_9allocatorIcEEEEEEvPvNS0_11string_viewE, symObjAddr: 0xA30, symBinAddr: 0x757C, symSize: 0x4 }
  - { offsetInCU: 0xEFA1, offset: 0x321AD, size: 0x8, addend: 0x0, symName: __ZN4absl12lts_2021110219str_format_internal12_GLOBAL__N_117ConverterConsumerINS2_16DefaultConverterEE10ConvertOneERKNS1_17UnboundConversionENS0_11string_viewE, symObjAddr: 0x1CDC, symBinAddr: 0x87A0, symSize: 0x60 }
  - { offsetInCU: 0xF15A, offset: 0x32366, size: 0x8, addend: 0x0, symName: __ZNK4absl12lts_2021110219str_format_internal10Streamable5PrintERNSt3__113basic_ostreamIcNS3_11char_traitsIcEEEE, symObjAddr: 0x740, symBinAddr: 0x72D8, symSize: 0x58 }
  - { offsetInCU: 0xF47D, offset: 0x32689, size: 0x8, addend: 0x0, symName: __ZN4absl12lts_2021110219str_format_internal17FormatRawSinkImpl5FlushINSt3__112basic_stringIcNS4_11char_traitsIcEENS4_9allocatorIcEEEEEEvPvNS0_11string_viewE, symObjAddr: 0xA30, symBinAddr: 0x757C, symSize: 0x4 }
  - { offsetInCU: 0xF4AD, offset: 0x326B9, size: 0x8, addend: 0x0, symName: __ZN4absl12lts_2021110219str_format_internal17FormatRawSinkImpl5FlushINSt3__112basic_stringIcNS4_11char_traitsIcEENS4_9allocatorIcEEEEEEvPvNS0_11string_viewE, symObjAddr: 0xA30, symBinAddr: 0x757C, symSize: 0x4 }
  - { offsetInCU: 0xF4C8, offset: 0x326D4, size: 0x8, addend: 0x0, symName: __ZN4absl12lts_2021110219str_format_internal17FormatRawSinkImpl5FlushINSt3__112basic_stringIcNS4_11char_traitsIcEENS4_9allocatorIcEEEEEEvPvNS0_11string_viewE, symObjAddr: 0xA30, symBinAddr: 0x757C, symSize: 0x4 }
  - { offsetInCU: 0xF510, offset: 0x3271C, size: 0x8, addend: 0x0, symName: __ZNK4absl12lts_2021110219str_format_internal21UntypedFormatSpecImpl3strEv.cold.1, symObjAddr: 0x1D70, symBinAddr: 0x4F488, symSize: 0x28 }
  - { offsetInCU: 0xF528, offset: 0x32734, size: 0x8, addend: 0x0, symName: __ZNK4absl12lts_2021110219str_format_internal21UntypedFormatSpecImpl3strEv.cold.2, symObjAddr: 0x1D98, symBinAddr: 0x4F4B0, symSize: 0x28 }
  - { offsetInCU: 0xF986, offset: 0x32B92, size: 0x8, addend: 0x0, symName: __ZNSt3__119basic_ostringstreamIcNS_11char_traitsIcEENS_9allocatorIcEEEC1B7v160006Ev, symObjAddr: 0xD84, symBinAddr: 0x78D0, symSize: 0xD4 }
  - { offsetInCU: 0xFA3F, offset: 0x32C4B, size: 0x8, addend: 0x0, symName: __ZN4absl12lts_2021110219str_format_internal10StreamableC2ERKNS1_21UntypedFormatSpecImplENS0_4SpanIKNS1_13FormatArgImplEEE, symObjAddr: 0x1830, symBinAddr: 0x837C, symSize: 0xEC }
  - { offsetInCU: 0xFE4B, offset: 0x33057, size: 0x8, addend: 0x0, symName: __ZNKSt3__115basic_stringbufIcNS_11char_traitsIcEENS_9allocatorIcEEE3strEv, symObjAddr: 0x1B40, symBinAddr: 0x8604, symSize: 0x68 }
  - { offsetInCU: 0x1004F, offset: 0x3325B, size: 0x8, addend: 0x0, symName: __ZNSt3__119basic_ostringstreamIcNS_11char_traitsIcEENS_9allocatorIcEEED1Ev, symObjAddr: 0xE58, symBinAddr: 0x79A4, symSize: 0x8C }
  - { offsetInCU: 0x101E0, offset: 0x333EC, size: 0x8, addend: 0x0, symName: __ZNSt3__119basic_ostringstreamIcNS_11char_traitsIcEENS_9allocatorIcEEED0Ev, symObjAddr: 0xEE4, symBinAddr: 0x7A30, symSize: 0x8C }
  - { offsetInCU: 0x1038D, offset: 0x33599, size: 0x8, addend: 0x0, symName: __ZTv0_n24_NSt3__119basic_ostringstreamIcNS_11char_traitsIcEENS_9allocatorIcEEED1Ev, symObjAddr: 0xF70, symBinAddr: 0x7ABC, symSize: 0x8C }
  - { offsetInCU: 0x1054D, offset: 0x33759, size: 0x8, addend: 0x0, symName: __ZTv0_n24_NSt3__119basic_ostringstreamIcNS_11char_traitsIcEENS_9allocatorIcEEED0Ev, symObjAddr: 0xFFC, symBinAddr: 0x7B48, symSize: 0x94 }
  - { offsetInCU: 0x1070D, offset: 0x33919, size: 0x8, addend: 0x0, symName: __ZNSt3__115basic_stringbufIcNS_11char_traitsIcEENS_9allocatorIcEEED1Ev, symObjAddr: 0x1090, symBinAddr: 0x7BDC, symSize: 0x40 }
  - { offsetInCU: 0x10876, offset: 0x33A82, size: 0x8, addend: 0x0, symName: __ZNSt3__115basic_stringbufIcNS_11char_traitsIcEENS_9allocatorIcEEED0Ev, symObjAddr: 0x10D0, symBinAddr: 0x7C1C, symSize: 0x44 }
  - { offsetInCU: 0x10AD0, offset: 0x33CDC, size: 0x8, addend: 0x0, symName: __ZNSt3__115basic_stringbufIcNS_11char_traitsIcEENS_9allocatorIcEEE7seekoffExNS_8ios_base7seekdirEj, symObjAddr: 0x1114, symBinAddr: 0x7C60, symSize: 0x100 }
  - { offsetInCU: 0x10CD2, offset: 0x33EDE, size: 0x8, addend: 0x0, symName: __ZNSt3__115basic_stringbufIcNS_11char_traitsIcEENS_9allocatorIcEEE7seekposENS_4fposI11__mbstate_tEEj, symObjAddr: 0x1214, symBinAddr: 0x7D60, symSize: 0x18 }
  - { offsetInCU: 0x10D71, offset: 0x33F7D, size: 0x8, addend: 0x0, symName: __ZNSt3__115basic_stringbufIcNS_11char_traitsIcEENS_9allocatorIcEEE9underflowEv, symObjAddr: 0x122C, symBinAddr: 0x7D78, symSize: 0x50 }
  - { offsetInCU: 0x10E15, offset: 0x34021, size: 0x8, addend: 0x0, symName: __ZNSt3__115basic_stringbufIcNS_11char_traitsIcEENS_9allocatorIcEEE9pbackfailEi, symObjAddr: 0x127C, symBinAddr: 0x7DC8, symSize: 0x6C }
  - { offsetInCU: 0x10FEB, offset: 0x341F7, size: 0x8, addend: 0x0, symName: __ZNSt3__115basic_stringbufIcNS_11char_traitsIcEENS_9allocatorIcEEE8overflowEi, symObjAddr: 0x12E8, symBinAddr: 0x7E34, symSize: 0x160 }
  - { offsetInCU: 0x1157D, offset: 0x34789, size: 0x8, addend: 0x0, symName: __ZNSt3__112basic_stringIcNS_11char_traitsIcEENS_9allocatorIcEEEC2B7v160006Emc, symObjAddr: 0x16E8, symBinAddr: 0x8234, symSize: 0x98 }
  - { offsetInCU: 0x1178F, offset: 0x3499B, size: 0x8, addend: 0x0, symName: __ZNKSt3__112basic_stringIcNS_11char_traitsIcEENS_9allocatorIcEEE20__throw_length_errorB7v160006Ev, symObjAddr: 0x1780, symBinAddr: 0x82CC, symSize: 0x14 }
  - { offsetInCU: 0x1189A, offset: 0x34AA6, size: 0x8, addend: 0x0, symName: __ZNKSt3__112basic_stringIcNS_11char_traitsIcEENS_9allocatorIcEEE20__throw_length_errorB7v160006Ev, symObjAddr: 0x1780, symBinAddr: 0x82CC, symSize: 0x14 }
  - { offsetInCU: 0x118C4, offset: 0x34AD0, size: 0x8, addend: 0x0, symName: __ZNSt3__120__throw_length_errorB7v160006EPKc, symObjAddr: 0x1794, symBinAddr: 0x82E0, symSize: 0x50 }
  - { offsetInCU: 0x118CE, offset: 0x34ADA, size: 0x8, addend: 0x0, symName: __ZNSt12length_errorC1B7v160006EPKc, symObjAddr: 0x17E4, symBinAddr: 0x8330, symSize: 0x24 }
  - { offsetInCU: 0x11A99, offset: 0x34CA5, size: 0x8, addend: 0x0, symName: __ZNSt3__16vectorIN4absl12lts_2021110219str_format_internal13FormatArgImplENS_9allocatorIS4_EEE6assignIPKS4_Li0EEEvT_SB_, symObjAddr: 0x191C, symBinAddr: 0x8468, symSize: 0x114 }
  - { offsetInCU: 0x1219C, offset: 0x353A8, size: 0x8, addend: 0x0, symName: __ZNSt3__16vectorIN4absl12lts_2021110219str_format_internal13FormatArgImplENS_9allocatorIS4_EEE11__vallocateB7v160006Em, symObjAddr: 0x1A30, symBinAddr: 0x857C, symSize: 0x40 }
  - { offsetInCU: 0x123BE, offset: 0x355CA, size: 0x8, addend: 0x0, symName: __ZNSt3__16vectorIN4absl12lts_2021110219str_format_internal13FormatArgImplENS_9allocatorIS4_EEE11__vallocateB7v160006Em, symObjAddr: 0x1A30, symBinAddr: 0x857C, symSize: 0x40 }
  - { offsetInCU: 0x12438, offset: 0x35644, size: 0x8, addend: 0x0, symName: __ZNKSt3__16vectorIN4absl12lts_2021110219str_format_internal13FormatArgImplENS_9allocatorIS4_EEE20__throw_length_errorB7v160006Ev, symObjAddr: 0x1A70, symBinAddr: 0x85BC, symSize: 0x14 }
  - { offsetInCU: 0x1244A, offset: 0x35656, size: 0x8, addend: 0x0, symName: __ZNKSt3__16vectorIN4absl12lts_2021110219str_format_internal13FormatArgImplENS_9allocatorIS4_EEE20__throw_length_errorB7v160006Ev, symObjAddr: 0x1A70, symBinAddr: 0x85BC, symSize: 0x14 }
  - { offsetInCU: 0x12474, offset: 0x35680, size: 0x8, addend: 0x0, symName: __ZNSt3__119__allocate_at_leastB7v160006INS_9allocatorIN4absl12lts_2021110219str_format_internal13FormatArgImplEEEEENS_19__allocation_resultINS_16allocator_traitsIT_E7pointerEEERS9_m, symObjAddr: 0x1A84, symBinAddr: 0x85D0, symSize: 0x34 }
  - { offsetInCU: 0x12565, offset: 0x35771, size: 0x8, addend: 0x0, symName: __ZNSt3__112basic_stringIcNS_11char_traitsIcEENS_9allocatorIcEEEC2B7v160006IPcvEET_S8_RKS4_, symObjAddr: 0x1BA8, symBinAddr: 0x866C, symSize: 0x98 }
  - { offsetInCU: 0x1279E, offset: 0x359AA, size: 0x8, addend: 0x0, symName: __ZNSt3__112basic_stringIcNS_11char_traitsIcEENS_9allocatorIcEEEC2B7v160006IDnEEPKc, symObjAddr: 0x1C40, symBinAddr: 0x8704, symSize: 0x9C }
  - { offsetInCU: 0x12988, offset: 0x35B94, size: 0x8, addend: 0x0, symName: __ZN4absl12lts_2021110219str_format_internal17FormatRawSinkImpl5FlushINSt3__113basic_ostreamIcNS4_11char_traitsIcEEEEEEvPvNS0_11string_viewE, symObjAddr: 0x1D3C, symBinAddr: 0x8800, symSize: 0x4 }
  - { offsetInCU: 0x129B8, offset: 0x35BC4, size: 0x8, addend: 0x0, symName: __ZN4absl12lts_2021110219str_format_internal17FormatRawSinkImpl5FlushINSt3__113basic_ostreamIcNS4_11char_traitsIcEEEEEEvPvNS0_11string_viewE, symObjAddr: 0x1D3C, symBinAddr: 0x8800, symSize: 0x4 }
  - { offsetInCU: 0x129D3, offset: 0x35BDF, size: 0x8, addend: 0x0, symName: __ZN4absl12lts_2021110219str_format_internal17FormatRawSinkImpl5FlushINSt3__113basic_ostreamIcNS4_11char_traitsIcEEEEEEvPvNS0_11string_viewE, symObjAddr: 0x1D3C, symBinAddr: 0x8800, symSize: 0x4 }
  - { offsetInCU: 0x12A00, offset: 0x35C0C, size: 0x8, addend: 0x0, symName: __ZN4absl12lts_2021110219str_format_internal17FormatRawSinkImpl5FlushINS1_11FILERawSinkEEEvPvNS0_11string_viewE, symObjAddr: 0x1D40, symBinAddr: 0x8804, symSize: 0x4 }
  - { offsetInCU: 0x12A30, offset: 0x35C3C, size: 0x8, addend: 0x0, symName: __ZN4absl12lts_2021110219str_format_internal17FormatRawSinkImpl5FlushINS1_11FILERawSinkEEEvPvNS0_11string_viewE, symObjAddr: 0x1D40, symBinAddr: 0x8804, symSize: 0x4 }
  - { offsetInCU: 0x12A4B, offset: 0x35C57, size: 0x8, addend: 0x0, symName: __ZN4absl12lts_2021110219str_format_internal17FormatRawSinkImpl5FlushINS1_11FILERawSinkEEEvPvNS0_11string_viewE, symObjAddr: 0x1D40, symBinAddr: 0x8804, symSize: 0x4 }
  - { offsetInCU: 0x12A6F, offset: 0x35C7B, size: 0x8, addend: 0x0, symName: __ZN4absl12lts_2021110219str_format_internal17FormatRawSinkImpl5FlushINS1_13BufferRawSinkEEEvPvNS0_11string_viewE, symObjAddr: 0x1D44, symBinAddr: 0x8808, symSize: 0x4 }
  - { offsetInCU: 0x12A9F, offset: 0x35CAB, size: 0x8, addend: 0x0, symName: __ZN4absl12lts_2021110219str_format_internal17FormatRawSinkImpl5FlushINS1_13BufferRawSinkEEEvPvNS0_11string_viewE, symObjAddr: 0x1D44, symBinAddr: 0x8808, symSize: 0x4 }
  - { offsetInCU: 0x12ABA, offset: 0x35CC6, size: 0x8, addend: 0x0, symName: __ZN4absl12lts_2021110219str_format_internal17FormatRawSinkImpl5FlushINS1_13BufferRawSinkEEEvPvNS0_11string_viewE, symObjAddr: 0x1D44, symBinAddr: 0x8808, symSize: 0x4 }
  - { offsetInCU: 0x26, offset: 0x35D23, size: 0x8, addend: 0x0, symName: __ZN4absl12lts_2021110215BlockingCounterC2Ei, symObjAddr: 0x0, symBinAddr: 0x880C, symSize: 0x88 }
  - { offsetInCU: 0x1B8, offset: 0x35EB5, size: 0x8, addend: 0x0, symName: __ZN4absl12lts_2021110212_GLOBAL__N_16IsDoneEPv, symObjAddr: 0x1E8, symBinAddr: 0x89F4, symSize: 0x8 }
  - { offsetInCU: 0x2E51, offset: 0x38B4E, size: 0x8, addend: 0x0, symName: __ZN4absl12lts_2021110215BlockingCounterC2Ei, symObjAddr: 0x0, symBinAddr: 0x880C, symSize: 0x88 }
  - { offsetInCU: 0x30F6, offset: 0x38DF3, size: 0x8, addend: 0x0, symName: __ZN4absl12lts_2021110215BlockingCounterC1Ei, symObjAddr: 0x88, symBinAddr: 0x8894, symSize: 0x4 }
  - { offsetInCU: 0x3132, offset: 0x38E2F, size: 0x8, addend: 0x0, symName: __ZN4absl12lts_2021110215BlockingCounterC1Ei, symObjAddr: 0x88, symBinAddr: 0x8894, symSize: 0x4 }
  - { offsetInCU: 0x31FF, offset: 0x38EFC, size: 0x8, addend: 0x0, symName: __ZN4absl12lts_2021110215BlockingCounter14DecrementCountEv, symObjAddr: 0x8C, symBinAddr: 0x8898, symSize: 0xA0 }
  - { offsetInCU: 0x332A, offset: 0x39027, size: 0x8, addend: 0x0, symName: __ZN4absl12lts_2021110215BlockingCounter4WaitEv, symObjAddr: 0x12C, symBinAddr: 0x8938, symSize: 0xBC }
  - { offsetInCU: 0x26, offset: 0x3913E, size: 0x8, addend: 0x0, symName: __ZN4absl12lts_2021110210from_charsEPKcS2_RdNS0_12chars_formatE, symObjAddr: 0x0, symBinAddr: 0x89FC, symSize: 0x30C }
  - { offsetInCU: 0x94, offset: 0x391AC, size: 0x8, addend: 0x0, symName: __ZN4absl12lts_2021110212_GLOBAL__N_121kPower10MantissaTableE, symObjAddr: 0xD90, symBinAddr: 0x58600, symSize: 0x0 }
  - { offsetInCU: 0xAF, offset: 0x391C7, size: 0x8, addend: 0x0, symName: __ZN4absl12lts_2021110212_GLOBAL__N_121kPower10ExponentTableE, symObjAddr: 0x21E8, symBinAddr: 0x59A58, symSize: 0x0 }
  - { offsetInCU: 0x42A, offset: 0x39542, size: 0x8, addend: 0x0, symName: __ZN4absl12lts_2021110212_GLOBAL__N_114HandleEdgeCaseIdEEbRKNS0_16strings_internal11ParsedFloatEbPT_, symObjAddr: 0x614, symBinAddr: 0x9010, symSize: 0x10C }
  - { offsetInCU: 0x606, offset: 0x3971E, size: 0x8, addend: 0x0, symName: __ZN4absl12lts_2021110212_GLOBAL__N_130CalculateFromParsedHexadecimalIdEENS1_15CalculatedFloatERKNS0_16strings_internal11ParsedFloatE, symObjAddr: 0x720, symBinAddr: 0x911C, symSize: 0x94 }
  - { offsetInCU: 0x787, offset: 0x3989F, size: 0x8, addend: 0x0, symName: __ZN4absl12lts_2021110212_GLOBAL__N_118ShiftRightAndRoundENS0_7uint128EibPb, symObjAddr: 0x858, symBinAddr: 0x9254, symSize: 0x100 }
  - { offsetInCU: 0x92F, offset: 0x39A47, size: 0x8, addend: 0x0, symName: __ZN4absl12lts_2021110212_GLOBAL__N_111MustRoundUpEyiRKNS0_16strings_internal11ParsedFloatE, symObjAddr: 0x958, symBinAddr: 0x9354, symSize: 0x190 }
  - { offsetInCU: 0xA7F, offset: 0x39B97, size: 0x8, addend: 0x0, symName: __ZN4absl12lts_2021110212_GLOBAL__N_112EncodeResultIdEEvRKNS1_15CalculatedFloatEbPNS0_17from_chars_resultEPT_, symObjAddr: 0x7B4, symBinAddr: 0x91B0, symSize: 0xA4 }
  - { offsetInCU: 0xCF1, offset: 0x39E09, size: 0x8, addend: 0x0, symName: __ZN4absl12lts_2021110212_GLOBAL__N_114HandleEdgeCaseIfEEbRKNS0_16strings_internal11ParsedFloatEbPT_, symObjAddr: 0xB54, symBinAddr: 0x9550, symSize: 0x108 }
  - { offsetInCU: 0xECD, offset: 0x39FE5, size: 0x8, addend: 0x0, symName: __ZN4absl12lts_2021110212_GLOBAL__N_130CalculateFromParsedHexadecimalIfEENS1_15CalculatedFloatERKNS0_16strings_internal11ParsedFloatE, symObjAddr: 0xC5C, symBinAddr: 0x9658, symSize: 0x94 }
  - { offsetInCU: 0x104E, offset: 0x3A166, size: 0x8, addend: 0x0, symName: __ZN4absl12lts_2021110212_GLOBAL__N_112EncodeResultIfEEvRKNS1_15CalculatedFloatEbPNS0_17from_chars_resultEPT_, symObjAddr: 0xCF0, symBinAddr: 0x96EC, symSize: 0xA0 }
  - { offsetInCU: 0x1401, offset: 0x3A519, size: 0x8, addend: 0x0, symName: __ZN4absl12lts_2021110216strings_internal7CompareILi84ELi84EEEiRKNS1_11BigUnsignedIXT_EEERKNS3_IXT0_EEE, symObjAddr: 0xAE8, symBinAddr: 0x94E4, symSize: 0x6C }
  - { offsetInCU: 0x144F, offset: 0x3A567, size: 0x8, addend: 0x0, symName: __ZN4absl12lts_2021110216strings_internal7CompareILi84ELi84EEEiRKNS1_11BigUnsignedIXT_EEERKNS3_IXT0_EEE, symObjAddr: 0xAE8, symBinAddr: 0x94E4, symSize: 0x6C }
  - { offsetInCU: 0x15E7, offset: 0x3A6FF, size: 0x8, addend: 0x0, symName: __ZN4absl12lts_2021110210from_charsEPKcS2_RdNS0_12chars_formatE, symObjAddr: 0x0, symBinAddr: 0x89FC, symSize: 0x30C }
  - { offsetInCU: 0x1A01, offset: 0x3AB19, size: 0x8, addend: 0x0, symName: __ZN4absl12lts_2021110210from_charsEPKcS2_RfNS0_12chars_formatE, symObjAddr: 0x30C, symBinAddr: 0x8D08, symSize: 0x308 }
  - { offsetInCU: 0x26, offset: 0x3F927, size: 0x8, addend: 0x0, symName: __ZN4absl12lts_2021110216strings_internal11BigUnsignedILi4EEC2Ev, symObjAddr: 0x0, symBinAddr: 0x978C, symSize: 0xC }
  - { offsetInCU: 0x89, offset: 0x3F98A, size: 0x8, addend: 0x0, symName: __ZN4absl12lts_2021110216strings_internal12_GLOBAL__N_118kLargePowersOfFiveE, symObjAddr: 0x1CD8, symBinAddr: 0x59FD0, symSize: 0x0 }
  - { offsetInCU: 0xDC, offset: 0x3F9DD, size: 0x8, addend: 0x0, symName: __ZN4absl12lts_2021110216strings_internal10kFiveToNthE, symObjAddr: 0x1C78, symBinAddr: 0x59F70, symSize: 0x0 }
  - { offsetInCU: 0xF6, offset: 0x3F9F7, size: 0x8, addend: 0x0, symName: __ZN4absl12lts_2021110216strings_internal9kTenToNthE, symObjAddr: 0x1CB0, symBinAddr: 0x59FA8, symSize: 0x0 }
  - { offsetInCU: 0x5158, offset: 0x44A59, size: 0x8, addend: 0x0, symName: __ZN4absl12lts_2021110216strings_internal11BigUnsignedILi4EEC2Ev, symObjAddr: 0x0, symBinAddr: 0x978C, symSize: 0xC }
  - { offsetInCU: 0x5197, offset: 0x44A98, size: 0x8, addend: 0x0, symName: __ZN4absl12lts_2021110216strings_internal11BigUnsignedILi4EEC1Ev, symObjAddr: 0xC, symBinAddr: 0x9798, symSize: 0xC }
  - { offsetInCU: 0x51C3, offset: 0x44AC4, size: 0x8, addend: 0x0, symName: __ZN4absl12lts_2021110216strings_internal11BigUnsignedILi4EEC1Ev, symObjAddr: 0xC, symBinAddr: 0x9798, symSize: 0xC }
  - { offsetInCU: 0x51DC, offset: 0x44ADD, size: 0x8, addend: 0x0, symName: __ZN4absl12lts_2021110216strings_internal11BigUnsignedILi4EEC2Ey, symObjAddr: 0x18, symBinAddr: 0x97A4, symSize: 0x28 }
  - { offsetInCU: 0x5228, offset: 0x44B29, size: 0x8, addend: 0x0, symName: __ZN4absl12lts_2021110216strings_internal11BigUnsignedILi4EEC1Ey, symObjAddr: 0x40, symBinAddr: 0x97CC, symSize: 0x28 }
  - { offsetInCU: 0x5252, offset: 0x44B53, size: 0x8, addend: 0x0, symName: __ZN4absl12lts_2021110216strings_internal11BigUnsignedILi4EEC1Ey, symObjAddr: 0x40, symBinAddr: 0x97CC, symSize: 0x28 }
  - { offsetInCU: 0x5282, offset: 0x44B83, size: 0x8, addend: 0x0, symName: __ZN4absl12lts_2021110216strings_internal11BigUnsignedILi4EEC2ENS0_11string_viewE, symObjAddr: 0x68, symBinAddr: 0x97F4, symSize: 0x84 }
  - { offsetInCU: 0x5342, offset: 0x44C43, size: 0x8, addend: 0x0, symName: __ZN4absl12lts_2021110216strings_internal11BigUnsignedILi4EE10ReadDigitsEPKcS5_i, symObjAddr: 0xEC, symBinAddr: 0x9878, symSize: 0x2F8 }
  - { offsetInCU: 0x56CB, offset: 0x44FCC, size: 0x8, addend: 0x0, symName: __ZN4absl12lts_2021110216strings_internal11BigUnsignedILi4EE8Digits10Ev, symObjAddr: 0x3E4, symBinAddr: 0x9B70, symSize: 0x8 }
  - { offsetInCU: 0x56D6, offset: 0x44FD7, size: 0x8, addend: 0x0, symName: __ZN4absl12lts_2021110216strings_internal11BigUnsignedILi4EE21MultiplyByTenToTheNthEi, symObjAddr: 0x3EC, symBinAddr: 0x9B78, symSize: 0x6C }
  - { offsetInCU: 0x57E7, offset: 0x450E8, size: 0x8, addend: 0x0, symName: __ZN4absl12lts_2021110216strings_internal11BigUnsignedILi4EE10MultiplyByEj, symObjAddr: 0x668, symBinAddr: 0x9DF4, symSize: 0xA8 }
  - { offsetInCU: 0x58E3, offset: 0x451E4, size: 0x8, addend: 0x0, symName: __ZN4absl12lts_2021110216strings_internal11BigUnsignedILi4EE10ReadDigitsEPKcS5_i.cold.1, symObjAddr: 0x1B38, symBinAddr: 0x4F4D8, symSize: 0x28 }
  - { offsetInCU: 0x58FB, offset: 0x451FC, size: 0x8, addend: 0x0, symName: __ZN4absl12lts_2021110216strings_internal11BigUnsignedILi4EE8Digits10Ev, symObjAddr: 0x3E4, symBinAddr: 0x9B70, symSize: 0x8 }
  - { offsetInCU: 0x590F, offset: 0x45210, size: 0x8, addend: 0x0, symName: __ZN4absl12lts_2021110216strings_internal11BigUnsignedILi4EE22MultiplyByFiveToTheNthEi, symObjAddr: 0x804, symBinAddr: 0x9F90, symSize: 0x74 }
  - { offsetInCU: 0x596D, offset: 0x4526E, size: 0x8, addend: 0x0, symName: __ZN4absl12lts_2021110216strings_internal11BigUnsignedILi4EE9ShiftLeftEi, symObjAddr: 0x534, symBinAddr: 0x9CC0, symSize: 0x134 }
  - { offsetInCU: 0x5BEA, offset: 0x454EB, size: 0x8, addend: 0x0, symName: __ZN4absl12lts_2021110216strings_internal11BigUnsignedILi4EEC1ENS0_11string_viewE, symObjAddr: 0x458, symBinAddr: 0x9BE4, symSize: 0x4 }
  - { offsetInCU: 0x5C22, offset: 0x45523, size: 0x8, addend: 0x0, symName: __ZN4absl12lts_2021110216strings_internal11BigUnsignedILi4EEC1ENS0_11string_viewE, symObjAddr: 0x458, symBinAddr: 0x9BE4, symSize: 0x4 }
  - { offsetInCU: 0x5C41, offset: 0x45542, size: 0x8, addend: 0x0, symName: __ZN4absl12lts_2021110216strings_internal11BigUnsignedILi4EE17ReadFloatMantissaERKNS1_11ParsedFloatEi, symObjAddr: 0x45C, symBinAddr: 0x9BE8, symSize: 0xA0 }
  - { offsetInCU: 0x5D4C, offset: 0x4564D, size: 0x8, addend: 0x0, symName: __ZN4absl12lts_2021110216strings_internal11BigUnsignedILi4EE9SetToZeroEv, symObjAddr: 0x4FC, symBinAddr: 0x9C88, symSize: 0x38 }
  - { offsetInCU: 0x5D57, offset: 0x45658, size: 0x8, addend: 0x0, symName: __ZN4absl12lts_2021110216strings_internal11BigUnsignedILi4EE17ReadFloatMantissaERKNS1_11ParsedFloatEi.cold.1, symObjAddr: 0x1B60, symBinAddr: 0x4F500, symSize: 0x28 }
  - { offsetInCU: 0x5D6F, offset: 0x45670, size: 0x8, addend: 0x0, symName: __ZN4absl12lts_2021110216strings_internal11BigUnsignedILi4EE9SetToZeroEv, symObjAddr: 0x4FC, symBinAddr: 0x9C88, symSize: 0x38 }
  - { offsetInCU: 0x5E8A, offset: 0x4578B, size: 0x8, addend: 0x0, symName: __ZN4absl12lts_2021110216strings_internal11BigUnsignedILi4EE10MultiplyByEy, symObjAddr: 0x710, symBinAddr: 0x9E9C, symSize: 0x80 }
  - { offsetInCU: 0x5EF5, offset: 0x457F6, size: 0x8, addend: 0x0, symName: __ZN4absl12lts_2021110216strings_internal11BigUnsignedILi4EE10MultiplyByEiPKj, symObjAddr: 0x790, symBinAddr: 0x9F1C, symSize: 0x74 }
  - { offsetInCU: 0x5FA2, offset: 0x458A3, size: 0x8, addend: 0x0, symName: __ZN4absl12lts_2021110216strings_internal11BigUnsignedILi4EE12MultiplyStepEiPKjii, symObjAddr: 0xB70, symBinAddr: 0xA2FC, symSize: 0xC4 }
  - { offsetInCU: 0x6140, offset: 0x45A41, size: 0x8, addend: 0x0, symName: __ZN4absl12lts_2021110216strings_internal11BigUnsignedILi4EE12FiveToTheNthEi, symObjAddr: 0x878, symBinAddr: 0xA004, symSize: 0xEC }
  - { offsetInCU: 0x63F8, offset: 0x45CF9, size: 0x8, addend: 0x0, symName: __ZNK4absl12lts_2021110216strings_internal11BigUnsignedILi4EE7GetWordEi, symObjAddr: 0x964, symBinAddr: 0xA0F0, symSize: 0x24 }
  - { offsetInCU: 0x6600, offset: 0x45F01, size: 0x8, addend: 0x0, symName: __ZNK4absl12lts_2021110216strings_internal11BigUnsignedILi4EE8ToStringEv, symObjAddr: 0x988, symBinAddr: 0xA114, symSize: 0x100 }
  - { offsetInCU: 0x6986, offset: 0x46287, size: 0x8, addend: 0x0, symName: __ZN4absl12lts_2021110216strings_internal11BigUnsignedILi4EE6DivModILj10EEEjv, symObjAddr: 0xA90, symBinAddr: 0xA21C, symSize: 0x84 }
  - { offsetInCU: 0x69BB, offset: 0x462BC, size: 0x8, addend: 0x0, symName: __ZN4absl12lts_2021110216strings_internal11BigUnsignedILi4EE6DivModILj10EEEjv, symObjAddr: 0xA90, symBinAddr: 0xA21C, symSize: 0x84 }
  - { offsetInCU: 0x69E4, offset: 0x462E5, size: 0x8, addend: 0x0, symName: __ZNK4absl12lts_2021110216strings_internal11BigUnsignedILi4EE4sizeEv, symObjAddr: 0xA88, symBinAddr: 0xA214, symSize: 0x8 }
  - { offsetInCU: 0x6A07, offset: 0x46308, size: 0x8, addend: 0x0, symName: __ZNK4absl12lts_2021110216strings_internal11BigUnsignedILi4EE5wordsEv, symObjAddr: 0xB14, symBinAddr: 0xA2A0, symSize: 0x8 }
  - { offsetInCU: 0x6A2D, offset: 0x4632E, size: 0x8, addend: 0x0, symName: __ZN4absl12lts_2021110216strings_internal11BigUnsignedILi4EE12AddWithCarryEij, symObjAddr: 0xB1C, symBinAddr: 0xA2A8, symSize: 0x54 }
  - { offsetInCU: 0x6AF2, offset: 0x463F3, size: 0x8, addend: 0x0, symName: __ZN4absl12lts_2021110216strings_internal11BigUnsignedILi4EE12AddWithCarryEiy, symObjAddr: 0xC34, symBinAddr: 0xA3C0, symSize: 0xA8 }
  - { offsetInCU: 0x6CC8, offset: 0x465C9, size: 0x8, addend: 0x0, symName: __ZN4absl12lts_2021110216strings_internal11BigUnsignedILi84EEC2Ev, symObjAddr: 0xCDC, symBinAddr: 0xA468, symSize: 0x38 }
  - { offsetInCU: 0x6D07, offset: 0x46608, size: 0x8, addend: 0x0, symName: __ZN4absl12lts_2021110216strings_internal11BigUnsignedILi84EEC1Ev, symObjAddr: 0xD14, symBinAddr: 0xA4A0, symSize: 0x38 }
  - { offsetInCU: 0x6D33, offset: 0x46634, size: 0x8, addend: 0x0, symName: __ZN4absl12lts_2021110216strings_internal11BigUnsignedILi84EEC1Ev, symObjAddr: 0xD14, symBinAddr: 0xA4A0, symSize: 0x38 }
  - { offsetInCU: 0x6D4C, offset: 0x4664D, size: 0x8, addend: 0x0, symName: __ZN4absl12lts_2021110216strings_internal11BigUnsignedILi84EEC2Ey, symObjAddr: 0xD4C, symBinAddr: 0xA4D8, symSize: 0x7C }
  - { offsetInCU: 0x6D98, offset: 0x46699, size: 0x8, addend: 0x0, symName: __ZN4absl12lts_2021110216strings_internal11BigUnsignedILi84EEC1Ey, symObjAddr: 0xDC8, symBinAddr: 0xA554, symSize: 0x7C }
  - { offsetInCU: 0x6DC2, offset: 0x466C3, size: 0x8, addend: 0x0, symName: __ZN4absl12lts_2021110216strings_internal11BigUnsignedILi84EEC1Ey, symObjAddr: 0xDC8, symBinAddr: 0xA554, symSize: 0x7C }
  - { offsetInCU: 0x6DE2, offset: 0x466E3, size: 0x8, addend: 0x0, symName: __ZN4absl12lts_2021110216strings_internal11BigUnsignedILi84EEC2ENS0_11string_viewE, symObjAddr: 0xE44, symBinAddr: 0xA5D0, symSize: 0xB0 }
  - { offsetInCU: 0x6EA3, offset: 0x467A4, size: 0x8, addend: 0x0, symName: __ZN4absl12lts_2021110216strings_internal11BigUnsignedILi84EE10ReadDigitsEPKcS5_i, symObjAddr: 0xEF4, symBinAddr: 0xA680, symSize: 0x2F8 }
  - { offsetInCU: 0x722C, offset: 0x46B2D, size: 0x8, addend: 0x0, symName: __ZN4absl12lts_2021110216strings_internal11BigUnsignedILi84EE8Digits10Ev, symObjAddr: 0x11EC, symBinAddr: 0xA978, symSize: 0x8 }
  - { offsetInCU: 0x7237, offset: 0x46B38, size: 0x8, addend: 0x0, symName: __ZN4absl12lts_2021110216strings_internal11BigUnsignedILi84EE21MultiplyByTenToTheNthEi, symObjAddr: 0x11F4, symBinAddr: 0xA980, symSize: 0x6C }
  - { offsetInCU: 0x72F9, offset: 0x46BFA, size: 0x8, addend: 0x0, symName: __ZN4absl12lts_2021110216strings_internal11BigUnsignedILi84EE10MultiplyByEj, symObjAddr: 0x1470, symBinAddr: 0xABFC, symSize: 0xA8 }
  - { offsetInCU: 0x73F5, offset: 0x46CF6, size: 0x8, addend: 0x0, symName: __ZN4absl12lts_2021110216strings_internal11BigUnsignedILi84EE10ReadDigitsEPKcS5_i.cold.1, symObjAddr: 0x1B88, symBinAddr: 0x4F528, symSize: 0x28 }
  - { offsetInCU: 0x740D, offset: 0x46D0E, size: 0x8, addend: 0x0, symName: __ZN4absl12lts_2021110216strings_internal11BigUnsignedILi84EE8Digits10Ev, symObjAddr: 0x11EC, symBinAddr: 0xA978, symSize: 0x8 }
  - { offsetInCU: 0x7421, offset: 0x46D22, size: 0x8, addend: 0x0, symName: __ZN4absl12lts_2021110216strings_internal11BigUnsignedILi84EE22MultiplyByFiveToTheNthEi, symObjAddr: 0x160C, symBinAddr: 0xAD98, symSize: 0x74 }
  - { offsetInCU: 0x747F, offset: 0x46D80, size: 0x8, addend: 0x0, symName: __ZN4absl12lts_2021110216strings_internal11BigUnsignedILi84EE9ShiftLeftEi, symObjAddr: 0x133C, symBinAddr: 0xAAC8, symSize: 0x134 }
  - { offsetInCU: 0x76FC, offset: 0x46FFD, size: 0x8, addend: 0x0, symName: __ZN4absl12lts_2021110216strings_internal11BigUnsignedILi84EEC1ENS0_11string_viewE, symObjAddr: 0x1260, symBinAddr: 0xA9EC, symSize: 0x4 }
  - { offsetInCU: 0x7734, offset: 0x47035, size: 0x8, addend: 0x0, symName: __ZN4absl12lts_2021110216strings_internal11BigUnsignedILi84EEC1ENS0_11string_viewE, symObjAddr: 0x1260, symBinAddr: 0xA9EC, symSize: 0x4 }
  - { offsetInCU: 0x7753, offset: 0x47054, size: 0x8, addend: 0x0, symName: __ZN4absl12lts_2021110216strings_internal11BigUnsignedILi84EE17ReadFloatMantissaERKNS1_11ParsedFloatEi, symObjAddr: 0x1264, symBinAddr: 0xA9F0, symSize: 0xA0 }
  - { offsetInCU: 0x785E, offset: 0x4715F, size: 0x8, addend: 0x0, symName: __ZN4absl12lts_2021110216strings_internal11BigUnsignedILi84EE9SetToZeroEv, symObjAddr: 0x1304, symBinAddr: 0xAA90, symSize: 0x38 }
  - { offsetInCU: 0x7869, offset: 0x4716A, size: 0x8, addend: 0x0, symName: __ZN4absl12lts_2021110216strings_internal11BigUnsignedILi84EE17ReadFloatMantissaERKNS1_11ParsedFloatEi.cold.1, symObjAddr: 0x1BB0, symBinAddr: 0x4F550, symSize: 0x28 }
  - { offsetInCU: 0x7881, offset: 0x47182, size: 0x8, addend: 0x0, symName: __ZN4absl12lts_2021110216strings_internal11BigUnsignedILi84EE9SetToZeroEv, symObjAddr: 0x1304, symBinAddr: 0xAA90, symSize: 0x38 }
  - { offsetInCU: 0x791F, offset: 0x47220, size: 0x8, addend: 0x0, symName: __ZN4absl12lts_2021110216strings_internal11BigUnsignedILi84EE10MultiplyByEy, symObjAddr: 0x1518, symBinAddr: 0xACA4, symSize: 0x80 }
  - { offsetInCU: 0x798A, offset: 0x4728B, size: 0x8, addend: 0x0, symName: __ZN4absl12lts_2021110216strings_internal11BigUnsignedILi84EE10MultiplyByEiPKj, symObjAddr: 0x1598, symBinAddr: 0xAD24, symSize: 0x74 }
  - { offsetInCU: 0x7A37, offset: 0x47338, size: 0x8, addend: 0x0, symName: __ZN4absl12lts_2021110216strings_internal11BigUnsignedILi84EE12MultiplyStepEiPKjii, symObjAddr: 0x19CC, symBinAddr: 0xB158, symSize: 0xC4 }
  - { offsetInCU: 0x7B3E, offset: 0x4743F, size: 0x8, addend: 0x0, symName: __ZN4absl12lts_2021110216strings_internal11BigUnsignedILi84EE12FiveToTheNthEi, symObjAddr: 0x1680, symBinAddr: 0xAE0C, symSize: 0x138 }
  - { offsetInCU: 0x7DF6, offset: 0x476F7, size: 0x8, addend: 0x0, symName: __ZNK4absl12lts_2021110216strings_internal11BigUnsignedILi84EE7GetWordEi, symObjAddr: 0x17B8, symBinAddr: 0xAF44, symSize: 0x24 }
  - { offsetInCU: 0x7E46, offset: 0x47747, size: 0x8, addend: 0x0, symName: __ZNK4absl12lts_2021110216strings_internal11BigUnsignedILi84EE8ToStringEv, symObjAddr: 0x17DC, symBinAddr: 0xAF68, symSize: 0x108 }
  - { offsetInCU: 0x81CE, offset: 0x47ACF, size: 0x8, addend: 0x0, symName: __ZN4absl12lts_2021110216strings_internal11BigUnsignedILi84EE6DivModILj10EEEjv, symObjAddr: 0x18EC, symBinAddr: 0xB078, symSize: 0x84 }
  - { offsetInCU: 0x8203, offset: 0x47B04, size: 0x8, addend: 0x0, symName: __ZN4absl12lts_2021110216strings_internal11BigUnsignedILi84EE6DivModILj10EEEjv, symObjAddr: 0x18EC, symBinAddr: 0xB078, symSize: 0x84 }
  - { offsetInCU: 0x822C, offset: 0x47B2D, size: 0x8, addend: 0x0, symName: __ZNK4absl12lts_2021110216strings_internal11BigUnsignedILi84EE4sizeEv, symObjAddr: 0x18E4, symBinAddr: 0xB070, symSize: 0x8 }
  - { offsetInCU: 0x824F, offset: 0x47B50, size: 0x8, addend: 0x0, symName: __ZNK4absl12lts_2021110216strings_internal11BigUnsignedILi84EE5wordsEv, symObjAddr: 0x1970, symBinAddr: 0xB0FC, symSize: 0x8 }
  - { offsetInCU: 0x8275, offset: 0x47B76, size: 0x8, addend: 0x0, symName: __ZN4absl12lts_2021110216strings_internal11BigUnsignedILi84EE12AddWithCarryEij, symObjAddr: 0x1978, symBinAddr: 0xB104, symSize: 0x54 }
  - { offsetInCU: 0x833A, offset: 0x47C3B, size: 0x8, addend: 0x0, symName: __ZN4absl12lts_2021110216strings_internal11BigUnsignedILi84EE12AddWithCarryEiy, symObjAddr: 0x1A90, symBinAddr: 0xB21C, symSize: 0xA8 }
  - { offsetInCU: 0x26, offset: 0x47E48, size: 0x8, addend: 0x0, symName: __ZN4absl12lts_2021110216strings_internal10ParseFloatILi10EEENS1_11ParsedFloatEPKcS5_NS0_12chars_formatE, symObjAddr: 0x0, symBinAddr: 0xB2C4, symSize: 0x274 }
  - { offsetInCU: 0x91, offset: 0x47EB3, size: 0x8, addend: 0x0, symName: __ZN4absl12lts_2021110212_GLOBAL__N_111kAsciiToIntE, symObjAddr: 0xB2D, symBinAddr: 0x5A660, symSize: 0x0 }
  - { offsetInCU: 0xF7, offset: 0x47F19, size: 0x8, addend: 0x0, symName: __ZN4absl12lts_2021110212_GLOBAL__N_118ParseInfinityOrNanEPKcS3_PNS0_16strings_internal11ParsedFloatE, symObjAddr: 0x274, symBinAddr: 0xB538, symSize: 0x174 }
  - { offsetInCU: 0x1BE, offset: 0x47FE0, size: 0x8, addend: 0x0, symName: __ZN4absl12lts_2021110212_GLOBAL__N_113ConsumeDigitsILi10EyEEiPKcS4_iPT0_Pb, symObjAddr: 0x3E8, symBinAddr: 0xB6AC, symSize: 0x108 }
  - { offsetInCU: 0x2D3, offset: 0x480F5, size: 0x8, addend: 0x0, symName: __ZN4absl12lts_2021110212_GLOBAL__N_113ConsumeDigitsILi10EiEEiPKcS4_iPT0_Pb, symObjAddr: 0x4F0, symBinAddr: 0xB7B4, symSize: 0xD4 }
  - { offsetInCU: 0x2F0, offset: 0x48112, size: 0x8, addend: 0x0, symName: __ZN4absl12lts_2021110212_GLOBAL__N_113ConsumeDigitsILi10EiEEiPKcS4_iPT0_Pb, symObjAddr: 0x4F0, symBinAddr: 0xB7B4, symSize: 0xD4 }
  - { offsetInCU: 0x3E7, offset: 0x48209, size: 0x8, addend: 0x0, symName: __ZN4absl12lts_2021110216strings_internal10ParseFloatILi16EEENS1_11ParsedFloatEPKcS5_NS0_12chars_formatE, symObjAddr: 0x5C4, symBinAddr: 0xB888, symSize: 0x278 }
  - { offsetInCU: 0x494, offset: 0x482B6, size: 0x8, addend: 0x0, symName: __ZN4absl12lts_2021110212_GLOBAL__N_113ConsumeDigitsILi16EyEEiPKcS4_iPT0_Pb, symObjAddr: 0x83C, symBinAddr: 0xBB00, symSize: 0x10C }
  - { offsetInCU: 0x598, offset: 0x483BA, size: 0x8, addend: 0x0, symName: __ZN4absl12lts_2021110212_GLOBAL__N_113ConsumeDigitsILi10EyEEiPKcS4_iPT0_Pb.cold.1, symObjAddr: 0x948, symBinAddr: 0x4F578, symSize: 0x28 }
  - { offsetInCU: 0x64B, offset: 0x4846D, size: 0x8, addend: 0x0, symName: __ZN4absl12lts_2021110216strings_internal10ParseFloatILi10EEENS1_11ParsedFloatEPKcS5_NS0_12chars_formatE, symObjAddr: 0x0, symBinAddr: 0xB2C4, symSize: 0x274 }
  - { offsetInCU: 0x8B1, offset: 0x486D3, size: 0x8, addend: 0x0, symName: __ZN4absl12lts_2021110216strings_internal10ParseFloatILi16EEENS1_11ParsedFloatEPKcS5_NS0_12chars_formatE, symObjAddr: 0x5C4, symBinAddr: 0xB888, symSize: 0x278 }
  - { offsetInCU: 0x34E9, offset: 0x4B30B, size: 0x8, addend: 0x0, symName: __ZN4absl12lts_2021110212_GLOBAL__N_113ConsumeDigitsILi10EyEEiPKcS4_iPT0_Pb.cold.2, symObjAddr: 0x970, symBinAddr: 0x4F5A0, symSize: 0x24 }
  - { offsetInCU: 0x3501, offset: 0x4B323, size: 0x8, addend: 0x0, symName: __ZN4absl12lts_2021110212_GLOBAL__N_113ConsumeDigitsILi10EyEEiPKcS4_iPT0_Pb.cold.3, symObjAddr: 0x994, symBinAddr: 0x4F5C4, symSize: 0x28 }
  - { offsetInCU: 0x3519, offset: 0x4B33B, size: 0x8, addend: 0x0, symName: __ZN4absl12lts_2021110212_GLOBAL__N_113ConsumeDigitsILi10EyEEiPKcS4_iPT0_Pb.cold.1, symObjAddr: 0x948, symBinAddr: 0x4F578, symSize: 0x28 }
  - { offsetInCU: 0x3531, offset: 0x4B353, size: 0x8, addend: 0x0, symName: __ZN4absl12lts_2021110212_GLOBAL__N_113ConsumeDigitsILi10EiEEiPKcS4_iPT0_Pb.cold.1, symObjAddr: 0x9BC, symBinAddr: 0x4F5EC, symSize: 0x24 }
  - { offsetInCU: 0x3549, offset: 0x4B36B, size: 0x8, addend: 0x0, symName: __ZN4absl12lts_2021110212_GLOBAL__N_113ConsumeDigitsILi16EyEEiPKcS4_iPT0_Pb.cold.2, symObjAddr: 0xA08, symBinAddr: 0x4F638, symSize: 0x24 }
  - { offsetInCU: 0x3561, offset: 0x4B383, size: 0x8, addend: 0x0, symName: __ZN4absl12lts_2021110212_GLOBAL__N_113ConsumeDigitsILi16EyEEiPKcS4_iPT0_Pb.cold.3, symObjAddr: 0xA2C, symBinAddr: 0x4F65C, symSize: 0x28 }
  - { offsetInCU: 0x3579, offset: 0x4B39B, size: 0x8, addend: 0x0, symName: __ZN4absl12lts_2021110212_GLOBAL__N_113ConsumeDigitsILi16EyEEiPKcS4_iPT0_Pb.cold.1, symObjAddr: 0x9E0, symBinAddr: 0x4F610, symSize: 0x28 }
  - { offsetInCU: 0x3591, offset: 0x4B3B3, size: 0x8, addend: 0x0, symName: _OUTLINED_FUNCTION_0, symObjAddr: 0xA54, symBinAddr: 0xBC0C, symSize: 0x8 }
  - { offsetInCU: 0x26, offset: 0x4B400, size: 0x8, addend: 0x0, symName: __ZN4absl12lts_2021110213hash_internal10CityHash32EPKcm, symObjAddr: 0x0, symBinAddr: 0xBC14, symSize: 0x440 }
  - { offsetInCU: 0x230, offset: 0x4B60A, size: 0x8, addend: 0x0, symName: __ZN4absl12lts_2021110213hash_internal10CityHash32EPKcm, symObjAddr: 0x0, symBinAddr: 0xBC14, symSize: 0x440 }
  - { offsetInCU: 0x125D, offset: 0x4C637, size: 0x8, addend: 0x0, symName: __ZN4absl12lts_2021110213hash_internal10CityHash64EPKcm, symObjAddr: 0x440, symBinAddr: 0xC054, symSize: 0x3B8 }
  - { offsetInCU: 0x1F6B, offset: 0x4D345, size: 0x8, addend: 0x0, symName: __ZN4absl12lts_2021110213hash_internal18CityHash64WithSeedEPKcmy, symObjAddr: 0x7F8, symBinAddr: 0xC40C, symSize: 0x60 }
  - { offsetInCU: 0x2087, offset: 0x4D461, size: 0x8, addend: 0x0, symName: __ZN4absl12lts_2021110213hash_internal19CityHash64WithSeedsEPKcmyy, symObjAddr: 0x858, symBinAddr: 0xC46C, symSize: 0x54 }
  - { offsetInCU: 0xD55, offset: 0x50D8E, size: 0x8, addend: 0x0, symName: __ZN4absl12lts_2021110213time_internal4cctz6detail4impl5n_secExxxxxx, symObjAddr: 0x1D68, symBinAddr: 0xE228, symSize: 0x28C }
  - { offsetInCU: 0xFD3, offset: 0x5100C, size: 0x8, addend: 0x0, symName: __ZN4absl12lts_2021110213time_internal4cctz6detail4impl6n_hourExxxxxaa, symObjAddr: 0x2000, symBinAddr: 0xE4B4, symSize: 0x7C }
  - { offsetInCU: 0x10B7, offset: 0x510F0, size: 0x8, addend: 0x0, symName: __ZN4absl12lts_2021110213time_internal4cctz6detail4impl5n_dayExaxxaaa, symObjAddr: 0x207C, symBinAddr: 0xE530, symSize: 0x3D0 }
  - { offsetInCU: 0x1717, offset: 0x51750, size: 0x8, addend: 0x0, symName: __ZN4absl12lts_2021110213time_internallsERNSt3__113basic_ostreamIcNS2_11char_traitsIcEEEENS1_4cctz6detail10civil_timeINS1_8year_tagEEE, symObjAddr: 0x19D8, symBinAddr: 0xDE98, symSize: 0x98 }
  - { offsetInCU: 0x1A67, offset: 0x51AA0, size: 0x8, addend: 0x0, symName: __ZN4absl12lts_2021110213time_internallsERNSt3__113basic_ostreamIcNS2_11char_traitsIcEEEENS1_4cctz6detail10civil_timeINS1_9month_tagEEE, symObjAddr: 0x1A70, symBinAddr: 0xDF30, symSize: 0x98 }
  - { offsetInCU: 0x1DB7, offset: 0x51DF0, size: 0x8, addend: 0x0, symName: __ZN4absl12lts_2021110213time_internallsERNSt3__113basic_ostreamIcNS2_11char_traitsIcEEEENS1_4cctz6detail10civil_timeINS1_7day_tagEEE, symObjAddr: 0x1B08, symBinAddr: 0xDFC8, symSize: 0x98 }
  - { offsetInCU: 0x2107, offset: 0x52140, size: 0x8, addend: 0x0, symName: __ZN4absl12lts_2021110213time_internallsERNSt3__113basic_ostreamIcNS2_11char_traitsIcEEEENS1_4cctz6detail10civil_timeINS1_8hour_tagEEE, symObjAddr: 0x1BA0, symBinAddr: 0xE060, symSize: 0x98 }
  - { offsetInCU: 0x2457, offset: 0x52490, size: 0x8, addend: 0x0, symName: __ZN4absl12lts_2021110213time_internallsERNSt3__113basic_ostreamIcNS2_11char_traitsIcEEEENS1_4cctz6detail10civil_timeINS1_10minute_tagEEE, symObjAddr: 0x1C38, symBinAddr: 0xE0F8, symSize: 0x98 }
  - { offsetInCU: 0x27A7, offset: 0x527E0, size: 0x8, addend: 0x0, symName: __ZN4absl12lts_2021110213time_internallsERNSt3__113basic_ostreamIcNS2_11char_traitsIcEEEENS1_4cctz6detail10civil_timeINS1_10second_tagEEE, symObjAddr: 0x1CD0, symBinAddr: 0xE190, symSize: 0x98 }
  - { offsetInCU: 0x3596, offset: 0x535CF, size: 0x8, addend: 0x0, symName: __ZN4absl12lts_2021110215FormatCivilTimeENS0_13time_internal4cctz6detail10civil_timeINS1_10second_tagEEE, symObjAddr: 0x0, symBinAddr: 0xC4C0, symSize: 0x18 }
  - { offsetInCU: 0x35DA, offset: 0x53613, size: 0x8, addend: 0x0, symName: __ZN4absl12lts_2021110212_GLOBAL__N_113FormatYearAndENS0_11string_viewENS0_13time_internal4cctz6detail10civil_timeINS3_10second_tagEEE, symObjAddr: 0x18, symBinAddr: 0xC4D8, symSize: 0x198 }
  - { offsetInCU: 0x4C03, offset: 0x54C3C, size: 0x8, addend: 0x0, symName: __ZN4absl12lts_2021110215FormatCivilTimeENS0_13time_internal4cctz6detail10civil_timeINS1_10minute_tagEEE, symObjAddr: 0x1B0, symBinAddr: 0xC670, symSize: 0x18 }
  - { offsetInCU: 0x4C46, offset: 0x54C7F, size: 0x8, addend: 0x0, symName: __ZN4absl12lts_2021110215FormatCivilTimeENS0_13time_internal4cctz6detail10civil_timeINS1_8hour_tagEEE, symObjAddr: 0x1C8, symBinAddr: 0xC688, symSize: 0x18 }
  - { offsetInCU: 0x4C89, offset: 0x54CC2, size: 0x8, addend: 0x0, symName: __ZN4absl12lts_2021110215FormatCivilTimeENS0_13time_internal4cctz6detail10civil_timeINS1_7day_tagEEE, symObjAddr: 0x1E0, symBinAddr: 0xC6A0, symSize: 0x18 }
  - { offsetInCU: 0x4CCC, offset: 0x54D05, size: 0x8, addend: 0x0, symName: __ZN4absl12lts_2021110215FormatCivilTimeENS0_13time_internal4cctz6detail10civil_timeINS1_9month_tagEEE, symObjAddr: 0x1F8, symBinAddr: 0xC6B8, symSize: 0x18 }
  - { offsetInCU: 0x4D0F, offset: 0x54D48, size: 0x8, addend: 0x0, symName: __ZN4absl12lts_2021110215FormatCivilTimeENS0_13time_internal4cctz6detail10civil_timeINS1_8year_tagEEE, symObjAddr: 0x210, symBinAddr: 0xC6D0, symSize: 0x18 }
  - { offsetInCU: 0x4D7C, offset: 0x54DB5, size: 0x8, addend: 0x0, symName: __ZN4absl12lts_2021110214ParseCivilTimeENS0_11string_viewEPNS0_13time_internal4cctz6detail10civil_timeINS2_10second_tagEEE, symObjAddr: 0x228, symBinAddr: 0xC6E8, symSize: 0x2B0 }
  - { offsetInCU: 0x5AC0, offset: 0x55AF9, size: 0x8, addend: 0x0, symName: __ZN4absl12lts_2021110214ParseCivilTimeENS0_11string_viewEPNS0_13time_internal4cctz6detail10civil_timeINS2_10minute_tagEEE, symObjAddr: 0x4D8, symBinAddr: 0xC998, symSize: 0x2B4 }
  - { offsetInCU: 0x682F, offset: 0x56868, size: 0x8, addend: 0x0, symName: __ZN4absl12lts_2021110214ParseCivilTimeENS0_11string_viewEPNS0_13time_internal4cctz6detail10civil_timeINS2_8hour_tagEEE, symObjAddr: 0x78C, symBinAddr: 0xCC4C, symSize: 0x2B4 }
  - { offsetInCU: 0x759E, offset: 0x575D7, size: 0x8, addend: 0x0, symName: __ZN4absl12lts_2021110214ParseCivilTimeENS0_11string_viewEPNS0_13time_internal4cctz6detail10civil_timeINS2_7day_tagEEE, symObjAddr: 0xA40, symBinAddr: 0xCF00, symSize: 0x2B4 }
  - { offsetInCU: 0x830D, offset: 0x58346, size: 0x8, addend: 0x0, symName: __ZN4absl12lts_2021110214ParseCivilTimeENS0_11string_viewEPNS0_13time_internal4cctz6detail10civil_timeINS2_9month_tagEEE, symObjAddr: 0xCF4, symBinAddr: 0xD1B4, symSize: 0x2B8 }
  - { offsetInCU: 0x907C, offset: 0x590B5, size: 0x8, addend: 0x0, symName: __ZN4absl12lts_2021110214ParseCivilTimeENS0_11string_viewEPNS0_13time_internal4cctz6detail10civil_timeINS2_8year_tagEEE, symObjAddr: 0xFAC, symBinAddr: 0xD46C, symSize: 0x2B0 }
  - { offsetInCU: 0x9DA0, offset: 0x59DD9, size: 0x8, addend: 0x0, symName: __ZN4absl12lts_2021110221ParseLenientCivilTimeENS0_11string_viewEPNS0_13time_internal4cctz6detail10civil_timeINS2_10second_tagEEE, symObjAddr: 0x125C, symBinAddr: 0xD71C, symSize: 0x138 }
  - { offsetInCU: 0xA434, offset: 0x5A46D, size: 0x8, addend: 0x0, symName: __ZN4absl12lts_2021110221ParseLenientCivilTimeENS0_11string_viewEPNS0_13time_internal4cctz6detail10civil_timeINS2_10minute_tagEEE, symObjAddr: 0x1394, symBinAddr: 0xD854, symSize: 0x14C }
  - { offsetInCU: 0xAAC8, offset: 0x5AB01, size: 0x8, addend: 0x0, symName: __ZN4absl12lts_2021110221ParseLenientCivilTimeENS0_11string_viewEPNS0_13time_internal4cctz6detail10civil_timeINS2_8hour_tagEEE, symObjAddr: 0x14E0, symBinAddr: 0xD9A0, symSize: 0x14C }
  - { offsetInCU: 0xB1A7, offset: 0x5B1E0, size: 0x8, addend: 0x0, symName: __ZN4absl12lts_2021110221ParseLenientCivilTimeENS0_11string_viewEPNS0_13time_internal4cctz6detail10civil_timeINS2_7day_tagEEE, symObjAddr: 0x162C, symBinAddr: 0xDAEC, symSize: 0x14C }
  - { offsetInCU: 0xB83B, offset: 0x5B874, size: 0x8, addend: 0x0, symName: __ZN4absl12lts_2021110221ParseLenientCivilTimeENS0_11string_viewEPNS0_13time_internal4cctz6detail10civil_timeINS2_9month_tagEEE, symObjAddr: 0x1778, symBinAddr: 0xDC38, symSize: 0x154 }
  - { offsetInCU: 0xBF1A, offset: 0x5BF53, size: 0x8, addend: 0x0, symName: __ZN4absl12lts_2021110221ParseLenientCivilTimeENS0_11string_viewEPNS0_13time_internal4cctz6detail10civil_timeINS2_8year_tagEEE, symObjAddr: 0x18CC, symBinAddr: 0xDD8C, symSize: 0x10C }
  - { offsetInCU: 0x12595, offset: 0x625CE, size: 0x8, addend: 0x0, symName: __ZN4absl12lts_202111028AlphaNumC2Ex, symObjAddr: 0x244C, symBinAddr: 0xE900, symSize: 0x44 }
  - { offsetInCU: 0x12880, offset: 0x628B9, size: 0x8, addend: 0x0, symName: __ZNSt3__112basic_stringIcNS_11char_traitsIcEENS_9allocatorIcEEEC2B7v160006EPKcm, symObjAddr: 0x2850, symBinAddr: 0xE944, symSize: 0x94 }
  - { offsetInCU: 0x12BBD, offset: 0x62BF6, size: 0x8, addend: 0x0, symName: __ZN4absl12lts_202111028AlphaNumC2Ex.cold.1, symObjAddr: 0x28E4, symBinAddr: 0x4F684, symSize: 0x28 }
  - { offsetInCU: 0x132FA, offset: 0x63333, size: 0x8, addend: 0x0, symName: __ZN4absl12lts_202111028AlphaNumC2Ex.cold.1, symObjAddr: 0x28E4, symBinAddr: 0x4F684, symSize: 0x28 }
  - { offsetInCU: 0x3E39, offset: 0x67820, size: 0x8, addend: 0x0, symName: __ZNSt3__1lsB7v160006INS_11char_traitsIcEEEERNS_13basic_ostreamIcT_EES6_RKNS_8__iom_t4IcEE, symObjAddr: 0x43C, symBinAddr: 0xEE14, symSize: 0xA0 }
  - { offsetInCU: 0x50C0, offset: 0x68AA7, size: 0x8, addend: 0x0, symName: __ZN4absl12lts_2021110213time_internal4cctz6detaillsERNSt3__113basic_ostreamIcNS4_11char_traitsIcEEEERKNS3_10civil_timeINS3_8year_tagEEE, symObjAddr: 0x0, symBinAddr: 0xE9D8, symSize: 0x130 }
  - { offsetInCU: 0x55BC, offset: 0x68FA3, size: 0x8, addend: 0x0, symName: __ZN4absl12lts_2021110213time_internal4cctz6detaillsERNSt3__113basic_ostreamIcNS4_11char_traitsIcEEEERKNS3_10civil_timeINS3_9month_tagEEE, symObjAddr: 0x2AC, symBinAddr: 0xEC84, symSize: 0x190 }
  - { offsetInCU: 0x5C18, offset: 0x695FF, size: 0x8, addend: 0x0, symName: __ZN4absl12lts_2021110213time_internal4cctz6detaillsERNSt3__113basic_ostreamIcNS4_11char_traitsIcEEEERKNS3_10civil_timeINS3_7day_tagEEE, symObjAddr: 0x4DC, symBinAddr: 0xEEB4, symSize: 0x194 }
  - { offsetInCU: 0x626C, offset: 0x69C53, size: 0x8, addend: 0x0, symName: __ZN4absl12lts_2021110213time_internal4cctz6detaillsERNSt3__113basic_ostreamIcNS4_11char_traitsIcEEEERKNS3_10civil_timeINS3_8hour_tagEEE, symObjAddr: 0x670, symBinAddr: 0xF048, symSize: 0x190 }
  - { offsetInCU: 0x68C8, offset: 0x6A2AF, size: 0x8, addend: 0x0, symName: __ZN4absl12lts_2021110213time_internal4cctz6detaillsERNSt3__113basic_ostreamIcNS4_11char_traitsIcEEEERKNS3_10civil_timeINS3_10minute_tagEEE, symObjAddr: 0x800, symBinAddr: 0xF1D8, symSize: 0x190 }
  - { offsetInCU: 0x6F1C, offset: 0x6A903, size: 0x8, addend: 0x0, symName: __ZN4absl12lts_2021110213time_internal4cctz6detaillsERNSt3__113basic_ostreamIcNS4_11char_traitsIcEEEERKNS3_10civil_timeINS3_10second_tagEEE, symObjAddr: 0x990, symBinAddr: 0xF368, symSize: 0x190 }
  - { offsetInCU: 0x7552, offset: 0x6AF39, size: 0x8, addend: 0x0, symName: __ZN4absl12lts_2021110213time_internal4cctz6detaillsERNSt3__113basic_ostreamIcNS4_11char_traitsIcEEEENS3_7weekdayE, symObjAddr: 0xB20, symBinAddr: 0xF4F8, symSize: 0x8C }
  - { offsetInCU: 0x98C2, offset: 0x6D2A9, size: 0x8, addend: 0x0, symName: __ZNSt3__118basic_stringstreamIcNS_11char_traitsIcEENS_9allocatorIcEEEC1B7v160006Ev, symObjAddr: 0x130, symBinAddr: 0xEB08, symSize: 0xE8 }
  - { offsetInCU: 0x9A72, offset: 0x6D459, size: 0x8, addend: 0x0, symName: __ZNSt3__118basic_stringstreamIcNS_11char_traitsIcEENS_9allocatorIcEEED1Ev, symObjAddr: 0x218, symBinAddr: 0xEBF0, symSize: 0x94 }
  - { offsetInCU: 0xA0FF, offset: 0x6DAE6, size: 0x8, addend: 0x0, symName: __ZThn16_NSt3__118basic_stringstreamIcNS_11char_traitsIcEENS_9allocatorIcEEED1Ev, symObjAddr: 0xBAC, symBinAddr: 0xF584, symSize: 0x8C }
  - { offsetInCU: 0xA2A5, offset: 0x6DC8C, size: 0x8, addend: 0x0, symName: __ZTv0_n24_NSt3__118basic_stringstreamIcNS_11char_traitsIcEENS_9allocatorIcEEED1Ev, symObjAddr: 0xC38, symBinAddr: 0xF610, symSize: 0x94 }
  - { offsetInCU: 0xA449, offset: 0x6DE30, size: 0x8, addend: 0x0, symName: __ZNSt3__118basic_stringstreamIcNS_11char_traitsIcEENS_9allocatorIcEEED0Ev, symObjAddr: 0xCCC, symBinAddr: 0xF6A4, symSize: 0x94 }
  - { offsetInCU: 0xA612, offset: 0x6DFF9, size: 0x8, addend: 0x0, symName: __ZThn16_NSt3__118basic_stringstreamIcNS_11char_traitsIcEENS_9allocatorIcEEED0Ev, symObjAddr: 0xD60, symBinAddr: 0xF738, symSize: 0x94 }
  - { offsetInCU: 0xA7D6, offset: 0x6E1BD, size: 0x8, addend: 0x0, symName: __ZTv0_n24_NSt3__118basic_stringstreamIcNS_11char_traitsIcEENS_9allocatorIcEEED0Ev, symObjAddr: 0xDF4, symBinAddr: 0xF7CC, symSize: 0x9C }
  - { offsetInCU: 0x26, offset: 0x6EB86, size: 0x8, addend: 0x0, symName: __ZN4absl12lts_202111023NowEv, symObjAddr: 0x0, symBinAddr: 0xF868, symSize: 0x84 }
  - { offsetInCU: 0x1A3, offset: 0x6ED03, size: 0x8, addend: 0x0, symName: __ZN4absl12lts_202111023NowEv, symObjAddr: 0x0, symBinAddr: 0xF868, symSize: 0x84 }
  - { offsetInCU: 0x2B2, offset: 0x6EE12, size: 0x8, addend: 0x0, symName: __ZN4absl12lts_2021110219GetCurrentTimeNanosEv, symObjAddr: 0x84, symBinAddr: 0xF8EC, symSize: 0x34 }
  - { offsetInCU: 0x32E9, offset: 0x71E49, size: 0x8, addend: 0x0, symName: _AbslInternalSleepFor_lts_20211102, symObjAddr: 0xB8, symBinAddr: 0xF920, symSize: 0xAC }
  - { offsetInCU: 0x57, offset: 0x71FC9, size: 0x8, addend: 0x0, symName: __ZN4absl12lts_202111024Cord9InlineRep10kMaxInlineE, symObjAddr: 0xC0DD, symBinAddr: 0x5A7ED, symSize: 0x0 }
  - { offsetInCU: 0x341F, offset: 0x75391, size: 0x8, addend: 0x0, symName: __ZN4absl12lts_2021110213cord_internal25InitializeCordRepExternalENS0_11string_viewEPNS1_15CordRepExternalE, symObjAddr: 0x374, symBinAddr: 0xFD40, symSize: 0x2C }
  - { offsetInCU: 0x3468, offset: 0x753DA, size: 0x8, addend: 0x0, symName: __ZN4absl12lts_20211102L10VerifyTreeEPNS0_13cord_internal7CordRepE, symObjAddr: 0x3A0, symBinAddr: 0xFD6C, symSize: 0x698 }
  - { offsetInCU: 0x7E1A, offset: 0x79D8C, size: 0x8, addend: 0x0, symName: __ZN4absl12lts_20211102L10min_lengthE, symObjAddr: 0xC168, symBinAddr: 0x5A838, symSize: 0x0 }
  - { offsetInCU: 0x7E28, offset: 0x79D9A, size: 0x8, addend: 0x0, symName: __ZN4absl12lts_20211102L17CordRepFromStringEONSt3__112basic_stringIcNS1_11char_traitsIcEENS1_9allocatorIcEEEE, symObjAddr: 0xE4, symBinAddr: 0xFAB0, symSize: 0x16C }
  - { offsetInCU: 0x8B77, offset: 0x7AAE9, size: 0x8, addend: 0x0, symName: __ZN4absl12lts_20211102L7NewTreeEPKcmm, symObjAddr: 0x13E8, symBinAddr: 0x10DB4, symSize: 0x2EC }
  - { offsetInCU: 0x9429, offset: 0x7B39B, size: 0x8, addend: 0x0, symName: __ZN4absl12lts_20211102L10VerifyTreeEPNS0_13cord_internal7CordRepE, symObjAddr: 0x3A0, symBinAddr: 0xFD6C, symSize: 0x698 }
  - { offsetInCU: 0xBC3E, offset: 0x7DBB0, size: 0x8, addend: 0x0, symName: __ZN4absl12lts_20211102L11ReportErrorEPNS0_13cord_internal7CordRepES3_, symObjAddr: 0x6134, symBinAddr: 0x15ABC, symSize: 0x73C }
  - { offsetInCU: 0xD857, offset: 0x7F7C9, size: 0x8, addend: 0x0, symName: __ZN4absl12lts_20211102L6ConcatEPNS0_13cord_internal7CordRepES3_, symObjAddr: 0xB5C, symBinAddr: 0x10528, symSize: 0x128 }
  - { offsetInCU: 0xDF1A, offset: 0x7FE8C, size: 0x8, addend: 0x0, symName: __ZN4absl12lts_20211102L9RawConcatEPNS0_13cord_internal7CordRepES3_, symObjAddr: 0x7850, symBinAddr: 0x1658C, symSize: 0x120 }
  - { offsetInCU: 0xE323, offset: 0x80295, size: 0x8, addend: 0x0, symName: __ZN4absl12lts_20211102L10ForceBtreeEPNS0_13cord_internal7CordRepE, symObjAddr: 0xE18, symBinAddr: 0x107E4, symSize: 0x80 }
  - { offsetInCU: 0xE75C, offset: 0x806CE, size: 0x8, addend: 0x0, symName: __ZN4absl12lts_20211102L12NewSubstringEPNS0_13cord_internal7CordRepEmm, symObjAddr: 0x51F0, symBinAddr: 0x14B78, symSize: 0xBC }
  - { offsetInCU: 0xF18E, offset: 0x81100, size: 0x8, addend: 0x0, symName: __ZN4absl12lts_2021110214GenericCompareIbNS0_11string_viewEEET_RKNS0_4CordERKT0_m, symObjAddr: 0x3F28, symBinAddr: 0x138F4, symSize: 0x8C }
  - { offsetInCU: 0xF27D, offset: 0x811EF, size: 0x8, addend: 0x0, symName: __ZNK4absl12lts_202111024Cord10EqualsImplERKS1_m, symObjAddr: 0x3FB4, symBinAddr: 0x13980, symSize: 0x4 }
  - { offsetInCU: 0xF29A, offset: 0x8120C, size: 0x8, addend: 0x0, symName: __ZN4absl12lts_2021110214GenericCompareIbNS0_4CordEEET_RKS2_RKT0_m, symObjAddr: 0x3FB8, symBinAddr: 0x13984, symSize: 0x98 }
  - { offsetInCU: 0xF3B4, offset: 0x81326, size: 0x8, addend: 0x0, symName: __ZNK4absl12lts_202111024Cord7CompareENS0_11string_viewE, symObjAddr: 0x4050, symBinAddr: 0x13A1C, symSize: 0x70 }
  - { offsetInCU: 0xF437, offset: 0x813A9, size: 0x8, addend: 0x0, symName: __ZN4absl12lts_2021110214GenericCompareIiNS0_11string_viewEEET_RKNS0_4CordERKT0_m, symObjAddr: 0x9B64, symBinAddr: 0x18804, symSize: 0x90 }
  - { offsetInCU: 0xF526, offset: 0x81498, size: 0x8, addend: 0x0, symName: __ZN4absl12lts_2021110214GenericCompareIiNS0_4CordEEET_RKS2_RKT0_m, symObjAddr: 0x9BF4, symBinAddr: 0x18894, symSize: 0x9C }
  - { offsetInCU: 0xF5A9, offset: 0x8151B, size: 0x8, addend: 0x0, symName: __ZN4absl12lts_2021110214GenericCompareIiNS0_4CordEEET_RKS2_RKT0_m, symObjAddr: 0x9BF4, symBinAddr: 0x18894, symSize: 0x9C }
  - { offsetInCU: 0xF6C3, offset: 0x81635, size: 0x8, addend: 0x0, symName: '__ZN4absl12lts_2021110213cord_internal19CordRepExternalImplIZNS0_4Cord15FlattenSlowPathEvE3$_2E7ReleaseEPNS1_15CordRepExternalE', symObjAddr: 0x9C90, symBinAddr: 0x18930, symSize: 0x68 }
  - { offsetInCU: 0xF6E0, offset: 0x81652, size: 0x8, addend: 0x0, symName: __ZN4absl12lts_2021110216CopyCordToStringERKNS0_4CordEPNSt3__112basic_stringIcNS4_11char_traitsIcEENS4_9allocatorIcEEEE, symObjAddr: 0x4388, symBinAddr: 0x13D54, symSize: 0x60 }
  - { offsetInCU: 0x10052, offset: 0x81FC4, size: 0x8, addend: 0x0, symName: __ZN4absl12lts_20211102L18RepMemoryUsageLeafEPKNS0_13cord_internal7CordRepEPm, symObjAddr: 0x5C48, symBinAddr: 0x155D0, symSize: 0x7C }
  - { offsetInCU: 0x100E9, offset: 0x8205B, size: 0x8, addend: 0x0, symName: __ZN4absl12lts_2021110213InlinedVectorIPKNS0_13cord_internal7CordRepELm47ENSt3__19allocatorIS5_EEE4backEv, symObjAddr: 0x5CC4, symBinAddr: 0x1564C, symSize: 0x3C }
  - { offsetInCU: 0x100F4, offset: 0x82066, size: 0x8, addend: 0x0, symName: __ZN4absl12lts_20211102lsERNSt3__113basic_ostreamIcNS1_11char_traitsIcEEEERKNS0_4CordE, symObjAddr: 0x5D4C, symBinAddr: 0x156D4, symSize: 0x1C0 }
  - { offsetInCU: 0x10E0E, offset: 0x82D80, size: 0x8, addend: 0x0, symName: __ZN4absl12lts_2021110212_GLOBAL__N_113CompareChunksEPNS0_11string_viewES3_Pm, symObjAddr: 0x96F0, symBinAddr: 0x18390, symSize: 0x98 }
  - { offsetInCU: 0x10F66, offset: 0x82ED8, size: 0x8, addend: 0x0, symName: __ZNK4absl12lts_202111024Cord15CompareSlowPathERKS1_mm, symObjAddr: 0x9788, symBinAddr: 0x18428, symSize: 0x3DC }
  - { offsetInCU: 0x1A024, offset: 0x8BF96, size: 0x8, addend: 0x0, symName: __ZNSt3__119__allocate_at_leastB7v160006INS_9allocatorIPN4absl12lts_2021110213cord_internal7CordRepEEEEENS_19__allocation_resultINS_16allocator_traitsIT_E7pointerEEERSA_m, symObjAddr: 0x82D8, symBinAddr: 0x17014, symSize: 0x34 }
  - { offsetInCU: 0x1A0B7, offset: 0x8C029, size: 0x8, addend: 0x0, symName: __ZN4absl12lts_2021110213InlinedVectorIPNS0_13cord_internal7CordRepELm47ENSt3__19allocatorIS4_EEEixEm, symObjAddr: 0x830C, symBinAddr: 0x17048, symSize: 0x30 }
  - { offsetInCU: 0x1ADC0, offset: 0x8CD32, size: 0x8, addend: 0x0, symName: __ZN4absl12lts_202111024Cord15FlattenSlowPathEv, symObjAddr: 0x5534, symBinAddr: 0x14EBC, symSize: 0x1FC }
  - { offsetInCU: 0x1D585, offset: 0x8F4F7, size: 0x8, addend: 0x0, symName: __ZN4absl12lts_202111024CordC2INSt3__112basic_stringIcNS3_11char_traitsIcEENS3_9allocatorIcEEEELi0EEEOT_, symObjAddr: 0x0, symBinAddr: 0xF9CC, symSize: 0xE4 }
  - { offsetInCU: 0x1D79A, offset: 0x8F70C, size: 0x8, addend: 0x0, symName: __ZN4absl12lts_20211102L17CordRepFromStringEONSt3__112basic_stringIcNS1_11char_traitsIcEENS1_9allocatorIcEEEE, symObjAddr: 0xE4, symBinAddr: 0xFAB0, symSize: 0x16C }
  - { offsetInCU: 0x1D7B4, offset: 0x8F726, size: 0x8, addend: 0x0, symName: __ZN4absl12lts_202111024CordC2INSt3__112basic_stringIcNS3_11char_traitsIcEENS3_9allocatorIcEEEELi0EEEOT_.cold.1, symObjAddr: 0x9E48, symBinAddr: 0x4F6AC, symSize: 0x24 }
  - { offsetInCU: 0x1DC9B, offset: 0x8FC0D, size: 0x8, addend: 0x0, symName: __ZN4absl12lts_20211102L17CordRepFromStringEONSt3__112basic_stringIcNS1_11char_traitsIcEENS1_9allocatorIcEEEE.cold.1, symObjAddr: 0x9E6C, symBinAddr: 0x4F6D0, symSize: 0x28 }
  - { offsetInCU: 0x1DCB3, offset: 0x8FC25, size: 0x8, addend: 0x0, symName: __ZN4absl12lts_202111024CordC1INSt3__112basic_stringIcNS3_11char_traitsIcEENS3_9allocatorIcEEEELi0EEEOT_, symObjAddr: 0x250, symBinAddr: 0xFC1C, symSize: 0x4 }
  - { offsetInCU: 0x1DCF0, offset: 0x8FC62, size: 0x8, addend: 0x0, symName: __ZN4absl12lts_202111024CordC1INSt3__112basic_stringIcNS3_11char_traitsIcEENS3_9allocatorIcEEEELi0EEEOT_, symObjAddr: 0x250, symBinAddr: 0xFC1C, symSize: 0x4 }
  - { offsetInCU: 0x1DD41, offset: 0x8FCB3, size: 0x8, addend: 0x0, symName: __ZN4absl12lts_202111024Cord6AppendINSt3__112basic_stringIcNS3_11char_traitsIcEENS3_9allocatorIcEEEELi0EEEvOT_, symObjAddr: 0x254, symBinAddr: 0xFC20, symSize: 0x70 }
  - { offsetInCU: 0x1DE9B, offset: 0x8FE0D, size: 0x8, addend: 0x0, symName: __ZN4absl12lts_202111024Cord9InlineRep10AppendTreeEPNS0_13cord_internal7CordRepENS3_18CordzUpdateTracker16MethodIdentifierE, symObjAddr: 0x2C4, symBinAddr: 0xFC90, symSize: 0x18 }
  - { offsetInCU: 0x1DF35, offset: 0x8FEA7, size: 0x8, addend: 0x0, symName: __ZN4absl12lts_202111024Cord9InlineRep11AppendArrayENS0_11string_viewENS0_13cord_internal18CordzUpdateTracker16MethodIdentifierE, symObjAddr: 0x1CE0, symBinAddr: 0x116AC, symSize: 0x540 }
  - { offsetInCU: 0x1E95B, offset: 0x908CD, size: 0x8, addend: 0x0, symName: __ZN4absl12lts_202111024Cord9InlineRep19AppendTreeToInlinedEPNS0_13cord_internal7CordRepENS3_18CordzUpdateTracker16MethodIdentifierE, symObjAddr: 0xA38, symBinAddr: 0x10404, symSize: 0x124 }
  - { offsetInCU: 0x1EDB9, offset: 0x90D2B, size: 0x8, addend: 0x0, symName: __ZN4absl12lts_20211102L6ConcatEPNS0_13cord_internal7CordRepES3_, symObjAddr: 0xB5C, symBinAddr: 0x10528, symSize: 0x128 }
  - { offsetInCU: 0x1EDC4, offset: 0x90D36, size: 0x8, addend: 0x0, symName: __ZN4absl12lts_202111024Cord9InlineRep16AppendTreeToTreeEPNS0_13cord_internal7CordRepENS3_18CordzUpdateTracker16MethodIdentifierE, symObjAddr: 0xC84, symBinAddr: 0x10650, symSize: 0x164 }
  - { offsetInCU: 0x1F14F, offset: 0x910C1, size: 0x8, addend: 0x0, symName: __ZN4absl12lts_202111024Cord7PrependINSt3__112basic_stringIcNS3_11char_traitsIcEENS3_9allocatorIcEEEELi0EEEvOT_, symObjAddr: 0x2DC, symBinAddr: 0xFCA8, symSize: 0x70 }
  - { offsetInCU: 0x1F2A9, offset: 0x9121B, size: 0x8, addend: 0x0, symName: __ZN4absl12lts_202111024Cord9InlineRep11PrependTreeEPNS0_13cord_internal7CordRepENS3_18CordzUpdateTracker16MethodIdentifierE, symObjAddr: 0x34C, symBinAddr: 0xFD18, symSize: 0x28 }
  - { offsetInCU: 0x1F349, offset: 0x912BB, size: 0x8, addend: 0x0, symName: __ZN4absl12lts_2021110213cord_internal25InitializeCordRepExternalENS0_11string_viewEPNS1_15CordRepExternalE, symObjAddr: 0x374, symBinAddr: 0xFD40, symSize: 0x2C }
  - { offsetInCU: 0x1F354, offset: 0x912C6, size: 0x8, addend: 0x0, symName: __ZN4absl12lts_202111024Cord12PrependArrayENS0_11string_viewENS0_13cord_internal18CordzUpdateTracker16MethodIdentifierE, symObjAddr: 0x29B0, symBinAddr: 0x1237C, symSize: 0x134 }
  - { offsetInCU: 0x1F4FB, offset: 0x9146D, size: 0x8, addend: 0x0, symName: __ZN4absl12lts_202111024Cord9InlineRep20PrependTreeToInlinedEPNS0_13cord_internal7CordRepENS3_18CordzUpdateTracker16MethodIdentifierE, symObjAddr: 0xE98, symBinAddr: 0x10864, symSize: 0x124 }
  - { offsetInCU: 0x1F959, offset: 0x918CB, size: 0x8, addend: 0x0, symName: __ZN4absl12lts_202111024Cord9InlineRep17PrependTreeToTreeEPNS0_13cord_internal7CordRepENS3_18CordzUpdateTracker16MethodIdentifierE, symObjAddr: 0xFBC, symBinAddr: 0x10988, symSize: 0x164 }
  - { offsetInCU: 0x1F964, offset: 0x918D6, size: 0x8, addend: 0x0, symName: __ZN4absl12lts_202111024Cord9InlineRep17PrependTreeToTreeEPNS0_13cord_internal7CordRepENS3_18CordzUpdateTracker16MethodIdentifierE, symObjAddr: 0xFBC, symBinAddr: 0x10988, symSize: 0x164 }
  - { offsetInCU: 0x1FCCB, offset: 0x91C3D, size: 0x8, addend: 0x0, symName: __ZN4absl12lts_202111024Cord9InlineRep11PrependTreeEPNS0_13cord_internal7CordRepENS3_18CordzUpdateTracker16MethodIdentifierE.cold.1, symObjAddr: 0x9E94, symBinAddr: 0x4F6F8, symSize: 0x28 }
  - { offsetInCU: 0x1FCE3, offset: 0x91C55, size: 0x8, addend: 0x0, symName: __ZN4absl12lts_2021110213cord_internal25InitializeCordRepExternalENS0_11string_viewEPNS1_15CordRepExternalE.cold.1, symObjAddr: 0x9EBC, symBinAddr: 0x4F720, symSize: 0x28 }
  - { offsetInCU: 0x2028D, offset: 0x921FF, size: 0x8, addend: 0x0, symName: __ZN4absl12lts_2021110223inlined_vector_internal7StorageIPNS0_13cord_internal7CordRepELm2ENSt3__19allocatorIS5_EEE11EmplaceBackIJRKS5_EEERS5_DpOT_, symObjAddr: 0x687C, symBinAddr: 0x161F8, symSize: 0x44 }
  - { offsetInCU: 0x202E8, offset: 0x9225A, size: 0x8, addend: 0x0, symName: __ZN4absl12lts_2021110223inlined_vector_internal7StorageIPNS0_13cord_internal7CordRepELm2ENSt3__19allocatorIS5_EEE11EmplaceBackIJRKS5_EEERS5_DpOT_, symObjAddr: 0x687C, symBinAddr: 0x161F8, symSize: 0x44 }
  - { offsetInCU: 0x20304, offset: 0x92276, size: 0x8, addend: 0x0, symName: __ZN4absl12lts_2021110223inlined_vector_internal7StorageIPNS0_13cord_internal7CordRepELm2ENSt3__19allocatorIS5_EEE11EmplaceBackIJRKS5_EEERS5_DpOT_, symObjAddr: 0x687C, symBinAddr: 0x161F8, symSize: 0x44 }
  - { offsetInCU: 0x203ED, offset: 0x9235F, size: 0x8, addend: 0x0, symName: __ZN4absl12lts_2021110213InlinedVectorIPNS0_13cord_internal7CordRepELm2ENSt3__19allocatorIS4_EEE4backEv, symObjAddr: 0x60AC, symBinAddr: 0x15A34, symSize: 0x3C }
  - { offsetInCU: 0x204CB, offset: 0x9243D, size: 0x8, addend: 0x0, symName: __ZN4absl12lts_2021110213InlinedVectorIPNS0_13cord_internal7CordRepELm2ENSt3__19allocatorIS4_EEE8pop_backEv, symObjAddr: 0x60E8, symBinAddr: 0x15A70, symSize: 0x4C }
  - { offsetInCU: 0x204D6, offset: 0x92448, size: 0x8, addend: 0x0, symName: __ZN4absl12lts_2021110213InlinedVectorIPNS0_13cord_internal7CordRepELm2ENSt3__19allocatorIS4_EEE8pop_backEv, symObjAddr: 0x60E8, symBinAddr: 0x15A70, symSize: 0x4C }
  - { offsetInCU: 0x207BA, offset: 0x9272C, size: 0x8, addend: 0x0, symName: __ZNK4absl12lts_202111024Cord15CompareSlowPathENS0_11string_viewEmm, symObjAddr: 0x926C, symBinAddr: 0x17F0C, symSize: 0x298 }
  - { offsetInCU: 0x2095E, offset: 0x928D0, size: 0x8, addend: 0x0, symName: __ZN4absl12lts_2021110213cord_internal11CordRepFlat3NewEm, symObjAddr: 0x2220, symBinAddr: 0x11BEC, symSize: 0x98 }
  - { offsetInCU: 0x20BF2, offset: 0x92B64, size: 0x8, addend: 0x0, symName: __ZN4absl12lts_202111024Cord6AppendERKS1_, symObjAddr: 0x22B8, symBinAddr: 0x11C84, symSize: 0x4 }
  - { offsetInCU: 0x20BFD, offset: 0x92B6F, size: 0x8, addend: 0x0, symName: __ZN4absl12lts_202111024Cord9InlineRep19AppendTreeToInlinedEPNS0_13cord_internal7CordRepENS3_18CordzUpdateTracker16MethodIdentifierE.cold.2, symObjAddr: 0x9F08, symBinAddr: 0x4F76C, symSize: 0x28 }
  - { offsetInCU: 0x20C15, offset: 0x92B87, size: 0x8, addend: 0x0, symName: __ZN4absl12lts_202111024Cord9InlineRep19AppendTreeToInlinedEPNS0_13cord_internal7CordRepENS3_18CordzUpdateTracker16MethodIdentifierE.cold.1, symObjAddr: 0x9EE4, symBinAddr: 0x4F748, symSize: 0x24 }
  - { offsetInCU: 0x20DBD, offset: 0x92D2F, size: 0x8, addend: 0x0, symName: __ZN4absl12lts_2021110213InlinedVectorIPNS0_13cord_internal7CordRepELm47ENSt3__19allocatorIS4_EEEC2EmRKS4_RKS7_, symObjAddr: 0x7DFC, symBinAddr: 0x16B38, symSize: 0x50 }
  - { offsetInCU: 0x2102B, offset: 0x92F9D, size: 0x8, addend: 0x0, symName: __ZN4absl12lts_2021110210CordForest5BuildEPNS0_13cord_internal7CordRepE, symObjAddr: 0x7970, symBinAddr: 0x166AC, symSize: 0x33C }
  - { offsetInCU: 0x220CD, offset: 0x9403F, size: 0x8, addend: 0x0, symName: __ZN4absl12lts_2021110210CordForest11ConcatNodesEv, symObjAddr: 0x7CAC, symBinAddr: 0x169E8, symSize: 0x150 }
  - { offsetInCU: 0x22785, offset: 0x946F7, size: 0x8, addend: 0x0, symName: __ZN4absl12lts_20211102L6ConcatEPNS0_13cord_internal7CordRepES3_.cold.1, symObjAddr: 0x9F30, symBinAddr: 0x4F794, symSize: 0x28 }
  - { offsetInCU: 0x228FB, offset: 0x9486D, size: 0x8, addend: 0x0, symName: __ZNK4absl12lts_2021110213cord_internal10InlineData10cordz_infoEv, symObjAddr: 0xDE8, symBinAddr: 0x107B4, symSize: 0x30 }
  - { offsetInCU: 0x229B4, offset: 0x94926, size: 0x8, addend: 0x0, symName: __ZN4absl12lts_20211102L10ForceBtreeEPNS0_13cord_internal7CordRepE, symObjAddr: 0xE18, symBinAddr: 0x107E4, symSize: 0x80 }
  - { offsetInCU: 0x229BF, offset: 0x94931, size: 0x8, addend: 0x0, symName: __ZN4absl12lts_2021110213cord_internal16CordzUpdateScopeD2Ev, symObjAddr: 0x83CC, symBinAddr: 0x17108, symSize: 0x34 }
  - { offsetInCU: 0x229EA, offset: 0x9495C, size: 0x8, addend: 0x0, symName: __ZN4absl12lts_202111024Cord9InlineRep16AppendTreeToTreeEPNS0_13cord_internal7CordRepENS3_18CordzUpdateTracker16MethodIdentifierE.cold.1, symObjAddr: 0x9F58, symBinAddr: 0x4F7BC, symSize: 0x28 }
  - { offsetInCU: 0x22A02, offset: 0x94974, size: 0x8, addend: 0x0, symName: __ZNK4absl12lts_2021110213cord_internal10InlineData10cordz_infoEv.cold.1, symObjAddr: 0x9F80, symBinAddr: 0x4F7E4, symSize: 0x28 }
  - { offsetInCU: 0x22A1A, offset: 0x9498C, size: 0x8, addend: 0x0, symName: __ZNK4absl12lts_2021110213cord_internal10InlineData10cordz_infoEv.cold.2, symObjAddr: 0x9FA8, symBinAddr: 0x4F80C, symSize: 0x28 }
  - { offsetInCU: 0x22A6A, offset: 0x949DC, size: 0x8, addend: 0x0, symName: __ZN4absl12lts_202111024Cord9InlineRep20PrependTreeToInlinedEPNS0_13cord_internal7CordRepENS3_18CordzUpdateTracker16MethodIdentifierE.cold.2, symObjAddr: 0x9FF4, symBinAddr: 0x4F858, symSize: 0x28 }
  - { offsetInCU: 0x22A82, offset: 0x949F4, size: 0x8, addend: 0x0, symName: __ZN4absl12lts_202111024Cord9InlineRep20PrependTreeToInlinedEPNS0_13cord_internal7CordRepENS3_18CordzUpdateTracker16MethodIdentifierE.cold.1, symObjAddr: 0x9FD0, symBinAddr: 0x4F834, symSize: 0x24 }
  - { offsetInCU: 0x22AB0, offset: 0x94A22, size: 0x8, addend: 0x0, symName: __ZN4absl12lts_202111024Cord9InlineRep17PrependTreeToTreeEPNS0_13cord_internal7CordRepENS3_18CordzUpdateTracker16MethodIdentifierE.cold.1, symObjAddr: 0xA01C, symBinAddr: 0x4F880, symSize: 0x28 }
  - { offsetInCU: 0x22BD2, offset: 0x94B44, size: 0x8, addend: 0x0, symName: __ZN4absl12lts_202111024Cord9InlineRep10AssignSlowERKS2_, symObjAddr: 0x1120, symBinAddr: 0x10AEC, symSize: 0x128 }
  - { offsetInCU: 0x230C2, offset: 0x95034, size: 0x8, addend: 0x0, symName: __ZN4absl12lts_2021110213cord_internal7CordRep5UnrefEPS2_, symObjAddr: 0x1248, symBinAddr: 0x10C14, symSize: 0x50 }
  - { offsetInCU: 0x230CD, offset: 0x9503F, size: 0x8, addend: 0x0, symName: __ZN4absl12lts_2021110213cord_internal10InlineData18is_either_profiledERKS2_S4_, symObjAddr: 0x8400, symBinAddr: 0x1713C, symSize: 0x3C }
  - { offsetInCU: 0x23178, offset: 0x950EA, size: 0x8, addend: 0x0, symName: __ZN4absl12lts_2021110210FixedArrayIPNS0_13cord_internal7CordRepELm18446744073709551615ENSt3__19allocatorIS4_EEE7Storage14InitializeDataEv, symObjAddr: 0x843C, symBinAddr: 0x17178, symSize: 0x34 }
  - { offsetInCU: 0x23183, offset: 0x950F5, size: 0x8, addend: 0x0, symName: __ZN4absl12lts_2021110213cord_internal7CordRep5UnrefEPS2_, symObjAddr: 0x1248, symBinAddr: 0x10C14, symSize: 0x50 }
  - { offsetInCU: 0x23229, offset: 0x9519B, size: 0x8, addend: 0x0, symName: __ZN4absl12lts_202111024Cord9InlineRep10AssignSlowERKS2_.cold.1, symObjAddr: 0xA044, symBinAddr: 0x4F8A8, symSize: 0x28 }
  - { offsetInCU: 0x23241, offset: 0x951B3, size: 0x8, addend: 0x0, symName: __ZN4absl12lts_202111024Cord9InlineRep10AssignSlowERKS2_.cold.2, symObjAddr: 0xA06C, symBinAddr: 0x4F8D0, symSize: 0x28 }
  - { offsetInCU: 0x23259, offset: 0x951CB, size: 0x8, addend: 0x0, symName: __ZN4absl12lts_202111024Cord9InlineRep10AssignSlowERKS2_.cold.3, symObjAddr: 0xA094, symBinAddr: 0x4F8F8, symSize: 0x24 }
  - { offsetInCU: 0x23287, offset: 0x951F9, size: 0x8, addend: 0x0, symName: __ZN4absl12lts_202111024Cord9InlineRep10AssignSlowERKS2_.cold.4, symObjAddr: 0xA0B8, symBinAddr: 0x4F91C, symSize: 0x28 }
  - { offsetInCU: 0x23304, offset: 0x95276, size: 0x8, addend: 0x0, symName: __ZN4absl12lts_2021110213cord_internal7CordRep5UnrefEPS2_.cold.1, symObjAddr: 0xA0E0, symBinAddr: 0x4F944, symSize: 0x24 }
  - { offsetInCU: 0x2331C, offset: 0x9528E, size: 0x8, addend: 0x0, symName: __ZN4absl12lts_2021110213cord_internal7CordRep5UnrefEPS2_.cold.2, symObjAddr: 0xA104, symBinAddr: 0x4F968, symSize: 0x24 }
  - { offsetInCU: 0x23360, offset: 0x952D2, size: 0x8, addend: 0x0, symName: __ZN4absl12lts_202111024Cord9InlineRep9UnrefTreeEv, symObjAddr: 0x1298, symBinAddr: 0x10C64, symSize: 0x84 }
  - { offsetInCU: 0x23555, offset: 0x954C7, size: 0x8, addend: 0x0, symName: __ZN4absl12lts_202111024Cord9InlineRep9UnrefTreeEv.cold.1, symObjAddr: 0xA128, symBinAddr: 0x4F98C, symSize: 0x24 }
  - { offsetInCU: 0x23583, offset: 0x954F5, size: 0x8, addend: 0x0, symName: __ZN4absl12lts_202111024Cord9InlineRep9UnrefTreeEv.cold.2, symObjAddr: 0xA14C, symBinAddr: 0x4F9B0, symSize: 0x24 }
  - { offsetInCU: 0x235C7, offset: 0x95539, size: 0x8, addend: 0x0, symName: __ZN4absl12lts_202111024CordC2ENS0_11string_viewENS0_13cord_internal18CordzUpdateTracker16MethodIdentifierE, symObjAddr: 0x131C, symBinAddr: 0x10CE8, symSize: 0xCC }
  - { offsetInCU: 0x23767, offset: 0x956D9, size: 0x8, addend: 0x0, symName: __ZN4absl12lts_20211102L7NewTreeEPKcmm, symObjAddr: 0x13E8, symBinAddr: 0x10DB4, symSize: 0x2EC }
  - { offsetInCU: 0x23772, offset: 0x956E4, size: 0x8, addend: 0x0, symName: __ZN4absl12lts_202111024CordC2ENS0_11string_viewENS0_13cord_internal18CordzUpdateTracker16MethodIdentifierE.cold.1, symObjAddr: 0xA170, symBinAddr: 0x4F9D4, symSize: 0x24 }
  - { offsetInCU: 0x23B89, offset: 0x95AFB, size: 0x8, addend: 0x0, symName: __ZN4absl12lts_2021110210FixedArrayIPNS0_13cord_internal7CordRepELm18446744073709551615ENSt3__19allocatorIS4_EEE7Storage14InitializeDataEv, symObjAddr: 0x843C, symBinAddr: 0x17178, symSize: 0x34 }
  - { offsetInCU: 0x23C55, offset: 0x95BC7, size: 0x8, addend: 0x0, symName: __ZN4absl12lts_2021110213cord_internal12CordRepBtree15GetAppendBufferEm, symObjAddr: 0x8470, symBinAddr: 0x171AC, symSize: 0x1D4 }
  - { offsetInCU: 0x23C60, offset: 0x95BD2, size: 0x8, addend: 0x0, symName: __ZN4absl12lts_20211102L7NewTreeEPKcmm.cold.1, symObjAddr: 0xA194, symBinAddr: 0x4F9F8, symSize: 0x24 }
  - { offsetInCU: 0x23CE2, offset: 0x95C54, size: 0x8, addend: 0x0, symName: __ZN4absl12lts_202111024CordC1ENS0_11string_viewENS0_13cord_internal18CordzUpdateTracker16MethodIdentifierE, symObjAddr: 0x16D4, symBinAddr: 0x110A0, symSize: 0x4 }
  - { offsetInCU: 0x23D12, offset: 0x95C84, size: 0x8, addend: 0x0, symName: __ZN4absl12lts_202111024CordC1ENS0_11string_viewENS0_13cord_internal18CordzUpdateTracker16MethodIdentifierE, symObjAddr: 0x16D4, symBinAddr: 0x110A0, symSize: 0x4 }
  - { offsetInCU: 0x23D48, offset: 0x95CBA, size: 0x8, addend: 0x0, symName: __ZN4absl12lts_202111024Cord15DestroyCordSlowEv, symObjAddr: 0x16D8, symBinAddr: 0x110A4, symSize: 0x90 }
  - { offsetInCU: 0x23F41, offset: 0x95EB3, size: 0x8, addend: 0x0, symName: __ZN4absl12lts_202111024Cord15DestroyCordSlowEv.cold.1, symObjAddr: 0xA1B8, symBinAddr: 0x4FA1C, symSize: 0x28 }
  - { offsetInCU: 0x23F59, offset: 0x95ECB, size: 0x8, addend: 0x0, symName: __ZN4absl12lts_202111024Cord15DestroyCordSlowEv.cold.2, symObjAddr: 0xA1E0, symBinAddr: 0x4FA44, symSize: 0x28 }
  - { offsetInCU: 0x23F87, offset: 0x95EF9, size: 0x8, addend: 0x0, symName: __ZN4absl12lts_202111024Cord15DestroyCordSlowEv.cold.3, symObjAddr: 0xA208, symBinAddr: 0x4FA6C, symSize: 0x24 }
  - { offsetInCU: 0x23FB5, offset: 0x95F27, size: 0x8, addend: 0x0, symName: __ZN4absl12lts_202111024Cord15DestroyCordSlowEv.cold.4, symObjAddr: 0xA22C, symBinAddr: 0x4FA90, symSize: 0x24 }
  - { offsetInCU: 0x24033, offset: 0x95FA5, size: 0x8, addend: 0x0, symName: __ZN4absl12lts_202111024Cord5ClearEv, symObjAddr: 0x1768, symBinAddr: 0x11134, symSize: 0x90 }
  - { offsetInCU: 0x24287, offset: 0x961F9, size: 0x8, addend: 0x0, symName: __ZN4absl12lts_202111024Cord5ClearEv.cold.1, symObjAddr: 0xA250, symBinAddr: 0x4FAB4, symSize: 0x24 }
  - { offsetInCU: 0x242CB, offset: 0x9623D, size: 0x8, addend: 0x0, symName: __ZN4absl12lts_202111024Cord17AssignLargeStringEONSt3__112basic_stringIcNS2_11char_traitsIcEENS2_9allocatorIcEEEE, symObjAddr: 0x17F8, symBinAddr: 0x111C4, symSize: 0x168 }
  - { offsetInCU: 0x2470B, offset: 0x9667D, size: 0x8, addend: 0x0, symName: __ZN4absl12lts_202111024Cord17AssignLargeStringEONSt3__112basic_stringIcNS2_11char_traitsIcEENS2_9allocatorIcEEEE.cold.1, symObjAddr: 0xA274, symBinAddr: 0x4FAD8, symSize: 0x28 }
  - { offsetInCU: 0x24723, offset: 0x96695, size: 0x8, addend: 0x0, symName: __ZN4absl12lts_202111024Cord17AssignLargeStringEONSt3__112basic_stringIcNS2_11char_traitsIcEENS2_9allocatorIcEEEE.cold.2, symObjAddr: 0xA29C, symBinAddr: 0x4FB00, symSize: 0x24 }
  - { offsetInCU: 0x247C4, offset: 0x96736, size: 0x8, addend: 0x0, symName: __ZN4absl12lts_202111024CordaSENS0_11string_viewE, symObjAddr: 0x1960, symBinAddr: 0x1132C, symSize: 0x380 }
  - { offsetInCU: 0x24F7D, offset: 0x96EEF, size: 0x8, addend: 0x0, symName: __ZN4absl12lts_202111024CordaSENS0_11string_viewE.cold.1, symObjAddr: 0xA2C0, symBinAddr: 0x4FB24, symSize: 0x24 }
  - { offsetInCU: 0x24FAB, offset: 0x96F1D, size: 0x8, addend: 0x0, symName: __ZN4absl12lts_202111024CordaSENS0_11string_viewE.cold.2, symObjAddr: 0xA2E4, symBinAddr: 0x4FB48, symSize: 0x24 }
  - { offsetInCU: 0x250A5, offset: 0x97017, size: 0x8, addend: 0x0, symName: __ZN4absl12lts_2021110213cord_internal12CordRepBtree15GetAppendBufferEm, symObjAddr: 0x8470, symBinAddr: 0x171AC, symSize: 0x1D4 }
  - { offsetInCU: 0x255AB, offset: 0x9751D, size: 0x8, addend: 0x0, symName: __ZN4absl12lts_202111028AlphaNumC2Em, symObjAddr: 0x8644, symBinAddr: 0x17380, symSize: 0x44 }
  - { offsetInCU: 0x255F3, offset: 0x97565, size: 0x8, addend: 0x0, symName: __ZN4absl12lts_2021110213cord_internal11CordRepFlat3NewEm.cold.1, symObjAddr: 0xA308, symBinAddr: 0x4FB6C, symSize: 0x28 }
  - { offsetInCU: 0x25620, offset: 0x97592, size: 0x8, addend: 0x0, symName: __ZN4absl12lts_202111024Cord6AppendERKS1_, symObjAddr: 0x22B8, symBinAddr: 0x11C84, symSize: 0x4 }
  - { offsetInCU: 0x2565A, offset: 0x975CC, size: 0x8, addend: 0x0, symName: __ZN4absl12lts_202111024Cord6AppendERKS1_, symObjAddr: 0x22B8, symBinAddr: 0x11C84, symSize: 0x4 }
  - { offsetInCU: 0x25673, offset: 0x975E5, size: 0x8, addend: 0x0, symName: __ZN4absl12lts_202111024Cord10AppendImplIRKS1_EEvOT_, symObjAddr: 0x22BC, symBinAddr: 0x11C88, symSize: 0x348 }
  - { offsetInCU: 0x26585, offset: 0x984F7, size: 0x8, addend: 0x0, symName: __ZN4absl12lts_202111024Cord13ChunkIterator8InitTreeEPNS0_13cord_internal7CordRepE, symObjAddr: 0x8688, symBinAddr: 0x173C4, symSize: 0xA4 }
  - { offsetInCU: 0x2670A, offset: 0x9867C, size: 0x8, addend: 0x0, symName: __ZN4absl12lts_2021110213cord_internal18CordRepBtreeReader4InitEPNS1_12CordRepBtreeE, symObjAddr: 0x872C, symBinAddr: 0x17468, symSize: 0xAC }
  - { offsetInCU: 0x26715, offset: 0x98687, size: 0x8, addend: 0x0, symName: __ZN4absl12lts_2021110213cord_internal18CordRepBtreeReader4NextEv, symObjAddr: 0x50E4, symBinAddr: 0x14A6C, symSize: 0x10C }
  - { offsetInCU: 0x2692A, offset: 0x9889C, size: 0x8, addend: 0x0, symName: __ZN4absl12lts_20211102L12NewSubstringEPNS0_13cord_internal7CordRepEmm, symObjAddr: 0x51F0, symBinAddr: 0x14B78, symSize: 0xBC }
  - { offsetInCU: 0x26935, offset: 0x988A7, size: 0x8, addend: 0x0, symName: __ZN4absl12lts_202111024Cord13ChunkIterator12AdvanceStackEv, symObjAddr: 0x4720, symBinAddr: 0x140EC, symSize: 0xF0 }
  - { offsetInCU: 0x26BE6, offset: 0x98B58, size: 0x8, addend: 0x0, symName: __ZN4absl12lts_2021110213InlinedVectorIPNS0_13cord_internal7CordRepELm47ENSt3__19allocatorIS4_EEE4backEv, symObjAddr: 0x4810, symBinAddr: 0x141DC, symSize: 0x3C }
  - { offsetInCU: 0x26BF1, offset: 0x98B63, size: 0x8, addend: 0x0, symName: __ZN4absl12lts_202111024Cord10AppendImplIS1_EEvOT_, symObjAddr: 0x2608, symBinAddr: 0x11FD4, symSize: 0x358 }
  - { offsetInCU: 0x27739, offset: 0x996AB, size: 0x8, addend: 0x0, symName: __ZN4absl12lts_202111024CordD2Ev, symObjAddr: 0x8EAC, symBinAddr: 0x17BE8, symSize: 0x34 }
  - { offsetInCU: 0x277CE, offset: 0x99740, size: 0x8, addend: 0x0, symName: __ZN4absl12lts_202111024Cord10AppendImplIRKS1_EEvOT_.cold.1, symObjAddr: 0xA330, symBinAddr: 0x4FB94, symSize: 0x24 }
  - { offsetInCU: 0x27812, offset: 0x99784, size: 0x8, addend: 0x0, symName: __ZN4absl12lts_202111024Cord10AppendImplIRKS1_EEvOT_.cold.3, symObjAddr: 0xA378, symBinAddr: 0x4FBDC, symSize: 0x24 }
  - { offsetInCU: 0x27840, offset: 0x997B2, size: 0x8, addend: 0x0, symName: __ZN4absl12lts_202111024Cord10AppendImplIRKS1_EEvOT_.cold.2, symObjAddr: 0xA354, symBinAddr: 0x4FBB8, symSize: 0x24 }
  - { offsetInCU: 0x27884, offset: 0x997F6, size: 0x8, addend: 0x0, symName: __ZN4absl12lts_202111024Cord6AppendEOS1_, symObjAddr: 0x2604, symBinAddr: 0x11FD0, symSize: 0x4 }
  - { offsetInCU: 0x278AE, offset: 0x99820, size: 0x8, addend: 0x0, symName: __ZN4absl12lts_202111024Cord6AppendEOS1_, symObjAddr: 0x2604, symBinAddr: 0x11FD0, symSize: 0x4 }
  - { offsetInCU: 0x278EC, offset: 0x9985E, size: 0x8, addend: 0x0, symName: __ZN4absl12lts_202111024Cord10AppendImplIS1_EEvOT_.cold.1, symObjAddr: 0xA39C, symBinAddr: 0x4FC00, symSize: 0x24 }
  - { offsetInCU: 0x2791A, offset: 0x9988C, size: 0x8, addend: 0x0, symName: __ZN4absl12lts_202111024Cord10AppendImplIS1_EEvOT_.cold.2, symObjAddr: 0xA3C0, symBinAddr: 0x4FC24, symSize: 0x24 }
  - { offsetInCU: 0x27948, offset: 0x998BA, size: 0x8, addend: 0x0, symName: __ZN4absl12lts_202111024Cord7PrependERKS1_, symObjAddr: 0x2960, symBinAddr: 0x1232C, symSize: 0x50 }
  - { offsetInCU: 0x27BC5, offset: 0x99B37, size: 0x8, addend: 0x0, symName: __ZN4absl12lts_202111024Cord12PrependArrayENS0_11string_viewENS0_13cord_internal18CordzUpdateTracker16MethodIdentifierE, symObjAddr: 0x29B0, symBinAddr: 0x1237C, symSize: 0x134 }
  - { offsetInCU: 0x27BD0, offset: 0x99B42, size: 0x8, addend: 0x0, symName: __ZN4absl12lts_202111024Cord7PrependERKS1_.cold.1, symObjAddr: 0xA3E4, symBinAddr: 0x4FC48, symSize: 0x24 }
  - { offsetInCU: 0x27DEB, offset: 0x99D5D, size: 0x8, addend: 0x0, symName: __ZN4absl12lts_202111024Cord12RemovePrefixEm, symObjAddr: 0x2AE4, symBinAddr: 0x124B0, symSize: 0x598 }
  - { offsetInCU: 0x2925E, offset: 0x9B1D0, size: 0x8, addend: 0x0, symName: __ZN4absl12lts_202111024Cord9InlineRep13remove_prefixEm, symObjAddr: 0x307C, symBinAddr: 0x12A48, symSize: 0xFC }
  - { offsetInCU: 0x29494, offset: 0x9B406, size: 0x8, addend: 0x0, symName: __ZN4absl12lts_202111024Cord12RemoveSuffixEm, symObjAddr: 0x3178, symBinAddr: 0x12B44, symSize: 0x580 }
  - { offsetInCU: 0x2949F, offset: 0x9B411, size: 0x8, addend: 0x0, symName: __ZN4absl12lts_2021110223inlined_vector_internal7StorageIPNS0_13cord_internal7CordRepELm47ENSt3__19allocatorIS5_EEE11EmplaceBackIJRKS5_EEERS5_DpOT_, symObjAddr: 0x90B4, symBinAddr: 0x17DF0, symSize: 0x44 }
  - { offsetInCU: 0x294FA, offset: 0x9B46C, size: 0x8, addend: 0x0, symName: __ZN4absl12lts_2021110223inlined_vector_internal7StorageIPNS0_13cord_internal7CordRepELm47ENSt3__19allocatorIS5_EEE11EmplaceBackIJRKS5_EEERS5_DpOT_, symObjAddr: 0x90B4, symBinAddr: 0x17DF0, symSize: 0x44 }
  - { offsetInCU: 0x29516, offset: 0x9B488, size: 0x8, addend: 0x0, symName: __ZN4absl12lts_2021110223inlined_vector_internal7StorageIPNS0_13cord_internal7CordRepELm47ENSt3__19allocatorIS5_EEE11EmplaceBackIJRKS5_EEERS5_DpOT_, symObjAddr: 0x90B4, symBinAddr: 0x17DF0, symSize: 0x44 }
  - { offsetInCU: 0x295FF, offset: 0x9B571, size: 0x8, addend: 0x0, symName: __ZN4absl12lts_2021110213InlinedVectorIPNS0_13cord_internal7CordRepELm47ENSt3__19allocatorIS4_EEE4backEv, symObjAddr: 0x4810, symBinAddr: 0x141DC, symSize: 0x3C }
  - { offsetInCU: 0x296DD, offset: 0x9B64F, size: 0x8, addend: 0x0, symName: __ZN4absl12lts_2021110213InlinedVectorIPNS0_13cord_internal7CordRepELm47ENSt3__19allocatorIS4_EEE8pop_backEv, symObjAddr: 0x484C, symBinAddr: 0x14218, symSize: 0x4C }
  - { offsetInCU: 0x296E8, offset: 0x9B65A, size: 0x8, addend: 0x0, symName: __ZN4absl12lts_2021110213InlinedVectorIPNS0_13cord_internal7CordRepELm47ENSt3__19allocatorIS4_EEE8pop_backEv, symObjAddr: 0x484C, symBinAddr: 0x14218, symSize: 0x4C }
  - { offsetInCU: 0x297B5, offset: 0x9B727, size: 0x8, addend: 0x0, symName: __ZN4absl12lts_202111028AlphaNumC2Em, symObjAddr: 0x8644, symBinAddr: 0x17380, symSize: 0x44 }
  - { offsetInCU: 0x29891, offset: 0x9B803, size: 0x8, addend: 0x0, symName: __ZN4absl12lts_202111024Cord13ChunkIterator8InitTreeEPNS0_13cord_internal7CordRepE, symObjAddr: 0x8688, symBinAddr: 0x173C4, symSize: 0xA4 }
  - { offsetInCU: 0x29910, offset: 0x9B882, size: 0x8, addend: 0x0, symName: __ZN4absl12lts_202111024Cord9InlineRep13remove_prefixEm.cold.6, symObjAddr: 0xA4CC, symBinAddr: 0x4FD30, symSize: 0x24 }
  - { offsetInCU: 0x29954, offset: 0x9B8C6, size: 0x8, addend: 0x0, symName: __ZN4absl12lts_202111024Cord9InlineRep13remove_prefixEm.cold.5, symObjAddr: 0xA4A8, symBinAddr: 0x4FD0C, symSize: 0x24 }
  - { offsetInCU: 0x299AE, offset: 0x9B920, size: 0x8, addend: 0x0, symName: __ZN4absl12lts_202111024Cord9InlineRep13remove_prefixEm.cold.2, symObjAddr: 0xA430, symBinAddr: 0x4FC94, symSize: 0x28 }
  - { offsetInCU: 0x299DC, offset: 0x9B94E, size: 0x8, addend: 0x0, symName: __ZN4absl12lts_202111024Cord9InlineRep13remove_prefixEm.cold.3, symObjAddr: 0xA458, symBinAddr: 0x4FCBC, symSize: 0x28 }
  - { offsetInCU: 0x29A0A, offset: 0x9B97C, size: 0x8, addend: 0x0, symName: __ZN4absl12lts_202111024Cord9InlineRep13remove_prefixEm.cold.4, symObjAddr: 0xA480, symBinAddr: 0x4FCE4, symSize: 0x28 }
  - { offsetInCU: 0x29A7A, offset: 0x9B9EC, size: 0x8, addend: 0x0, symName: __ZN4absl12lts_202111024Cord9InlineRep13remove_prefixEm.cold.1, symObjAddr: 0xA408, symBinAddr: 0x4FC6C, symSize: 0x28 }
  - { offsetInCU: 0x29AA8, offset: 0x9BA1A, size: 0x8, addend: 0x0, symName: __ZN4absl12lts_202111024Cord12RemoveSuffixEm, symObjAddr: 0x3178, symBinAddr: 0x12B44, symSize: 0x580 }
  - { offsetInCU: 0x2B053, offset: 0x9CFC5, size: 0x8, addend: 0x0, symName: __ZN4absl12lts_202111024Cord12RemoveSuffixEm.cold.1, symObjAddr: 0xA4F0, symBinAddr: 0x4FD54, symSize: 0x28 }
  - { offsetInCU: 0x2B081, offset: 0x9CFF3, size: 0x8, addend: 0x0, symName: __ZN4absl12lts_202111024Cord12RemoveSuffixEm.cold.2, symObjAddr: 0xA518, symBinAddr: 0x4FD7C, symSize: 0x28 }
  - { offsetInCU: 0x2B6AC, offset: 0x9D61E, size: 0x8, addend: 0x0, symName: __ZNK4absl12lts_202111024Cord7SubcordEmm, symObjAddr: 0x36F8, symBinAddr: 0x130C4, symSize: 0x808 }
  - { offsetInCU: 0x2D25B, offset: 0x9F1CD, size: 0x8, addend: 0x0, symName: __ZN4absl12lts_2021110223inlined_vector_internal7StorageINS0_8SubRangeELm47ENSt3__19allocatorIS3_EEE11EmplaceBackIJS3_EEERS3_DpOT_, symObjAddr: 0x8C0C, symBinAddr: 0x17948, symSize: 0x54 }
  - { offsetInCU: 0x2D2B6, offset: 0x9F228, size: 0x8, addend: 0x0, symName: __ZN4absl12lts_2021110223inlined_vector_internal7StorageINS0_8SubRangeELm47ENSt3__19allocatorIS3_EEE11EmplaceBackIJS3_EEERS3_DpOT_, symObjAddr: 0x8C0C, symBinAddr: 0x17948, symSize: 0x54 }
  - { offsetInCU: 0x2D2D2, offset: 0x9F244, size: 0x8, addend: 0x0, symName: __ZN4absl12lts_2021110223inlined_vector_internal7StorageINS0_8SubRangeELm47ENSt3__19allocatorIS3_EEE11EmplaceBackIJS3_EEERS3_DpOT_, symObjAddr: 0x8C0C, symBinAddr: 0x17948, symSize: 0x54 }
  - { offsetInCU: 0x2D3BB, offset: 0x9F32D, size: 0x8, addend: 0x0, symName: __ZN4absl12lts_2021110213InlinedVectorINS0_8SubRangeELm47ENSt3__19allocatorIS2_EEE4backEv, symObjAddr: 0x8B84, symBinAddr: 0x178C0, symSize: 0x3C }
  - { offsetInCU: 0x2D4C4, offset: 0x9F436, size: 0x8, addend: 0x0, symName: __ZN4absl12lts_2021110213InlinedVectorINS0_8SubRangeELm47ENSt3__19allocatorIS2_EEE8pop_backEv, symObjAddr: 0x8BC0, symBinAddr: 0x178FC, symSize: 0x4C }
  - { offsetInCU: 0x2D4CF, offset: 0x9F441, size: 0x8, addend: 0x0, symName: __ZN4absl12lts_2021110213InlinedVectorINS0_8SubRangeELm47ENSt3__19allocatorIS2_EEE8pop_backEv, symObjAddr: 0x8BC0, symBinAddr: 0x178FC, symSize: 0x4C }
  - { offsetInCU: 0x2D59C, offset: 0x9F50E, size: 0x8, addend: 0x0, symName: __ZN4absl12lts_2021110223inlined_vector_internal7StorageIPNS0_13cord_internal7CordRepELm47ENSt3__19allocatorIS5_EEE11EmplaceBackIJS5_EEERS5_DpOT_, symObjAddr: 0x8D90, symBinAddr: 0x17ACC, symSize: 0x44 }
  - { offsetInCU: 0x2D5F7, offset: 0x9F569, size: 0x8, addend: 0x0, symName: __ZN4absl12lts_2021110223inlined_vector_internal7StorageIPNS0_13cord_internal7CordRepELm47ENSt3__19allocatorIS5_EEE11EmplaceBackIJS5_EEERS5_DpOT_, symObjAddr: 0x8D90, symBinAddr: 0x17ACC, symSize: 0x44 }
  - { offsetInCU: 0x2D613, offset: 0x9F585, size: 0x8, addend: 0x0, symName: __ZN4absl12lts_2021110223inlined_vector_internal7StorageIPNS0_13cord_internal7CordRepELm47ENSt3__19allocatorIS5_EEE11EmplaceBackIJS5_EEERS5_DpOT_, symObjAddr: 0x8D90, symBinAddr: 0x17ACC, symSize: 0x44 }
  - { offsetInCU: 0x2D6FC, offset: 0x9F66E, size: 0x8, addend: 0x0, symName: __ZN4absl12lts_202111024Cord13ChunkIterator17AdvanceBytesBtreeEm, symObjAddr: 0x88AC, symBinAddr: 0x175E8, symSize: 0x80 }
  - { offsetInCU: 0x2D7E3, offset: 0x9F755, size: 0x8, addend: 0x0, symName: __ZN4absl12lts_2021110213cord_internal18CordRepBtreeReader4SeekEm, symObjAddr: 0x892C, symBinAddr: 0x17668, symSize: 0xF4 }
  - { offsetInCU: 0x2D7EE, offset: 0x9F760, size: 0x8, addend: 0x0, symName: __ZN4absl12lts_202111024Cord13ChunkIterator20AdvanceBytesSlowPathEm, symObjAddr: 0x52AC, symBinAddr: 0x14C34, symSize: 0x1A0 }
  - { offsetInCU: 0x2DB1C, offset: 0x9FA8E, size: 0x8, addend: 0x0, symName: __ZNK4absl12lts_202111024CordixEm, symObjAddr: 0x544C, symBinAddr: 0x14DD4, symSize: 0xE8 }
  - { offsetInCU: 0x2DB27, offset: 0x9FA99, size: 0x8, addend: 0x0, symName: __ZNK4absl12lts_202111024Cord10EqualsImplENS0_11string_viewEm, symObjAddr: 0x3F00, symBinAddr: 0x138CC, symSize: 0x28 }
  - { offsetInCU: 0x2DB93, offset: 0x9FB05, size: 0x8, addend: 0x0, symName: __ZNK4absl12lts_202111024Cord9InlineRep18FindFlatStartPieceEv, symObjAddr: 0x9504, symBinAddr: 0x181A4, symSize: 0x138 }
  - { offsetInCU: 0x2E04E, offset: 0x9FFC0, size: 0x8, addend: 0x0, symName: __ZNK4absl12lts_2021110213cord_internal12CordRepBtree4DataEm, symObjAddr: 0x963C, symBinAddr: 0x182DC, symSize: 0xB4 }
  - { offsetInCU: 0x2E059, offset: 0x9FFCB, size: 0x8, addend: 0x0, symName: __ZNK4absl12lts_202111024Cord15CompareSlowPathENS0_11string_viewEmm, symObjAddr: 0x926C, symBinAddr: 0x17F0C, symSize: 0x298 }
  - { offsetInCU: 0x2E6D8, offset: 0xA064A, size: 0x8, addend: 0x0, symName: __ZN4absl12lts_2021110214GenericCompareIbNS0_11string_viewEEET_RKNS0_4CordERKT0_m.cold.1, symObjAddr: 0xA540, symBinAddr: 0x4FDA4, symSize: 0x24 }
  - { offsetInCU: 0x2E6F0, offset: 0xA0662, size: 0x8, addend: 0x0, symName: __ZNK4absl12lts_202111024Cord10EqualsImplERKS1_m, symObjAddr: 0x3FB4, symBinAddr: 0x13980, symSize: 0x4 }
  - { offsetInCU: 0x2E721, offset: 0xA0693, size: 0x8, addend: 0x0, symName: __ZNK4absl12lts_202111024Cord10EqualsImplERKS1_m, symObjAddr: 0x3FB4, symBinAddr: 0x13980, symSize: 0x4 }
  - { offsetInCU: 0x2E741, offset: 0xA06B3, size: 0x8, addend: 0x0, symName: __ZNK4absl12lts_202111024Cord15CompareSlowPathERKS1_mm, symObjAddr: 0x9788, symBinAddr: 0x18428, symSize: 0x3DC }
  - { offsetInCU: 0x2F2DB, offset: 0xA124D, size: 0x8, addend: 0x0, symName: __ZN4absl12lts_2021110214GenericCompareIbNS0_4CordEEET_RKS2_RKT0_m.cold.1, symObjAddr: 0xA564, symBinAddr: 0x4FDC8, symSize: 0x24 }
  - { offsetInCU: 0x2F2F3, offset: 0xA1265, size: 0x8, addend: 0x0, symName: __ZNK4absl12lts_202111024Cord7CompareENS0_11string_viewE, symObjAddr: 0x4050, symBinAddr: 0x13A1C, symSize: 0x70 }
  - { offsetInCU: 0x2F4B1, offset: 0xA1423, size: 0x8, addend: 0x0, symName: __ZNK4absl12lts_202111024Cord11CompareImplERKS1_, symObjAddr: 0x40C0, symBinAddr: 0x13A8C, symSize: 0x7C }
  - { offsetInCU: 0x2F7A7, offset: 0xA1719, size: 0x8, addend: 0x0, symName: __ZNK4absl12lts_202111024Cord8EndsWithENS0_11string_viewE, symObjAddr: 0x413C, symBinAddr: 0x13B08, symSize: 0xF8 }
  - { offsetInCU: 0x2FBB0, offset: 0xA1B22, size: 0x8, addend: 0x0, symName: __ZNK4absl12lts_202111024Cord8EndsWithERKS1_, symObjAddr: 0x4234, symBinAddr: 0x13C00, symSize: 0x10C }
  - { offsetInCU: 0x3013B, offset: 0xA20AD, size: 0x8, addend: 0x0, symName: __ZNK4absl12lts_202111024CordcvNSt3__112basic_stringIcNS2_11char_traitsIcEENS2_9allocatorIcEEEEEv, symObjAddr: 0x4340, symBinAddr: 0x13D0C, symSize: 0x48 }
  - { offsetInCU: 0x3032A, offset: 0xA229C, size: 0x8, addend: 0x0, symName: __ZNK4absl12lts_202111024Cord9InlineRep6CopyToEPNSt3__112basic_stringIcNS3_11char_traitsIcEENS3_9allocatorIcEEEE, symObjAddr: 0x43E8, symBinAddr: 0x13DB4, symSize: 0x68 }
  - { offsetInCU: 0x30482, offset: 0xA23F4, size: 0x8, addend: 0x0, symName: __ZNK4absl12lts_202111024Cord19CopyToArraySlowPathEPc, symObjAddr: 0x4450, symBinAddr: 0x13E1C, symSize: 0x1B8 }
  - { offsetInCU: 0x3048D, offset: 0xA23FF, size: 0x8, addend: 0x0, symName: __ZN4absl12lts_2021110216strings_internal25ResizeUninitializedTraitsINSt3__112basic_stringIcNS3_11char_traitsIcEENS3_9allocatorIcEEEEvE6ResizeEPS9_m, symObjAddr: 0x8FDC, symBinAddr: 0x17D18, symSize: 0xD8 }
  - { offsetInCU: 0x30785, offset: 0xA26F7, size: 0x8, addend: 0x0, symName: __ZNK4absl12lts_202111024Cord19CopyToArraySlowPathEPc, symObjAddr: 0x4450, symBinAddr: 0x13E1C, symSize: 0x1B8 }
  - { offsetInCU: 0x30E0D, offset: 0xA2D7F, size: 0x8, addend: 0x0, symName: __ZNK4absl12lts_202111024Cord9InlineRep6CopyToEPNSt3__112basic_stringIcNS3_11char_traitsIcEENS3_9allocatorIcEEEE.cold.1, symObjAddr: 0xA588, symBinAddr: 0x4FDEC, symSize: 0x24 }
  - { offsetInCU: 0x30E9B, offset: 0xA2E0D, size: 0x8, addend: 0x0, symName: __ZN4absl12lts_202111024Cord10GetFlatAuxEPNS0_13cord_internal7CordRepEPNS0_11string_viewE, symObjAddr: 0x4608, symBinAddr: 0x13FD4, symSize: 0x118 }
  - { offsetInCU: 0x31166, offset: 0xA30D8, size: 0x8, addend: 0x0, symName: __ZN4absl12lts_202111024Cord13ChunkIterator12AdvanceStackEv, symObjAddr: 0x4720, symBinAddr: 0x140EC, symSize: 0xF0 }
  - { offsetInCU: 0x31171, offset: 0xA30E3, size: 0x8, addend: 0x0, symName: __ZNK4absl12lts_202111024Cord19CopyToArraySlowPathEPc.cold.1, symObjAddr: 0xA5AC, symBinAddr: 0x4FE10, symSize: 0x28 }
  - { offsetInCU: 0x31189, offset: 0xA30FB, size: 0x8, addend: 0x0, symName: __ZNK4absl12lts_202111024Cord19CopyToArraySlowPathEPc.cold.2, symObjAddr: 0xA5D4, symBinAddr: 0x4FE38, symSize: 0x24 }
  - { offsetInCU: 0x3124F, offset: 0xA31C1, size: 0x8, addend: 0x0, symName: __ZN4absl12lts_202111024Cord10GetFlatAuxEPNS0_13cord_internal7CordRepEPNS0_11string_viewE.cold.1, symObjAddr: 0xA5F8, symBinAddr: 0x4FE5C, symSize: 0x28 }
  - { offsetInCU: 0x31267, offset: 0xA31D9, size: 0x8, addend: 0x0, symName: __ZN4absl12lts_202111024Cord10GetFlatAuxEPNS0_13cord_internal7CordRepEPNS0_11string_viewE.cold.2, symObjAddr: 0xA620, symBinAddr: 0x4FE84, symSize: 0x24 }
  - { offsetInCU: 0x31295, offset: 0xA3207, size: 0x8, addend: 0x0, symName: __ZN4absl12lts_202111024Cord10GetFlatAuxEPNS0_13cord_internal7CordRepEPNS0_11string_viewE.cold.3, symObjAddr: 0xA644, symBinAddr: 0x4FEA8, symSize: 0x24 }
  - { offsetInCU: 0x31303, offset: 0xA3275, size: 0x8, addend: 0x0, symName: __ZN4absl12lts_202111024Cord10GetFlatAuxEPNS0_13cord_internal7CordRepEPNS0_11string_viewE.cold.4, symObjAddr: 0xA668, symBinAddr: 0x4FECC, symSize: 0x24 }
  - { offsetInCU: 0x31371, offset: 0xA32E3, size: 0x8, addend: 0x0, symName: __ZN4absl12lts_202111024Cord10GetFlatAuxEPNS0_13cord_internal7CordRepEPNS0_11string_viewE.cold.5, symObjAddr: 0xA68C, symBinAddr: 0x4FEF0, symSize: 0x24 }
  - { offsetInCU: 0x3139F, offset: 0xA3311, size: 0x8, addend: 0x0, symName: __ZN4absl12lts_202111024Cord10GetFlatAuxEPNS0_13cord_internal7CordRepEPNS0_11string_viewE.cold.6, symObjAddr: 0xA6B0, symBinAddr: 0x4FF14, symSize: 0x24 }
  - { offsetInCU: 0x3140D, offset: 0xA337F, size: 0x8, addend: 0x0, symName: __ZN4absl12lts_202111024Cord10GetFlatAuxEPNS0_13cord_internal7CordRepEPNS0_11string_viewE.cold.7, symObjAddr: 0xA6D4, symBinAddr: 0x4FF38, symSize: 0x24 }
  - { offsetInCU: 0x314A7, offset: 0xA3419, size: 0x8, addend: 0x0, symName: __ZN4absl12lts_202111024Cord13ChunkIterator12AdvanceStackEv.cold.1, symObjAddr: 0xA6F8, symBinAddr: 0x4FF5C, symSize: 0x28 }
  - { offsetInCU: 0x314BF, offset: 0xA3431, size: 0x8, addend: 0x0, symName: __ZN4absl12lts_202111024Cord13ChunkIterator12AdvanceStackEv.cold.6, symObjAddr: 0xA7B8, symBinAddr: 0x5001C, symSize: 0x24 }
  - { offsetInCU: 0x314ED, offset: 0xA345F, size: 0x8, addend: 0x0, symName: __ZN4absl12lts_202111024Cord13ChunkIterator12AdvanceStackEv.cold.2, symObjAddr: 0xA720, symBinAddr: 0x4FF84, symSize: 0x28 }
  - { offsetInCU: 0x31505, offset: 0xA3477, size: 0x8, addend: 0x0, symName: __ZN4absl12lts_202111024Cord13ChunkIterator12AdvanceStackEv.cold.3, symObjAddr: 0xA748, symBinAddr: 0x4FFAC, symSize: 0x24 }
  - { offsetInCU: 0x31573, offset: 0xA34E5, size: 0x8, addend: 0x0, symName: __ZN4absl12lts_202111024Cord13ChunkIterator12AdvanceStackEv.cold.4, symObjAddr: 0xA76C, symBinAddr: 0x4FFD0, symSize: 0x28 }
  - { offsetInCU: 0x3158B, offset: 0xA34FD, size: 0x8, addend: 0x0, symName: __ZN4absl12lts_202111024Cord13ChunkIterator12AdvanceStackEv.cold.5, symObjAddr: 0xA794, symBinAddr: 0x4FFF8, symSize: 0x24 }
  - { offsetInCU: 0x315E2, offset: 0xA3554, size: 0x8, addend: 0x0, symName: __ZN4absl12lts_2021110213InlinedVectorIPNS0_13cord_internal7CordRepELm47ENSt3__19allocatorIS4_EEE4backEv.cold.1, symObjAddr: 0xA7DC, symBinAddr: 0x50040, symSize: 0x24 }
  - { offsetInCU: 0x31740, offset: 0xA36B2, size: 0x8, addend: 0x0, symName: __ZN4absl12lts_202111024Cord13ChunkIterator19AdvanceAndReadBytesEm, symObjAddr: 0x4898, symBinAddr: 0x14264, symSize: 0x808 }
  - { offsetInCU: 0x32601, offset: 0xA4573, size: 0x8, addend: 0x0, symName: __ZN4absl12lts_2021110213cord_internal18CordRepBtreeReader4NextEv, symObjAddr: 0x50E4, symBinAddr: 0x14A6C, symSize: 0x10C }
  - { offsetInCU: 0x3260C, offset: 0xA457E, size: 0x8, addend: 0x0, symName: __ZN4absl12lts_202111024Cord13ChunkIterator19AdvanceAndReadBytesEm.cold.1, symObjAddr: 0xA800, symBinAddr: 0x50064, symSize: 0x28 }
  - { offsetInCU: 0x3277C, offset: 0xA46EE, size: 0x8, addend: 0x0, symName: __ZN4absl12lts_2021110213cord_internal21CordRepBtreeNavigator6NextUpEv, symObjAddr: 0x8EE0, symBinAddr: 0x17C1C, symSize: 0xFC }
  - { offsetInCU: 0x3294F, offset: 0xA48C1, size: 0x8, addend: 0x0, symName: __ZN4absl12lts_2021110216strings_internal25ResizeUninitializedTraitsINSt3__112basic_stringIcNS3_11char_traitsIcEENS3_9allocatorIcEEEEvE6ResizeEPS9_m, symObjAddr: 0x8FDC, symBinAddr: 0x17D18, symSize: 0xD8 }
  - { offsetInCU: 0x3295A, offset: 0xA48CC, size: 0x8, addend: 0x0, symName: __ZN4absl12lts_2021110213cord_internal18CordRepBtreeReader4NextEv.cold.1, symObjAddr: 0xA84C, symBinAddr: 0x5008C, symSize: 0x28 }
  - { offsetInCU: 0x32972, offset: 0xA48E4, size: 0x8, addend: 0x0, symName: __ZN4absl12lts_2021110213cord_internal18CordRepBtreeReader4NextEv.cold.3, symObjAddr: 0xA898, symBinAddr: 0x500D8, symSize: 0x24 }
  - { offsetInCU: 0x329F5, offset: 0xA4967, size: 0x8, addend: 0x0, symName: __ZN4absl12lts_2021110213cord_internal18CordRepBtreeReader4NextEv.cold.5, symObjAddr: 0xA8E0, symBinAddr: 0x50120, symSize: 0x24 }
  - { offsetInCU: 0x32A37, offset: 0xA49A9, size: 0x8, addend: 0x0, symName: __ZN4absl12lts_2021110213cord_internal18CordRepBtreeReader4NextEv.cold.6, symObjAddr: 0xA904, symBinAddr: 0x50144, symSize: 0x24 }
  - { offsetInCU: 0x32A79, offset: 0xA49EB, size: 0x8, addend: 0x0, symName: __ZN4absl12lts_2021110213cord_internal18CordRepBtreeReader4NextEv.cold.4, symObjAddr: 0xA8BC, symBinAddr: 0x500FC, symSize: 0x24 }
  - { offsetInCU: 0x32ABC, offset: 0xA4A2E, size: 0x8, addend: 0x0, symName: __ZN4absl12lts_2021110213cord_internal18CordRepBtreeReader4NextEv.cold.2, symObjAddr: 0xA874, symBinAddr: 0x500B4, symSize: 0x24 }
  - { offsetInCU: 0x32B54, offset: 0xA4AC6, size: 0x8, addend: 0x0, symName: __ZN4absl12lts_20211102L12NewSubstringEPNS0_13cord_internal7CordRepEmm.cold.3, symObjAddr: 0xA970, symBinAddr: 0x501B0, symSize: 0x28 }
  - { offsetInCU: 0x32B6C, offset: 0xA4ADE, size: 0x8, addend: 0x0, symName: __ZN4absl12lts_20211102L12NewSubstringEPNS0_13cord_internal7CordRepEmm.cold.1, symObjAddr: 0xA928, symBinAddr: 0x50168, symSize: 0x24 }
  - { offsetInCU: 0x32B9A, offset: 0xA4B0C, size: 0x8, addend: 0x0, symName: __ZN4absl12lts_20211102L12NewSubstringEPNS0_13cord_internal7CordRepEmm.cold.2, symObjAddr: 0xA94C, symBinAddr: 0x5018C, symSize: 0x24 }
  - { offsetInCU: 0x32BDE, offset: 0xA4B50, size: 0x8, addend: 0x0, symName: __ZN4absl12lts_202111024Cord13ChunkIterator20AdvanceBytesSlowPathEm.cold.3, symObjAddr: 0xA9E8, symBinAddr: 0x50228, symSize: 0x28 }
  - { offsetInCU: 0x32BF6, offset: 0xA4B68, size: 0x8, addend: 0x0, symName: __ZN4absl12lts_202111024Cord13ChunkIterator20AdvanceBytesSlowPathEm.cold.9, symObjAddr: 0xAACC, symBinAddr: 0x5030C, symSize: 0x28 }
  - { offsetInCU: 0x32C0E, offset: 0xA4B80, size: 0x8, addend: 0x0, symName: __ZN4absl12lts_202111024Cord13ChunkIterator20AdvanceBytesSlowPathEm.cold.8, symObjAddr: 0xAAA8, symBinAddr: 0x502E8, symSize: 0x24 }
  - { offsetInCU: 0x32C3C, offset: 0xA4BAE, size: 0x8, addend: 0x0, symName: __ZN4absl12lts_202111024Cord13ChunkIterator20AdvanceBytesSlowPathEm.cold.1, symObjAddr: 0xA998, symBinAddr: 0x501D8, symSize: 0x28 }
  - { offsetInCU: 0x32C54, offset: 0xA4BC6, size: 0x8, addend: 0x0, symName: __ZN4absl12lts_202111024Cord13ChunkIterator20AdvanceBytesSlowPathEm.cold.2, symObjAddr: 0xA9C0, symBinAddr: 0x50200, symSize: 0x28 }
  - { offsetInCU: 0x32C6C, offset: 0xA4BDE, size: 0x8, addend: 0x0, symName: __ZN4absl12lts_202111024Cord13ChunkIterator20AdvanceBytesSlowPathEm.cold.5, symObjAddr: 0xAA34, symBinAddr: 0x50274, symSize: 0x28 }
  - { offsetInCU: 0x32C84, offset: 0xA4BF6, size: 0x8, addend: 0x0, symName: __ZN4absl12lts_202111024Cord13ChunkIterator20AdvanceBytesSlowPathEm.cold.4, symObjAddr: 0xAA10, symBinAddr: 0x50250, symSize: 0x24 }
  - { offsetInCU: 0x32CF2, offset: 0xA4C64, size: 0x8, addend: 0x0, symName: __ZN4absl12lts_202111024Cord13ChunkIterator20AdvanceBytesSlowPathEm.cold.6, symObjAddr: 0xAA5C, symBinAddr: 0x5029C, symSize: 0x28 }
  - { offsetInCU: 0x32D0A, offset: 0xA4C7C, size: 0x8, addend: 0x0, symName: __ZN4absl12lts_202111024Cord13ChunkIterator20AdvanceBytesSlowPathEm.cold.7, symObjAddr: 0xAA84, symBinAddr: 0x502C4, symSize: 0x24 }
  - { offsetInCU: 0x32D38, offset: 0xA4CAA, size: 0x8, addend: 0x0, symName: __ZNK4absl12lts_202111024CordixEm, symObjAddr: 0x544C, symBinAddr: 0x14DD4, symSize: 0xE8 }
  - { offsetInCU: 0x32F5D, offset: 0xA4ECF, size: 0x8, addend: 0x0, symName: __ZN4absl12lts_202111024Cord15FlattenSlowPathEv, symObjAddr: 0x5534, symBinAddr: 0x14EBC, symSize: 0x1FC }
  - { offsetInCU: 0x32F91, offset: 0xA4F03, size: 0x8, addend: 0x0, symName: __ZNK4absl12lts_202111024CordixEm.cold.4, symObjAddr: 0xAB68, symBinAddr: 0x503A8, symSize: 0x28 }
  - { offsetInCU: 0x32FA9, offset: 0xA4F1B, size: 0x8, addend: 0x0, symName: __ZNK4absl12lts_202111024CordixEm.cold.1, symObjAddr: 0xAAF4, symBinAddr: 0x50334, symSize: 0x28 }
  - { offsetInCU: 0x32FD7, offset: 0xA4F49, size: 0x8, addend: 0x0, symName: __ZNK4absl12lts_202111024CordixEm.cold.5, symObjAddr: 0xAB90, symBinAddr: 0x503D0, symSize: 0x28 }
  - { offsetInCU: 0x32FEF, offset: 0xA4F61, size: 0x8, addend: 0x0, symName: __ZNK4absl12lts_202111024CordixEm.cold.3, symObjAddr: 0xAB40, symBinAddr: 0x50380, symSize: 0x28 }
  - { offsetInCU: 0x33007, offset: 0xA4F79, size: 0x8, addend: 0x0, symName: __ZNK4absl12lts_202111024CordixEm.cold.2, symObjAddr: 0xAB1C, symBinAddr: 0x5035C, symSize: 0x24 }
  - { offsetInCU: 0x330C6, offset: 0xA5038, size: 0x8, addend: 0x0, symName: __ZN4absl12lts_202111024Cord15FlattenSlowPathEv.cold.1, symObjAddr: 0xABB8, symBinAddr: 0x503F8, symSize: 0x28 }
  - { offsetInCU: 0x330DE, offset: 0xA5050, size: 0x8, addend: 0x0, symName: __ZN4absl12lts_202111024Cord15FlattenSlowPathEv.cold.2, symObjAddr: 0xABE0, symBinAddr: 0x50420, symSize: 0x24 }
  - { offsetInCU: 0x3310C, offset: 0xA507E, size: 0x8, addend: 0x0, symName: __ZN4absl12lts_202111024Cord15FlattenSlowPathEv.cold.3, symObjAddr: 0xAC04, symBinAddr: 0x50444, symSize: 0x24 }
  - { offsetInCU: 0x331F0, offset: 0xA5162, size: 0x8, addend: 0x0, symName: __ZN4absl12lts_202111024Cord15ForEachChunkAuxEPNS0_13cord_internal7CordRepENS0_11FunctionRefIFvNS0_11string_viewEEEE, symObjAddr: 0x5730, symBinAddr: 0x150B8, symSize: 0x230 }
  - { offsetInCU: 0x33821, offset: 0xA5793, size: 0x8, addend: 0x0, symName: __ZN4absl12lts_202111024Cord15ForEachChunkAuxEPNS0_13cord_internal7CordRepENS0_11FunctionRefIFvNS0_11string_viewEEEE.cold.1, symObjAddr: 0xAC28, symBinAddr: 0x50468, symSize: 0x28 }
  - { offsetInCU: 0x33C53, offset: 0xA5BC5, size: 0x8, addend: 0x0, symName: __ZN4absl12lts_202111024Cord14MemoryUsageAuxEPKNS0_13cord_internal7CordRepE, symObjAddr: 0x5960, symBinAddr: 0x152E8, symSize: 0x2E8 }
  - { offsetInCU: 0x34477, offset: 0xA63E9, size: 0x8, addend: 0x0, symName: __ZN4absl12lts_2021110223inlined_vector_internal7StorageIPKNS0_13cord_internal7CordRepELm47ENSt3__19allocatorIS6_EEE11EmplaceBackIJRKS6_EEERS6_DpOT_, symObjAddr: 0x9CF8, symBinAddr: 0x18998, symSize: 0x44 }
  - { offsetInCU: 0x344D2, offset: 0xA6444, size: 0x8, addend: 0x0, symName: __ZN4absl12lts_2021110223inlined_vector_internal7StorageIPKNS0_13cord_internal7CordRepELm47ENSt3__19allocatorIS6_EEE11EmplaceBackIJRKS6_EEERS6_DpOT_, symObjAddr: 0x9CF8, symBinAddr: 0x18998, symSize: 0x44 }
  - { offsetInCU: 0x344EE, offset: 0xA6460, size: 0x8, addend: 0x0, symName: __ZN4absl12lts_2021110223inlined_vector_internal7StorageIPKNS0_13cord_internal7CordRepELm47ENSt3__19allocatorIS6_EEE11EmplaceBackIJRKS6_EEERS6_DpOT_, symObjAddr: 0x9CF8, symBinAddr: 0x18998, symSize: 0x44 }
  - { offsetInCU: 0x345D7, offset: 0xA6549, size: 0x8, addend: 0x0, symName: __ZN4absl12lts_2021110213InlinedVectorIPKNS0_13cord_internal7CordRepELm47ENSt3__19allocatorIS5_EEE4backEv, symObjAddr: 0x5CC4, symBinAddr: 0x1564C, symSize: 0x3C }
  - { offsetInCU: 0x346B5, offset: 0xA6627, size: 0x8, addend: 0x0, symName: __ZN4absl12lts_2021110213InlinedVectorIPKNS0_13cord_internal7CordRepELm47ENSt3__19allocatorIS5_EEE8pop_backEv, symObjAddr: 0x5D00, symBinAddr: 0x15688, symSize: 0x4C }
  - { offsetInCU: 0x346C0, offset: 0xA6632, size: 0x8, addend: 0x0, symName: __ZN4absl12lts_2021110213InlinedVectorIPKNS0_13cord_internal7CordRepELm47ENSt3__19allocatorIS5_EEE8pop_backEv, symObjAddr: 0x5D00, symBinAddr: 0x15688, symSize: 0x4C }
  - { offsetInCU: 0x3478D, offset: 0xA66FF, size: 0x8, addend: 0x0, symName: __ZN4absl12lts_20211102L18RepMemoryUsageLeafEPKNS0_13cord_internal7CordRepEPm.cold.1, symObjAddr: 0xAC50, symBinAddr: 0x50490, symSize: 0x24 }
  - { offsetInCU: 0x347FA, offset: 0xA676C, size: 0x8, addend: 0x0, symName: __ZN4absl12lts_2021110213InlinedVectorIPKNS0_13cord_internal7CordRepELm47ENSt3__19allocatorIS5_EEE4backEv.cold.1, symObjAddr: 0xAC74, symBinAddr: 0x504B4, symSize: 0x24 }
  - { offsetInCU: 0x34873, offset: 0xA67E5, size: 0x8, addend: 0x0, symName: __ZN4absl12lts_20211102lsERNSt3__113basic_ostreamIcNS1_11char_traitsIcEEEERKNS0_4CordE.cold.1, symObjAddr: 0xAC98, symBinAddr: 0x504D8, symSize: 0x24 }
  - { offsetInCU: 0x34939, offset: 0xA68AB, size: 0x8, addend: 0x0, symName: __ZN4absl12lts_2021110216strings_internal14CordTestAccess12FlatOverheadEv, symObjAddr: 0x5F0C, symBinAddr: 0x15894, symSize: 0x8 }
  - { offsetInCU: 0x34950, offset: 0xA68C2, size: 0x8, addend: 0x0, symName: __ZN4absl12lts_2021110216strings_internal14CordTestAccess13MaxFlatLengthEv, symObjAddr: 0x5F14, symBinAddr: 0x1589C, symSize: 0x8 }
  - { offsetInCU: 0x34967, offset: 0xA68D9, size: 0x8, addend: 0x0, symName: __ZN4absl12lts_2021110216strings_internal14CordTestAccess15FlatTagToLengthEh, symObjAddr: 0x5F1C, symBinAddr: 0x158A4, symSize: 0x24 }
  - { offsetInCU: 0x34992, offset: 0xA6904, size: 0x8, addend: 0x0, symName: __ZN4absl12lts_2021110216strings_internal14CordTestAccess15FlatTagToLengthEh, symObjAddr: 0x5F1C, symBinAddr: 0x158A4, symSize: 0x24 }
  - { offsetInCU: 0x349AE, offset: 0xA6920, size: 0x8, addend: 0x0, symName: __ZN4absl12lts_2021110216strings_internal14CordTestAccess15FlatTagToLengthEh, symObjAddr: 0x5F1C, symBinAddr: 0x158A4, symSize: 0x24 }
  - { offsetInCU: 0x349C8, offset: 0xA693A, size: 0x8, addend: 0x0, symName: __ZN4absl12lts_2021110216strings_internal14CordTestAccess11LengthToTagEm, symObjAddr: 0x5F40, symBinAddr: 0x158C8, symSize: 0x154 }
  - { offsetInCU: 0x3507E, offset: 0xA6FF0, size: 0x8, addend: 0x0, symName: __ZN4absl12lts_2021110216strings_internal14CordTestAccess11LengthToTagEm.cold.1, symObjAddr: 0xACBC, symBinAddr: 0x504FC, symSize: 0x28 }
  - { offsetInCU: 0x350AC, offset: 0xA701E, size: 0x8, addend: 0x0, symName: __ZN4absl12lts_2021110216strings_internal14CordTestAccess19SizeofCordRepConcatEv, symObjAddr: 0x6094, symBinAddr: 0x15A1C, symSize: 0x8 }
  - { offsetInCU: 0x350C3, offset: 0xA7035, size: 0x8, addend: 0x0, symName: __ZN4absl12lts_2021110216strings_internal14CordTestAccess21SizeofCordRepExternalEv, symObjAddr: 0x609C, symBinAddr: 0x15A24, symSize: 0x8 }
  - { offsetInCU: 0x350DA, offset: 0xA704C, size: 0x8, addend: 0x0, symName: __ZN4absl12lts_2021110216strings_internal14CordTestAccess22SizeofCordRepSubstringEv, symObjAddr: 0x60A4, symBinAddr: 0x15A2C, symSize: 0x8 }
  - { offsetInCU: 0x35130, offset: 0xA70A2, size: 0x8, addend: 0x0, symName: __ZN4absl12lts_2021110213InlinedVectorIPNS0_13cord_internal7CordRepELm2ENSt3__19allocatorIS4_EEE4backEv.cold.1, symObjAddr: 0xACE4, symBinAddr: 0x50524, symSize: 0x24 }
  - { offsetInCU: 0x3597B, offset: 0xA78ED, size: 0x8, addend: 0x0, symName: __ZN4absl12lts_2021110213InlinedVectorIiLm47ENSt3__19allocatorIiEEE4backEv, symObjAddr: 0x7478, symBinAddr: 0x16348, symSize: 0x3C }
  - { offsetInCU: 0x35A59, offset: 0xA79CB, size: 0x8, addend: 0x0, symName: __ZN4absl12lts_2021110213InlinedVectorIiLm47ENSt3__19allocatorIiEEE8pop_backEv, symObjAddr: 0x74B4, symBinAddr: 0x16384, symSize: 0x4C }
  - { offsetInCU: 0x35A64, offset: 0xA79D6, size: 0x8, addend: 0x0, symName: __ZN4absl12lts_2021110213InlinedVectorIiLm47ENSt3__19allocatorIiEEE8pop_backEv, symObjAddr: 0x74B4, symBinAddr: 0x16384, symSize: 0x4C }
  - { offsetInCU: 0x35B31, offset: 0xA7AA3, size: 0x8, addend: 0x0, symName: __ZN4absl12lts_2021110223inlined_vector_internal7StorageIiLm47ENSt3__19allocatorIiEEE11EmplaceBackIJRKiEEERiDpOT_, symObjAddr: 0x7500, symBinAddr: 0x163D0, symSize: 0x44 }
  - { offsetInCU: 0x35B8C, offset: 0xA7AFE, size: 0x8, addend: 0x0, symName: __ZN4absl12lts_2021110223inlined_vector_internal7StorageIiLm47ENSt3__19allocatorIiEEE11EmplaceBackIJRKiEEERiDpOT_, symObjAddr: 0x7500, symBinAddr: 0x163D0, symSize: 0x44 }
  - { offsetInCU: 0x35BA8, offset: 0xA7B1A, size: 0x8, addend: 0x0, symName: __ZN4absl12lts_2021110223inlined_vector_internal7StorageIiLm47ENSt3__19allocatorIiEEE11EmplaceBackIJRKiEEERiDpOT_, symObjAddr: 0x7500, symBinAddr: 0x163D0, symSize: 0x44 }
  - { offsetInCU: 0x35F30, offset: 0xA7EA2, size: 0x8, addend: 0x0, symName: __ZN4absl12lts_2021110223inlined_vector_internal7StorageIPNS0_13cord_internal7CordRepELm2ENSt3__19allocatorIS5_EEE15EmplaceBackSlowIJRKS5_EEERS5_DpOT_, symObjAddr: 0x68C0, symBinAddr: 0x1623C, symSize: 0xD8 }
  - { offsetInCU: 0x366B7, offset: 0xA8629, size: 0x8, addend: 0x0, symName: __ZN4absl12lts_2021110223inlined_vector_internal13MallocAdapterINSt3__19allocatorIPNS0_13cord_internal7CordRepEEELb0EE8AllocateERS8_m, symObjAddr: 0x6998, symBinAddr: 0x16314, symSize: 0x34 }
  - { offsetInCU: 0x36DFD, offset: 0xA8D6F, size: 0x8, addend: 0x0, symName: __ZN4absl12lts_2021110213InlinedVectorIiLm47ENSt3__19allocatorIiEEE4backEv.cold.1, symObjAddr: 0xAD08, symBinAddr: 0x50548, symSize: 0x24 }
  - { offsetInCU: 0x36F4A, offset: 0xA8EBC, size: 0x8, addend: 0x0, symName: __ZN4absl12lts_2021110223inlined_vector_internal7StorageIiLm47ENSt3__19allocatorIiEEE15EmplaceBackSlowIJRKiEEERiDpOT_, symObjAddr: 0x7544, symBinAddr: 0x16414, symSize: 0xD4 }
  - { offsetInCU: 0x376D8, offset: 0xA964A, size: 0x8, addend: 0x0, symName: __ZN4absl12lts_2021110223inlined_vector_internal13MallocAdapterINSt3__19allocatorIiEELb0EE8AllocateERS5_m, symObjAddr: 0x7618, symBinAddr: 0x164E8, symSize: 0x34 }
  - { offsetInCU: 0x37ABF, offset: 0xA9A31, size: 0x8, addend: 0x0, symName: __ZN4absl12lts_2021110213cord_internal19CordRepExternalImplIZNS0_L17CordRepFromStringEONSt3__112basic_stringIcNS3_11char_traitsIcEENS3_9allocatorIcEEEEE14StringReleaserE7ReleaseEPNS1_15CordRepExternalE, symObjAddr: 0x77E0, symBinAddr: 0x1651C, symSize: 0x70 }
  - { offsetInCU: 0x37BC2, offset: 0xA9B34, size: 0x8, addend: 0x0, symName: __ZN4absl12lts_2021110213cord_internal19CordRepExternalImplIZNS0_L17CordRepFromStringEONSt3__112basic_stringIcNS3_11char_traitsIcEENS3_9allocatorIcEEEEE14StringReleaserE7ReleaseEPNS1_15CordRepExternalE, symObjAddr: 0x77E0, symBinAddr: 0x1651C, symSize: 0x70 }
  - { offsetInCU: 0x37E85, offset: 0xA9DF7, size: 0x8, addend: 0x0, symName: __ZN4absl12lts_20211102L9RawConcatEPNS0_13cord_internal7CordRepES3_.cold.1, symObjAddr: 0xAD2C, symBinAddr: 0x5056C, symSize: 0x24 }
  - { offsetInCU: 0x37EC8, offset: 0xA9E3A, size: 0x8, addend: 0x0, symName: __ZN4absl12lts_20211102L9RawConcatEPNS0_13cord_internal7CordRepES3_.cold.2, symObjAddr: 0xAD50, symBinAddr: 0x50590, symSize: 0x24 }
  - { offsetInCU: 0x38449, offset: 0xAA3BB, size: 0x8, addend: 0x0, symName: __ZN4absl12lts_2021110210CordForest9CheckNodeEPNS0_13cord_internal7CordRepE, symObjAddr: 0x7EE0, symBinAddr: 0x16C1C, symSize: 0x2A0 }
  - { offsetInCU: 0x390F3, offset: 0xAB065, size: 0x8, addend: 0x0, symName: __ZN4absl12lts_2021110210CordForest7AddNodeEPNS0_13cord_internal7CordRepE, symObjAddr: 0x8180, symBinAddr: 0x16EBC, symSize: 0x144 }
  - { offsetInCU: 0x3927C, offset: 0xAB1EE, size: 0x8, addend: 0x0, symName: __ZNKSt3__16vectorIPN4absl12lts_2021110213cord_internal7CordRepENS_9allocatorIS5_EEE20__throw_length_errorB7v160006Ev, symObjAddr: 0x82C4, symBinAddr: 0x17000, symSize: 0x14 }
  - { offsetInCU: 0x39287, offset: 0xAB1F9, size: 0x8, addend: 0x0, symName: __ZNKSt3__16vectorIPN4absl12lts_2021110213cord_internal7CordRepENS_9allocatorIS5_EEE20__throw_length_errorB7v160006Ev, symObjAddr: 0x82C4, symBinAddr: 0x17000, symSize: 0x14 }
  - { offsetInCU: 0x392B0, offset: 0xAB222, size: 0x8, addend: 0x0, symName: __ZNSt3__119__allocate_at_leastB7v160006INS_9allocatorIPN4absl12lts_2021110213cord_internal7CordRepEEEEENS_19__allocation_resultINS_16allocator_traitsIT_E7pointerEEERSA_m, symObjAddr: 0x82D8, symBinAddr: 0x17014, symSize: 0x34 }
  - { offsetInCU: 0x39315, offset: 0xAB287, size: 0x8, addend: 0x0, symName: __ZN4absl12lts_2021110210CordForest10MakeConcatEPNS0_13cord_internal7CordRepES4_, symObjAddr: 0x833C, symBinAddr: 0x17078, symSize: 0x90 }
  - { offsetInCU: 0x3949D, offset: 0xAB40F, size: 0x8, addend: 0x0, symName: __ZN4absl12lts_2021110213cord_internal16CordzUpdateScopeD2Ev, symObjAddr: 0x83CC, symBinAddr: 0x17108, symSize: 0x34 }
  - { offsetInCU: 0x395D9, offset: 0xAB54B, size: 0x8, addend: 0x0, symName: __ZN4absl12lts_2021110223inlined_vector_internal7StorageIPNS0_13cord_internal7CordRepELm47ENSt3__19allocatorIS5_EEE10InitializeINS1_16CopyValueAdapterIS8_EEEEvT_m, symObjAddr: 0x7E4C, symBinAddr: 0x16B88, symSize: 0x94 }
  - { offsetInCU: 0x3980D, offset: 0xAB77F, size: 0x8, addend: 0x0, symName: __ZN4absl12lts_2021110210CordForest9CheckNodeEPNS0_13cord_internal7CordRepE, symObjAddr: 0x7EE0, symBinAddr: 0x16C1C, symSize: 0x2A0 }
  - { offsetInCU: 0x398D1, offset: 0xAB843, size: 0x8, addend: 0x0, symName: __ZN4absl12lts_2021110223inlined_vector_internal7StorageIPNS0_13cord_internal7CordRepELm47ENSt3__19allocatorIS5_EEE10InitializeINS1_16CopyValueAdapterIS8_EEEEvT_m.cold.2, symObjAddr: 0xAD9C, symBinAddr: 0x505DC, symSize: 0x28 }
  - { offsetInCU: 0x398E9, offset: 0xAB85B, size: 0x8, addend: 0x0, symName: __ZN4absl12lts_2021110223inlined_vector_internal7StorageIPNS0_13cord_internal7CordRepELm47ENSt3__19allocatorIS5_EEE10InitializeINS1_16CopyValueAdapterIS8_EEEEvT_m.cold.1, symObjAddr: 0xAD74, symBinAddr: 0x505B4, symSize: 0x28 }
  - { offsetInCU: 0x3992F, offset: 0xAB8A1, size: 0x8, addend: 0x0, symName: __ZN4absl12lts_2021110213InlinedVectorIPNS0_13cord_internal7CordRepELm47ENSt3__19allocatorIS4_EEEixEm, symObjAddr: 0x830C, symBinAddr: 0x17048, symSize: 0x30 }
  - { offsetInCU: 0x399F4, offset: 0xAB966, size: 0x8, addend: 0x0, symName: __ZN4absl12lts_2021110210CordForest10MakeConcatEPNS0_13cord_internal7CordRepES4_, symObjAddr: 0x833C, symBinAddr: 0x17078, symSize: 0x90 }
  - { offsetInCU: 0x399FF, offset: 0xAB971, size: 0x8, addend: 0x0, symName: __ZN4absl12lts_2021110210CordForest7AddNodeEPNS0_13cord_internal7CordRepE.cold.1, symObjAddr: 0xADC4, symBinAddr: 0x50604, symSize: 0x28 }
  - { offsetInCU: 0x39A40, offset: 0xAB9B2, size: 0x8, addend: 0x0, symName: __ZN4absl12lts_2021110213InlinedVectorIPNS0_13cord_internal7CordRepELm47ENSt3__19allocatorIS4_EEEixEm.cold.1, symObjAddr: 0xADEC, symBinAddr: 0x5062C, symSize: 0x28 }
  - { offsetInCU: 0x39A6E, offset: 0xAB9E0, size: 0x8, addend: 0x0, symName: __ZN4absl12lts_2021110210CordForest10MakeConcatEPNS0_13cord_internal7CordRepES4_.cold.1, symObjAddr: 0xAE14, symBinAddr: 0x50654, symSize: 0x24 }
  - { offsetInCU: 0x39A9C, offset: 0xABA0E, size: 0x8, addend: 0x0, symName: __ZN4absl12lts_2021110213cord_internal10InlineData18is_either_profiledERKS2_S4_.cold.1, symObjAddr: 0xAE38, symBinAddr: 0x50678, symSize: 0x28 }
  - { offsetInCU: 0x39AD8, offset: 0xABA4A, size: 0x8, addend: 0x0, symName: __ZN4absl12lts_2021110213cord_internal12CordRepBtree15GetAppendBufferEm.cold.5, symObjAddr: 0xAEF0, symBinAddr: 0x50730, symSize: 0x28 }
  - { offsetInCU: 0x39AF0, offset: 0xABA62, size: 0x8, addend: 0x0, symName: __ZN4absl12lts_2021110213cord_internal12CordRepBtree15GetAppendBufferEm.cold.2, symObjAddr: 0xAE84, symBinAddr: 0x506C4, symSize: 0x24 }
  - { offsetInCU: 0x39B1E, offset: 0xABA90, size: 0x8, addend: 0x0, symName: __ZN4absl12lts_2021110213cord_internal12CordRepBtree15GetAppendBufferEm.cold.3, symObjAddr: 0xAEA8, symBinAddr: 0x506E8, symSize: 0x24 }
  - { offsetInCU: 0x39B4C, offset: 0xABABE, size: 0x8, addend: 0x0, symName: __ZN4absl12lts_2021110213cord_internal12CordRepBtree15GetAppendBufferEm.cold.4, symObjAddr: 0xAECC, symBinAddr: 0x5070C, symSize: 0x24 }
  - { offsetInCU: 0x39B7A, offset: 0xABAEC, size: 0x8, addend: 0x0, symName: __ZN4absl12lts_2021110213cord_internal12CordRepBtree15GetAppendBufferEm.cold.1, symObjAddr: 0xAE60, symBinAddr: 0x506A0, symSize: 0x24 }
  - { offsetInCU: 0x39BA8, offset: 0xABB1A, size: 0x8, addend: 0x0, symName: __ZN4absl12lts_202111028AlphaNumC2Em.cold.1, symObjAddr: 0xAF18, symBinAddr: 0x50758, symSize: 0x24 }
  - { offsetInCU: 0x39C58, offset: 0xABBCA, size: 0x8, addend: 0x0, symName: __ZN4absl12lts_2021110213cord_internal18CordRepBtreeReader4InitEPNS1_12CordRepBtreeE, symObjAddr: 0x872C, symBinAddr: 0x17468, symSize: 0xAC }
  - { offsetInCU: 0x39DEA, offset: 0xABD5C, size: 0x8, addend: 0x0, symName: __ZN4absl12lts_2021110213cord_internal21CordRepBtreeNavigator4InitILNS1_12CordRepBtree8EdgeTypeE0EEEPNS1_7CordRepEPS4_, symObjAddr: 0x87D8, symBinAddr: 0x17514, symSize: 0xD4 }
  - { offsetInCU: 0x39DF5, offset: 0xABD67, size: 0x8, addend: 0x0, symName: __ZN4absl12lts_202111024Cord13ChunkIterator8InitTreeEPNS0_13cord_internal7CordRepE.cold.1, symObjAddr: 0xAF3C, symBinAddr: 0x5077C, symSize: 0x28 }
  - { offsetInCU: 0x39E39, offset: 0xABDAB, size: 0x8, addend: 0x0, symName: __ZN4absl12lts_202111024Cord13ChunkIterator8InitTreeEPNS0_13cord_internal7CordRepE.cold.2, symObjAddr: 0xAF64, symBinAddr: 0x507A4, symSize: 0x28 }
  - { offsetInCU: 0x39E89, offset: 0xABDFB, size: 0x8, addend: 0x0, symName: __ZN4absl12lts_2021110213cord_internal21CordRepBtreeNavigator4InitILNS1_12CordRepBtree8EdgeTypeE0EEEPNS1_7CordRepEPS4_, symObjAddr: 0x87D8, symBinAddr: 0x17514, symSize: 0xD4 }
  - { offsetInCU: 0x3A0F6, offset: 0xAC068, size: 0x8, addend: 0x0, symName: __ZN4absl12lts_202111024Cord13ChunkIterator17AdvanceBytesBtreeEm, symObjAddr: 0x88AC, symBinAddr: 0x175E8, symSize: 0x80 }
  - { offsetInCU: 0x3A10B, offset: 0xAC07D, size: 0x8, addend: 0x0, symName: __ZN4absl12lts_2021110213cord_internal18CordRepBtreeReader4InitEPNS1_12CordRepBtreeE.cold.1, symObjAddr: 0xAF8C, symBinAddr: 0x507CC, symSize: 0x28 }
  - { offsetInCU: 0x3A123, offset: 0xAC095, size: 0x8, addend: 0x0, symName: __ZN4absl12lts_2021110213cord_internal18CordRepBtreeReader4InitEPNS1_12CordRepBtreeE.cold.3, symObjAddr: 0xAFD8, symBinAddr: 0x50818, symSize: 0x24 }
  - { offsetInCU: 0x3A1A6, offset: 0xAC118, size: 0x8, addend: 0x0, symName: __ZN4absl12lts_2021110213cord_internal18CordRepBtreeReader4InitEPNS1_12CordRepBtreeE.cold.4, symObjAddr: 0xAFFC, symBinAddr: 0x5083C, symSize: 0x24 }
  - { offsetInCU: 0x3A1E9, offset: 0xAC15B, size: 0x8, addend: 0x0, symName: __ZN4absl12lts_2021110213cord_internal18CordRepBtreeReader4InitEPNS1_12CordRepBtreeE.cold.2, symObjAddr: 0xAFB4, symBinAddr: 0x507F4, symSize: 0x24 }
  - { offsetInCU: 0x3A27A, offset: 0xAC1EC, size: 0x8, addend: 0x0, symName: __ZN4absl12lts_2021110213cord_internal21CordRepBtreeNavigator4InitILNS1_12CordRepBtree8EdgeTypeE0EEEPNS1_7CordRepEPS4_.cold.5, symObjAddr: 0xB0B8, symBinAddr: 0x508F8, symSize: 0x24 }
  - { offsetInCU: 0x3A2A7, offset: 0xAC219, size: 0x8, addend: 0x0, symName: __ZN4absl12lts_2021110213cord_internal21CordRepBtreeNavigator4InitILNS1_12CordRepBtree8EdgeTypeE0EEEPNS1_7CordRepEPS4_.cold.7, symObjAddr: 0xB100, symBinAddr: 0x50940, symSize: 0x24 }
  - { offsetInCU: 0x3A2D4, offset: 0xAC246, size: 0x8, addend: 0x0, symName: __ZN4absl12lts_2021110213cord_internal21CordRepBtreeNavigator4InitILNS1_12CordRepBtree8EdgeTypeE0EEEPNS1_7CordRepEPS4_.cold.6, symObjAddr: 0xB0DC, symBinAddr: 0x5091C, symSize: 0x24 }
  - { offsetInCU: 0x3A301, offset: 0xAC273, size: 0x8, addend: 0x0, symName: __ZN4absl12lts_2021110213cord_internal21CordRepBtreeNavigator4InitILNS1_12CordRepBtree8EdgeTypeE0EEEPNS1_7CordRepEPS4_.cold.1, symObjAddr: 0xB020, symBinAddr: 0x50860, symSize: 0x28 }
  - { offsetInCU: 0x3A319, offset: 0xAC28B, size: 0x8, addend: 0x0, symName: __ZN4absl12lts_2021110213cord_internal21CordRepBtreeNavigator4InitILNS1_12CordRepBtree8EdgeTypeE0EEEPNS1_7CordRepEPS4_.cold.2, symObjAddr: 0xB048, symBinAddr: 0x50888, symSize: 0x28 }
  - { offsetInCU: 0x3A331, offset: 0xAC2A3, size: 0x8, addend: 0x0, symName: __ZN4absl12lts_2021110213cord_internal21CordRepBtreeNavigator4InitILNS1_12CordRepBtree8EdgeTypeE0EEEPNS1_7CordRepEPS4_.cold.3, symObjAddr: 0xB070, symBinAddr: 0x508B0, symSize: 0x24 }
  - { offsetInCU: 0x3A35E, offset: 0xAC2D0, size: 0x8, addend: 0x0, symName: __ZN4absl12lts_2021110213cord_internal21CordRepBtreeNavigator4InitILNS1_12CordRepBtree8EdgeTypeE0EEEPNS1_7CordRepEPS4_.cold.4, symObjAddr: 0xB094, symBinAddr: 0x508D4, symSize: 0x24 }
  - { offsetInCU: 0x3A3B8, offset: 0xAC32A, size: 0x8, addend: 0x0, symName: __ZN4absl12lts_2021110213cord_internal18CordRepBtreeReader4SeekEm, symObjAddr: 0x892C, symBinAddr: 0x17668, symSize: 0xF4 }
  - { offsetInCU: 0x3A5A6, offset: 0xAC518, size: 0x8, addend: 0x0, symName: __ZN4absl12lts_2021110213cord_internal21CordRepBtreeNavigator4SeekEm, symObjAddr: 0x8A20, symBinAddr: 0x1775C, symSize: 0x164 }
  - { offsetInCU: 0x3A5B1, offset: 0xAC523, size: 0x8, addend: 0x0, symName: __ZN4absl12lts_202111024Cord13ChunkIterator17AdvanceBytesBtreeEm.cold.1, symObjAddr: 0xB124, symBinAddr: 0x50964, symSize: 0x28 }
  - { offsetInCU: 0x3A5C9, offset: 0xAC53B, size: 0x8, addend: 0x0, symName: __ZN4absl12lts_202111024Cord13ChunkIterator17AdvanceBytesBtreeEm.cold.2, symObjAddr: 0xB14C, symBinAddr: 0x5098C, symSize: 0x28 }
  - { offsetInCU: 0x3A5F7, offset: 0xAC569, size: 0x8, addend: 0x0, symName: __ZN4absl12lts_2021110213cord_internal21CordRepBtreeNavigator4SeekEm, symObjAddr: 0x8A20, symBinAddr: 0x1775C, symSize: 0x164 }
  - { offsetInCU: 0x3A83A, offset: 0xAC7AC, size: 0x8, addend: 0x0, symName: __ZN4absl12lts_2021110213InlinedVectorINS0_8SubRangeELm47ENSt3__19allocatorIS2_EEE4backEv, symObjAddr: 0x8B84, symBinAddr: 0x178C0, symSize: 0x3C }
  - { offsetInCU: 0x3A845, offset: 0xAC7B7, size: 0x8, addend: 0x0, symName: __ZN4absl12lts_2021110213cord_internal18CordRepBtreeReader4SeekEm.cold.2, symObjAddr: 0xB198, symBinAddr: 0x509D8, symSize: 0x28 }
  - { offsetInCU: 0x3A872, offset: 0xAC7E4, size: 0x8, addend: 0x0, symName: __ZN4absl12lts_2021110213cord_internal18CordRepBtreeReader4SeekEm.cold.3, symObjAddr: 0xB1C0, symBinAddr: 0x50A00, symSize: 0x24 }
  - { offsetInCU: 0x3A8F5, offset: 0xAC867, size: 0x8, addend: 0x0, symName: __ZN4absl12lts_2021110213cord_internal18CordRepBtreeReader4SeekEm.cold.4, symObjAddr: 0xB1E4, symBinAddr: 0x50A24, symSize: 0x24 }
  - { offsetInCU: 0x3A938, offset: 0xAC8AA, size: 0x8, addend: 0x0, symName: __ZN4absl12lts_2021110213cord_internal18CordRepBtreeReader4SeekEm.cold.1, symObjAddr: 0xB174, symBinAddr: 0x509B4, symSize: 0x24 }
  - { offsetInCU: 0x3A9C1, offset: 0xAC933, size: 0x8, addend: 0x0, symName: __ZN4absl12lts_2021110213cord_internal21CordRepBtreeNavigator4SeekEm.cold.2, symObjAddr: 0xB230, symBinAddr: 0x50A70, symSize: 0x24 }
  - { offsetInCU: 0x3A9EE, offset: 0xAC960, size: 0x8, addend: 0x0, symName: __ZN4absl12lts_2021110213cord_internal21CordRepBtreeNavigator4SeekEm.cold.7, symObjAddr: 0xB2E8, symBinAddr: 0x50B28, symSize: 0x24 }
  - { offsetInCU: 0x3AA1B, offset: 0xAC98D, size: 0x8, addend: 0x0, symName: __ZN4absl12lts_2021110213cord_internal21CordRepBtreeNavigator4SeekEm.cold.6, symObjAddr: 0xB2C4, symBinAddr: 0x50B04, symSize: 0x24 }
  - { offsetInCU: 0x3AA48, offset: 0xAC9BA, size: 0x8, addend: 0x0, symName: __ZN4absl12lts_2021110213cord_internal21CordRepBtreeNavigator4SeekEm.cold.5, symObjAddr: 0xB29C, symBinAddr: 0x50ADC, symSize: 0x28 }
  - { offsetInCU: 0x3AA75, offset: 0xAC9E7, size: 0x8, addend: 0x0, symName: __ZN4absl12lts_2021110213cord_internal21CordRepBtreeNavigator4SeekEm.cold.1, symObjAddr: 0xB208, symBinAddr: 0x50A48, symSize: 0x28 }
  - { offsetInCU: 0x3AA8D, offset: 0xAC9FF, size: 0x8, addend: 0x0, symName: __ZN4absl12lts_2021110213cord_internal21CordRepBtreeNavigator4SeekEm.cold.3, symObjAddr: 0xB254, symBinAddr: 0x50A94, symSize: 0x24 }
  - { offsetInCU: 0x3AABA, offset: 0xACA2C, size: 0x8, addend: 0x0, symName: __ZN4absl12lts_2021110213cord_internal21CordRepBtreeNavigator4SeekEm.cold.4, symObjAddr: 0xB278, symBinAddr: 0x50AB8, symSize: 0x24 }
  - { offsetInCU: 0x3AB26, offset: 0xACA98, size: 0x8, addend: 0x0, symName: __ZN4absl12lts_2021110213InlinedVectorINS0_8SubRangeELm47ENSt3__19allocatorIS2_EEE4backEv.cold.1, symObjAddr: 0xB30C, symBinAddr: 0x50B4C, symSize: 0x24 }
  - { offsetInCU: 0x3AC73, offset: 0xACBE5, size: 0x8, addend: 0x0, symName: __ZN4absl12lts_2021110223inlined_vector_internal7StorageINS0_8SubRangeELm47ENSt3__19allocatorIS3_EEE15EmplaceBackSlowIJS3_EEERS3_DpOT_, symObjAddr: 0x8C60, symBinAddr: 0x1799C, symSize: 0xEC }
  - { offsetInCU: 0x3B3A6, offset: 0xAD318, size: 0x8, addend: 0x0, symName: __ZN4absl12lts_2021110223inlined_vector_internal13MallocAdapterINSt3__19allocatorINS0_8SubRangeEEELb0EE8AllocateERS6_m, symObjAddr: 0x8D4C, symBinAddr: 0x17A88, symSize: 0x44 }
  - { offsetInCU: 0x3B466, offset: 0xAD3D8, size: 0x8, addend: 0x0, symName: __ZN4absl12lts_2021110223inlined_vector_internal7StorageIPNS0_13cord_internal7CordRepELm47ENSt3__19allocatorIS5_EEE11EmplaceBackIJS5_EEERS5_DpOT_, symObjAddr: 0x8D90, symBinAddr: 0x17ACC, symSize: 0x44 }
  - { offsetInCU: 0x3B4C8, offset: 0xAD43A, size: 0x8, addend: 0x0, symName: __ZN4absl12lts_2021110223inlined_vector_internal7StorageIPNS0_13cord_internal7CordRepELm47ENSt3__19allocatorIS5_EEE15EmplaceBackSlowIJS5_EEERS5_DpOT_, symObjAddr: 0x8DD4, symBinAddr: 0x17B10, symSize: 0xD8 }
  - { offsetInCU: 0x3BA2D, offset: 0xAD99F, size: 0x8, addend: 0x0, symName: __ZN4absl12lts_2021110213cord_internal21CordRepBtreeNavigator6NextUpEv.cold.1, symObjAddr: 0xB330, symBinAddr: 0x50B70, symSize: 0x24 }
  - { offsetInCU: 0x3BA5A, offset: 0xAD9CC, size: 0x8, addend: 0x0, symName: __ZN4absl12lts_2021110213cord_internal21CordRepBtreeNavigator6NextUpEv.cold.5, symObjAddr: 0xB3C0, symBinAddr: 0x50C00, symSize: 0x24 }
  - { offsetInCU: 0x3BA87, offset: 0xAD9F9, size: 0x8, addend: 0x0, symName: __ZN4absl12lts_2021110213cord_internal21CordRepBtreeNavigator6NextUpEv.cold.4, symObjAddr: 0xB39C, symBinAddr: 0x50BDC, symSize: 0x24 }
  - { offsetInCU: 0x3BAB4, offset: 0xADA26, size: 0x8, addend: 0x0, symName: __ZN4absl12lts_2021110213cord_internal21CordRepBtreeNavigator6NextUpEv.cold.6, symObjAddr: 0xB3E4, symBinAddr: 0x50C24, symSize: 0x28 }
  - { offsetInCU: 0x3BACC, offset: 0xADA3E, size: 0x8, addend: 0x0, symName: __ZN4absl12lts_2021110213cord_internal21CordRepBtreeNavigator6NextUpEv.cold.2, symObjAddr: 0xB354, symBinAddr: 0x50B94, symSize: 0x24 }
  - { offsetInCU: 0x3BAF9, offset: 0xADA6B, size: 0x8, addend: 0x0, symName: __ZN4absl12lts_2021110213cord_internal21CordRepBtreeNavigator6NextUpEv.cold.3, symObjAddr: 0xB378, symBinAddr: 0x50BB8, symSize: 0x24 }
  - { offsetInCU: 0x3BC4B, offset: 0xADBBD, size: 0x8, addend: 0x0, symName: __ZN4absl12lts_2021110223inlined_vector_internal7StorageIPNS0_13cord_internal7CordRepELm47ENSt3__19allocatorIS5_EEE15EmplaceBackSlowIJRKS5_EEERS5_DpOT_, symObjAddr: 0x90F8, symBinAddr: 0x17E34, symSize: 0xD8 }
  - { offsetInCU: 0x3C1F0, offset: 0xAE162, size: 0x8, addend: 0x0, symName: __ZNK4absl12lts_202111024Cord15CompareSlowPathENS0_11string_viewEmm.cold.1, symObjAddr: 0xB40C, symBinAddr: 0x50C4C, symSize: 0x24 }
  - { offsetInCU: 0x3C2A0, offset: 0xAE212, size: 0x8, addend: 0x0, symName: __ZNK4absl12lts_202111024Cord9InlineRep18FindFlatStartPieceEv.cold.3, symObjAddr: 0xB478, symBinAddr: 0x50CB8, symSize: 0x24 }
  - { offsetInCU: 0x3C30E, offset: 0xAE280, size: 0x8, addend: 0x0, symName: __ZNK4absl12lts_202111024Cord9InlineRep18FindFlatStartPieceEv.cold.10, symObjAddr: 0xB57C, symBinAddr: 0x50DBC, symSize: 0x24 }
  - { offsetInCU: 0x3C33C, offset: 0xAE2AE, size: 0x8, addend: 0x0, symName: __ZNK4absl12lts_2021110213cord_internal12CordRepBtree4DataEm, symObjAddr: 0x963C, symBinAddr: 0x182DC, symSize: 0xB4 }
  - { offsetInCU: 0x3C523, offset: 0xAE495, size: 0x8, addend: 0x0, symName: __ZN4absl12lts_2021110212_GLOBAL__N_113CompareChunksEPNS0_11string_viewES3_Pm, symObjAddr: 0x96F0, symBinAddr: 0x18390, symSize: 0x98 }
  - { offsetInCU: 0x3C52E, offset: 0xAE4A0, size: 0x8, addend: 0x0, symName: __ZNK4absl12lts_202111024Cord9InlineRep18FindFlatStartPieceEv.cold.1, symObjAddr: 0xB430, symBinAddr: 0x50C70, symSize: 0x24 }
  - { offsetInCU: 0x3C59C, offset: 0xAE50E, size: 0x8, addend: 0x0, symName: __ZNK4absl12lts_202111024Cord9InlineRep18FindFlatStartPieceEv.cold.2, symObjAddr: 0xB454, symBinAddr: 0x50C94, symSize: 0x24 }
  - { offsetInCU: 0x3C5CA, offset: 0xAE53C, size: 0x8, addend: 0x0, symName: __ZNK4absl12lts_202111024Cord9InlineRep18FindFlatStartPieceEv.cold.4, symObjAddr: 0xB49C, symBinAddr: 0x50CDC, symSize: 0x28 }
  - { offsetInCU: 0x3C5E2, offset: 0xAE554, size: 0x8, addend: 0x0, symName: __ZNK4absl12lts_202111024Cord9InlineRep18FindFlatStartPieceEv.cold.9, symObjAddr: 0xB558, symBinAddr: 0x50D98, symSize: 0x24 }
  - { offsetInCU: 0x3C650, offset: 0xAE5C2, size: 0x8, addend: 0x0, symName: __ZNK4absl12lts_202111024Cord9InlineRep18FindFlatStartPieceEv.cold.5, symObjAddr: 0xB4C4, symBinAddr: 0x50D04, symSize: 0x24 }
  - { offsetInCU: 0x3C67E, offset: 0xAE5F0, size: 0x8, addend: 0x0, symName: __ZNK4absl12lts_202111024Cord9InlineRep18FindFlatStartPieceEv.cold.6, symObjAddr: 0xB4E8, symBinAddr: 0x50D28, symSize: 0x24 }
  - { offsetInCU: 0x3C6EC, offset: 0xAE65E, size: 0x8, addend: 0x0, symName: __ZNK4absl12lts_202111024Cord9InlineRep18FindFlatStartPieceEv.cold.8, symObjAddr: 0xB530, symBinAddr: 0x50D70, symSize: 0x28 }
  - { offsetInCU: 0x3C704, offset: 0xAE676, size: 0x8, addend: 0x0, symName: __ZNK4absl12lts_202111024Cord9InlineRep18FindFlatStartPieceEv.cold.7, symObjAddr: 0xB50C, symBinAddr: 0x50D4C, symSize: 0x24 }
  - { offsetInCU: 0x3C772, offset: 0xAE6E4, size: 0x8, addend: 0x0, symName: __ZNK4absl12lts_2021110213cord_internal12CordRepBtree4DataEm.cold.6, symObjAddr: 0xB654, symBinAddr: 0x50E94, symSize: 0x28 }
  - { offsetInCU: 0x3C78A, offset: 0xAE6FC, size: 0x8, addend: 0x0, symName: __ZNK4absl12lts_2021110213cord_internal12CordRepBtree4DataEm.cold.1, symObjAddr: 0xB5A0, symBinAddr: 0x50DE0, symSize: 0x24 }
  - { offsetInCU: 0x3C7B8, offset: 0xAE72A, size: 0x8, addend: 0x0, symName: __ZNK4absl12lts_2021110213cord_internal12CordRepBtree4DataEm.cold.5, symObjAddr: 0xB630, symBinAddr: 0x50E70, symSize: 0x24 }
  - { offsetInCU: 0x3C7E6, offset: 0xAE758, size: 0x8, addend: 0x0, symName: __ZNK4absl12lts_2021110213cord_internal12CordRepBtree4DataEm.cold.3, symObjAddr: 0xB5E8, symBinAddr: 0x50E28, symSize: 0x24 }
  - { offsetInCU: 0x3C86A, offset: 0xAE7DC, size: 0x8, addend: 0x0, symName: __ZNK4absl12lts_2021110213cord_internal12CordRepBtree4DataEm.cold.4, symObjAddr: 0xB60C, symBinAddr: 0x50E4C, symSize: 0x24 }
  - { offsetInCU: 0x3C8AE, offset: 0xAE820, size: 0x8, addend: 0x0, symName: __ZNK4absl12lts_2021110213cord_internal12CordRepBtree4DataEm.cold.2, symObjAddr: 0xB5C4, symBinAddr: 0x50E04, symSize: 0x24 }
  - { offsetInCU: 0x3C908, offset: 0xAE87A, size: 0x8, addend: 0x0, symName: __ZN4absl12lts_2021110212_GLOBAL__N_113CompareChunksEPNS0_11string_viewES3_Pm.cold.1, symObjAddr: 0xB67C, symBinAddr: 0x50EBC, symSize: 0x28 }
  - { offsetInCU: 0x3C920, offset: 0xAE892, size: 0x8, addend: 0x0, symName: __ZN4absl12lts_2021110212_GLOBAL__N_113CompareChunksEPNS0_11string_viewES3_Pm.cold.2, symObjAddr: 0xB6A4, symBinAddr: 0x50EE4, symSize: 0x28 }
  - { offsetInCU: 0x3C964, offset: 0xAE8D6, size: 0x8, addend: 0x0, symName: __ZN4absl12lts_2021110212_GLOBAL__N_113CompareChunksEPNS0_11string_viewES3_Pm.cold.3, symObjAddr: 0xB6CC, symBinAddr: 0x50F0C, symSize: 0x28 }
  - { offsetInCU: 0x3C9E9, offset: 0xAE95B, size: 0x8, addend: 0x0, symName: __ZNK4absl12lts_202111024Cord15CompareSlowPathERKS1_mm.cold.1, symObjAddr: 0xB6F4, symBinAddr: 0x50F34, symSize: 0x24 }
  - { offsetInCU: 0x3CA99, offset: 0xAEA0B, size: 0x8, addend: 0x0, symName: __ZN4absl12lts_2021110214GenericCompareIiNS0_11string_viewEEET_RKNS0_4CordERKT0_m.cold.1, symObjAddr: 0xB718, symBinAddr: 0x50F58, symSize: 0x24 }
  - { offsetInCU: 0x3CAB1, offset: 0xAEA23, size: 0x8, addend: 0x0, symName: __ZN4absl12lts_2021110214GenericCompareIiNS0_4CordEEET_RKS2_RKT0_m.cold.1, symObjAddr: 0xB73C, symBinAddr: 0x50F7C, symSize: 0x24 }
  - { offsetInCU: 0x3CB61, offset: 0xAEAD3, size: 0x8, addend: 0x0, symName: '__ZN4absl12lts_2021110213cord_internal19CordRepExternalImplIZNS0_4Cord15FlattenSlowPathEvE3$_2E7ReleaseEPNS1_15CordRepExternalE', symObjAddr: 0x9C90, symBinAddr: 0x18930, symSize: 0x68 }
  - { offsetInCU: 0x3CDAE, offset: 0xAED20, size: 0x8, addend: 0x0, symName: __ZN4absl12lts_2021110223inlined_vector_internal7StorageIPKNS0_13cord_internal7CordRepELm47ENSt3__19allocatorIS6_EEE15EmplaceBackSlowIJRKS6_EEERS6_DpOT_, symObjAddr: 0x9D3C, symBinAddr: 0x189DC, symSize: 0xD8 }
  - { offsetInCU: 0x3D544, offset: 0xAF4B6, size: 0x8, addend: 0x0, symName: __ZN4absl12lts_2021110223inlined_vector_internal13MallocAdapterINSt3__19allocatorIPKNS0_13cord_internal7CordRepEEELb0EE8AllocateERS9_m, symObjAddr: 0x9E14, symBinAddr: 0x18AB4, symSize: 0x34 }
  - { offsetInCU: 0x3D604, offset: 0xAF576, size: 0x8, addend: 0x0, symName: __ZN4absl12lts_202111024CordC2INSt3__112basic_stringIcNS3_11char_traitsIcEENS3_9allocatorIcEEEELi0EEEOT_.cold.1, symObjAddr: 0x9E48, symBinAddr: 0x4F6AC, symSize: 0x24 }
  - { offsetInCU: 0x3D650, offset: 0xAF5C2, size: 0x8, addend: 0x0, symName: _OUTLINED_FUNCTION_0, symObjAddr: 0xB760, symBinAddr: 0x18AE8, symSize: 0x8 }
  - { offsetInCU: 0x3D668, offset: 0xAF5DA, size: 0x8, addend: 0x0, symName: _OUTLINED_FUNCTION_1, symObjAddr: 0xB768, symBinAddr: 0x18AF0, symSize: 0x8 }
  - { offsetInCU: 0x3D680, offset: 0xAF5F2, size: 0x8, addend: 0x0, symName: _OUTLINED_FUNCTION_2, symObjAddr: 0xB770, symBinAddr: 0x18AF8, symSize: 0x8 }
  - { offsetInCU: 0x3D698, offset: 0xAF60A, size: 0x8, addend: 0x0, symName: _OUTLINED_FUNCTION_3, symObjAddr: 0xB778, symBinAddr: 0x18B00, symSize: 0x8 }
  - { offsetInCU: 0x3D6B0, offset: 0xAF622, size: 0x8, addend: 0x0, symName: _OUTLINED_FUNCTION_4, symObjAddr: 0xB780, symBinAddr: 0x18B08, symSize: 0x8 }
  - { offsetInCU: 0x3D6C8, offset: 0xAF63A, size: 0x8, addend: 0x0, symName: _OUTLINED_FUNCTION_5, symObjAddr: 0xB788, symBinAddr: 0x18B10, symSize: 0x8 }
  - { offsetInCU: 0x3D6E0, offset: 0xAF652, size: 0x8, addend: 0x0, symName: _OUTLINED_FUNCTION_6, symObjAddr: 0xB790, symBinAddr: 0x18B18, symSize: 0x8 }
  - { offsetInCU: 0x3D6F8, offset: 0xAF66A, size: 0x8, addend: 0x0, symName: _OUTLINED_FUNCTION_7, symObjAddr: 0xB798, symBinAddr: 0x18B20, symSize: 0x8 }
  - { offsetInCU: 0x3D710, offset: 0xAF682, size: 0x8, addend: 0x0, symName: _OUTLINED_FUNCTION_8, symObjAddr: 0xB7A0, symBinAddr: 0x18B28, symSize: 0x8 }
  - { offsetInCU: 0x3D728, offset: 0xAF69A, size: 0x8, addend: 0x0, symName: _OUTLINED_FUNCTION_9, symObjAddr: 0xB7A8, symBinAddr: 0x18B30, symSize: 0x8 }
  - { offsetInCU: 0x3D740, offset: 0xAF6B2, size: 0x8, addend: 0x0, symName: _OUTLINED_FUNCTION_10, symObjAddr: 0xB7B0, symBinAddr: 0x18B38, symSize: 0x8 }
  - { offsetInCU: 0x3D758, offset: 0xAF6CA, size: 0x8, addend: 0x0, symName: _OUTLINED_FUNCTION_11, symObjAddr: 0xB7B8, symBinAddr: 0x18B40, symSize: 0x8 }
  - { offsetInCU: 0x3D770, offset: 0xAF6E2, size: 0x8, addend: 0x0, symName: _OUTLINED_FUNCTION_12, symObjAddr: 0xB7C0, symBinAddr: 0x18B48, symSize: 0x8 }
  - { offsetInCU: 0x3D788, offset: 0xAF6FA, size: 0x8, addend: 0x0, symName: _OUTLINED_FUNCTION_13, symObjAddr: 0xB7C8, symBinAddr: 0x18B50, symSize: 0x8 }
  - { offsetInCU: 0x4F, offset: 0xAF79B, size: 0x8, addend: 0x0, symName: __ZN4absl12lts_2021110213cord_internal18cord_btree_enabledE, symObjAddr: 0x628, symBinAddr: 0x707C0, symSize: 0x0 }
  - { offsetInCU: 0x69, offset: 0xAF7B5, size: 0x8, addend: 0x0, symName: __ZN4absl12lts_2021110213cord_internal24cord_ring_buffer_enabledE, symObjAddr: 0x29DBA, symBinAddr: 0x70999, symSize: 0x0 }
  - { offsetInCU: 0x83, offset: 0xAF7CF, size: 0x8, addend: 0x0, symName: __ZN4absl12lts_2021110213cord_internal24shallow_subcords_enabledE, symObjAddr: 0x29DBB, symBinAddr: 0x7099A, symSize: 0x0 }
  - { offsetInCU: 0x9D, offset: 0xAF7E9, size: 0x8, addend: 0x0, symName: __ZN4absl12lts_2021110213cord_internal32cord_btree_exhaustive_validationE, symObjAddr: 0x29DBC, symBinAddr: 0x7099B, symSize: 0x0 }
  - { offsetInCU: 0x37DE, offset: 0xB2F2A, size: 0x8, addend: 0x0, symName: __ZN4absl12lts_2021110213cord_internal7CordRep7DestroyEPS2_, symObjAddr: 0x0, symBinAddr: 0x18B58, symSize: 0x324 }
  - { offsetInCU: 0x417B, offset: 0xB38C7, size: 0x8, addend: 0x0, symName: __ZN4absl12lts_2021110213cord_internal11CordRepFlat6DeleteEPNS1_7CordRepE, symObjAddr: 0x324, symBinAddr: 0x18E7C, symSize: 0x28 }
  - { offsetInCU: 0x42CA, offset: 0xB3A16, size: 0x8, addend: 0x0, symName: __ZN4absl12lts_2021110213cord_internal7CordRep7DestroyEPS2_.cold.1, symObjAddr: 0x558, symBinAddr: 0x50FA0, symSize: 0x28 }
  - { offsetInCU: 0x42E2, offset: 0xB3A2E, size: 0x8, addend: 0x0, symName: __ZN4absl12lts_2021110213cord_internal11CordRepFlat6DeleteEPNS1_7CordRepE.cold.1, symObjAddr: 0x580, symBinAddr: 0x50FC8, symSize: 0x28 }
  - { offsetInCU: 0x5C, offset: 0xB424A, size: 0x8, addend: 0x0, symName: __ZN4absl12lts_2021110213cord_internal12CordRepBtree12kMaxCapacityE, symObjAddr: 0x80F8, symBinAddr: 0x5A9B8, symSize: 0x0 }
  - { offsetInCU: 0x100F, offset: 0xB51FD, size: 0x8, addend: 0x0, symName: __ZN4absl12lts_2021110213cord_internal12_GLOBAL__N_17DumpAllEPKNS1_7CordRepEbRNSt3__113basic_ostreamIcNS6_11char_traitsIcEEEEi, symObjAddr: 0x193C, symBinAddr: 0x1A7E0, symSize: 0x4B0 }
  - { offsetInCU: 0x2664, offset: 0xB6852, size: 0x8, addend: 0x0, symName: __ZN4absl12lts_2021110213cord_internal12_GLOBAL__N_115CreateSubstringEPNS1_7CordRepEmm, symObjAddr: 0x521C, symBinAddr: 0x1D978, symSize: 0xE4 }
  - { offsetInCU: 0x29BF, offset: 0xB6BAD, size: 0x8, addend: 0x0, symName: __ZN4absl12lts_2021110213cord_internal12_GLOBAL__N_115StackOperationsILNS1_12CordRepBtree8EdgeTypeE1EE8FinalizeEPS4_NS4_8OpResultE, symObjAddr: 0x5300, symBinAddr: 0x1DA5C, symSize: 0x12C }
  - { offsetInCU: 0x29C9, offset: 0xB6BB7, size: 0x8, addend: 0x0, symName: __ZN4absl12lts_2021110213cord_internal12_GLOBAL__N_110ResizeEdgeEPNS1_7CordRepEmb, symObjAddr: 0x3354, symBinAddr: 0x1C110, symSize: 0x84 }
  - { offsetInCU: 0x2A63, offset: 0xB6C51, size: 0x8, addend: 0x0, symName: __ZN4absl12lts_2021110213cord_internal12CordRepBtree7SubTreeEmm, symObjAddr: 0x33D8, symBinAddr: 0x1C194, symSize: 0x48C }
  - { offsetInCU: 0x34A4, offset: 0xB7692, size: 0x8, addend: 0x0, symName: '__ZN4absl12lts_2021110219functional_internal12InvokeObjectIZNS0_13cord_internal12CordRepBtree10CreateSlowEPNS3_7CordRepEE3$_0vJS6_mmEEET0_NS1_7VoidPtrEDpNS1_8ForwardTIT1_E4typeE', symObjAddr: 0x5558, symBinAddr: 0x1DCB4, symSize: 0x100 }
  - { offsetInCU: 0x38A6, offset: 0xB7A94, size: 0x8, addend: 0x0, symName: '__ZN4absl12lts_2021110219functional_internal12InvokeObjectIZNS0_13cord_internal12CordRepBtree10AppendSlowEPS4_PNS3_7CordRepEE3$_1vJS7_mmEEET0_NS1_7VoidPtrEDpNS1_8ForwardTIT1_E4typeE', symObjAddr: 0x5658, symBinAddr: 0x1DDB4, symSize: 0x98 }
  - { offsetInCU: 0x3A68, offset: 0xB7C56, size: 0x8, addend: 0x0, symName: '__ZN4absl12lts_2021110219functional_internal12InvokeObjectIZNS0_13cord_internal12CordRepBtree11PrependSlowEPS4_PNS3_7CordRepEE3$_2vJS7_mmEEET0_NS1_7VoidPtrEDpNS1_8ForwardTIT1_E4typeE', symObjAddr: 0x56F0, symBinAddr: 0x1DE4C, symSize: 0x98 }
  - { offsetInCU: 0x74B5, offset: 0xBB6A3, size: 0x8, addend: 0x0, symName: __ZN4absl12lts_2021110213cord_internal12CordRepBtree10CreateSlowEPNS1_7CordRepE, symObjAddr: 0x4570, symBinAddr: 0x1D234, symSize: 0x40 }
  - { offsetInCU: 0x7570, offset: 0xBB75E, size: 0x8, addend: 0x0, symName: __ZN4absl12lts_2021110213cord_internal12CordRepBtree10AppendSlowEPS2_PNS1_7CordRepE, symObjAddr: 0x45B0, symBinAddr: 0x1D274, symSize: 0x5C }
  - { offsetInCU: 0x7633, offset: 0xBB821, size: 0x8, addend: 0x0, symName: __ZN4absl12lts_2021110213cord_internal12CordRepBtree11PrependSlowEPS2_PNS1_7CordRepE, symObjAddr: 0x460C, symBinAddr: 0x1D2D0, symSize: 0x60 }
  - { offsetInCU: 0x96C7, offset: 0xBD8B5, size: 0x8, addend: 0x0, symName: __ZN4absl12lts_2021110213cord_internal12CordRepBtree10AddCordRepILNS2_8EdgeTypeE0EEEPS2_S5_PNS1_7CordRepE, symObjAddr: 0x0, symBinAddr: 0x18EA4, symSize: 0x1E8 }
  - { offsetInCU: 0x9A39, offset: 0xBDC27, size: 0x8, addend: 0x0, symName: __ZN4absl12lts_2021110213cord_internal12CordRepBtree10AddCordRepILNS2_8EdgeTypeE0EEEPS2_S5_PNS1_7CordRepE.cold.2, symObjAddr: 0x5A00, symBinAddr: 0x51014, symSize: 0x24 }
  - { offsetInCU: 0x9A7C, offset: 0xBDC6A, size: 0x8, addend: 0x0, symName: __ZN4absl12lts_2021110213cord_internal12CordRepBtree10AddCordRepILNS2_8EdgeTypeE0EEEPS2_S5_PNS1_7CordRepE.cold.1, symObjAddr: 0x59DC, symBinAddr: 0x50FF0, symSize: 0x24 }
  - { offsetInCU: 0x9ABF, offset: 0xBDCAD, size: 0x8, addend: 0x0, symName: __ZN4absl12lts_2021110213cord_internal12CordRepBtree7AddEdgeILNS2_8EdgeTypeE0EEENS2_8OpResultEbPNS1_7CordRepEm, symObjAddr: 0x1E8, symBinAddr: 0x1908C, symSize: 0x190 }
  - { offsetInCU: 0xA1A5, offset: 0xBE393, size: 0x8, addend: 0x0, symName: __ZN4absl12lts_2021110213cord_internal12CordRepBtree10AddCordRepILNS2_8EdgeTypeE1EEEPS2_S5_PNS1_7CordRepE, symObjAddr: 0x378, symBinAddr: 0x1921C, symSize: 0x1E8 }
  - { offsetInCU: 0xA1BA, offset: 0xBE3A8, size: 0x8, addend: 0x0, symName: __ZN4absl12lts_2021110213cord_internal12CordRepBtree7SetEdgeILNS2_8EdgeTypeE0EEENS2_8OpResultEbPNS1_7CordRepEm, symObjAddr: 0x5788, symBinAddr: 0x1DEE4, symSize: 0x124 }
  - { offsetInCU: 0xA5E1, offset: 0xBE7CF, size: 0x8, addend: 0x0, symName: __ZN4absl12lts_2021110213cord_internal12CordRepBtree7SetEdgeILNS2_8EdgeTypeE1EEENS2_8OpResultEbPNS1_7CordRepEm, symObjAddr: 0x58AC, symBinAddr: 0x1E008, symSize: 0x130 }
  - { offsetInCU: 0xA5F6, offset: 0xBE7E4, size: 0x8, addend: 0x0, symName: __ZN4absl12lts_2021110213cord_internal12_GLOBAL__N_115StackOperationsILNS1_12CordRepBtree8EdgeTypeE0EE8FinalizeEPS4_NS4_8OpResultE, symObjAddr: 0x542C, symBinAddr: 0x1DB88, symSize: 0x12C }
  - { offsetInCU: 0xADA0, offset: 0xBEF8E, size: 0x8, addend: 0x0, symName: __ZN4absl12lts_2021110213cord_internal12CordRepBtree7AddEdgeILNS2_8EdgeTypeE0EEENS2_8OpResultEbPNS1_7CordRepEm.cold.1, symObjAddr: 0x5A24, symBinAddr: 0x51038, symSize: 0x24 }
  - { offsetInCU: 0xAEEC, offset: 0xBF0DA, size: 0x8, addend: 0x0, symName: __ZN4absl12lts_2021110213cord_internal12CordRepBtree10AddCordRepILNS2_8EdgeTypeE1EEEPS2_S5_PNS1_7CordRepE, symObjAddr: 0x378, symBinAddr: 0x1921C, symSize: 0x1E8 }
  - { offsetInCU: 0xB25E, offset: 0xBF44C, size: 0x8, addend: 0x0, symName: __ZN4absl12lts_2021110213cord_internal12CordRepBtree10AddCordRepILNS2_8EdgeTypeE1EEEPS2_S5_PNS1_7CordRepE.cold.2, symObjAddr: 0x5A6C, symBinAddr: 0x51080, symSize: 0x24 }
  - { offsetInCU: 0xB2A1, offset: 0xBF48F, size: 0x8, addend: 0x0, symName: __ZN4absl12lts_2021110213cord_internal12CordRepBtree10AddCordRepILNS2_8EdgeTypeE1EEEPS2_S5_PNS1_7CordRepE.cold.1, symObjAddr: 0x5A48, symBinAddr: 0x5105C, symSize: 0x24 }
  - { offsetInCU: 0xB2E4, offset: 0xBF4D2, size: 0x8, addend: 0x0, symName: __ZN4absl12lts_2021110213cord_internal12CordRepBtree7AddEdgeILNS2_8EdgeTypeE1EEENS2_8OpResultEbPNS1_7CordRepEm, symObjAddr: 0x560, symBinAddr: 0x19404, symSize: 0x188 }
  - { offsetInCU: 0xB9AC, offset: 0xBFB9A, size: 0x8, addend: 0x0, symName: __ZN4absl12lts_2021110213cord_internal12CordRepBtree7AddDataILNS2_8EdgeTypeE0EEEPS2_S5_NS0_11string_viewEm, symObjAddr: 0x6E8, symBinAddr: 0x1958C, symSize: 0x690 }
  - { offsetInCU: 0xB9B7, offset: 0xBFBA5, size: 0x8, addend: 0x0, symName: __ZN4absl12lts_2021110213cord_internal12CordRepBtree7SetEdgeILNS2_8EdgeTypeE1EEENS2_8OpResultEbPNS1_7CordRepEm, symObjAddr: 0x58AC, symBinAddr: 0x1E008, symSize: 0x130 }
  - { offsetInCU: 0xBDEB, offset: 0xBFFD9, size: 0x8, addend: 0x0, symName: __ZN4absl12lts_2021110213cord_internal12CordRepBtree10AddCordRepILNS2_8EdgeTypeE0EEEPS2_S5_PNS1_7CordRepE.cold.1, symObjAddr: 0x59DC, symBinAddr: 0x50FF0, symSize: 0x24 }
  - { offsetInCU: 0xBE00, offset: 0xBFFEE, size: 0x8, addend: 0x0, symName: __ZN4absl12lts_2021110213cord_internal12_GLOBAL__N_115StackOperationsILNS1_12CordRepBtree8EdgeTypeE1EE8FinalizeEPS4_NS4_8OpResultE, symObjAddr: 0x5300, symBinAddr: 0x1DA5C, symSize: 0x12C }
  - { offsetInCU: 0xC207, offset: 0xC03F5, size: 0x8, addend: 0x0, symName: __ZN4absl12lts_2021110213cord_internal12CordRepBtree7AddEdgeILNS2_8EdgeTypeE1EEENS2_8OpResultEbPNS1_7CordRepEm.cold.2, symObjAddr: 0x5AB8, symBinAddr: 0x510CC, symSize: 0x24 }
  - { offsetInCU: 0xC261, offset: 0xC044F, size: 0x8, addend: 0x0, symName: __ZN4absl12lts_2021110213cord_internal12CordRepBtree7AddEdgeILNS2_8EdgeTypeE1EEENS2_8OpResultEbPNS1_7CordRepEm.cold.1, symObjAddr: 0x5A90, symBinAddr: 0x510A4, symSize: 0x28 }
  - { offsetInCU: 0xC38D, offset: 0xC057B, size: 0x8, addend: 0x0, symName: __ZN4absl12lts_2021110213cord_internal12CordRepBtree7AddDataILNS2_8EdgeTypeE0EEEPS2_S5_NS0_11string_viewEm, symObjAddr: 0x6E8, symBinAddr: 0x1958C, symSize: 0x690 }
  - { offsetInCU: 0xCDCF, offset: 0xC0FBD, size: 0x8, addend: 0x0, symName: __ZN4absl12lts_2021110213cord_internal12CordRepBtree7AddDataILNS2_8EdgeTypeE0EEENS0_11string_viewES5_m, symObjAddr: 0xD78, symBinAddr: 0x19C1C, symSize: 0x130 }
  - { offsetInCU: 0xCDE4, offset: 0xC0FD2, size: 0x8, addend: 0x0, symName: __ZN4absl12lts_2021110213cord_internal12CordRepBtree7AddDataILNS2_8EdgeTypeE0EEEPS2_S5_NS0_11string_viewEm.cold.9, symObjAddr: 0x5C10, symBinAddr: 0x51224, symSize: 0x24 }
  - { offsetInCU: 0xCE27, offset: 0xC1015, size: 0x8, addend: 0x0, symName: __ZN4absl12lts_2021110213cord_internal12CordRepBtree7AddDataILNS2_8EdgeTypeE0EEEPS2_S5_NS0_11string_viewEm.cold.8, symObjAddr: 0x5BEC, symBinAddr: 0x51200, symSize: 0x24 }
  - { offsetInCU: 0xCE6A, offset: 0xC1058, size: 0x8, addend: 0x0, symName: __ZN4absl12lts_2021110213cord_internal12CordRepBtree7AddDataILNS2_8EdgeTypeE0EEENS0_11string_viewES5_m, symObjAddr: 0xD78, symBinAddr: 0x19C1C, symSize: 0x130 }
  - { offsetInCU: 0xD10B, offset: 0xC12F9, size: 0x8, addend: 0x0, symName: __ZN4absl12lts_2021110213cord_internal12CordRepBtree7NewLeafILNS2_8EdgeTypeE0EEEPS2_NS0_11string_viewEm, symObjAddr: 0xEA8, symBinAddr: 0x19D4C, symSize: 0xFC }
  - { offsetInCU: 0xD120, offset: 0xC130E, size: 0x8, addend: 0x0, symName: __ZN4absl12lts_2021110213cord_internal12CordRepBtree7NewLeafILNS2_8EdgeTypeE0EEEPS2_NS0_11string_viewEm, symObjAddr: 0xEA8, symBinAddr: 0x19D4C, symSize: 0xFC }
  - { offsetInCU: 0xD567, offset: 0xC1755, size: 0x8, addend: 0x0, symName: __ZNK4absl12lts_2021110213cord_internal12CordRepBtree12GetCharacterEm, symObjAddr: 0x432C, symBinAddr: 0x1CFF0, symSize: 0xCC }
  - { offsetInCU: 0xD572, offset: 0xC1760, size: 0x8, addend: 0x0, symName: __ZN4absl12lts_2021110213cord_internal12CordRepBtree7AddDataILNS2_8EdgeTypeE0EEEPS2_S5_NS0_11string_viewEm.cold.4, symObjAddr: 0x5B50, symBinAddr: 0x51164, symSize: 0x28 }
  - { offsetInCU: 0xD5A0, offset: 0xC178E, size: 0x8, addend: 0x0, symName: __ZN4absl12lts_2021110213cord_internal12CordRepBtree7AddDataILNS2_8EdgeTypeE0EEEPS2_S5_NS0_11string_viewEm.cold.3, symObjAddr: 0x5B2C, symBinAddr: 0x51140, symSize: 0x24 }
  - { offsetInCU: 0xD5E3, offset: 0xC17D1, size: 0x8, addend: 0x0, symName: __ZN4absl12lts_2021110213cord_internal12CordRepBtree7AddDataILNS2_8EdgeTypeE0EEEPS2_S5_NS0_11string_viewEm.cold.1, symObjAddr: 0x5ADC, symBinAddr: 0x510F0, symSize: 0x28 }
  - { offsetInCU: 0xD611, offset: 0xC17FF, size: 0x8, addend: 0x0, symName: __ZN4absl12lts_2021110213cord_internal12CordRepBtree7AddDataILNS2_8EdgeTypeE0EEEPS2_S5_NS0_11string_viewEm.cold.2, symObjAddr: 0x5B04, symBinAddr: 0x51118, symSize: 0x28 }
  - { offsetInCU: 0xD63F, offset: 0xC182D, size: 0x8, addend: 0x0, symName: __ZN4absl12lts_2021110213cord_internal12CordRepBtree7AddDataILNS2_8EdgeTypeE0EEEPS2_S5_NS0_11string_viewEm.cold.7, symObjAddr: 0x5BC8, symBinAddr: 0x511DC, symSize: 0x24 }
  - { offsetInCU: 0xD699, offset: 0xC1887, size: 0x8, addend: 0x0, symName: __ZN4absl12lts_2021110213cord_internal12CordRepBtree7AddDataILNS2_8EdgeTypeE0EEEPS2_S5_NS0_11string_viewEm.cold.5, symObjAddr: 0x5B78, symBinAddr: 0x5118C, symSize: 0x28 }
  - { offsetInCU: 0xD6B1, offset: 0xC189F, size: 0x8, addend: 0x0, symName: __ZN4absl12lts_2021110213cord_internal12CordRepBtree7AddDataILNS2_8EdgeTypeE0EEEPS2_S5_NS0_11string_viewEm.cold.6, symObjAddr: 0x5BA0, symBinAddr: 0x511B4, symSize: 0x28 }
  - { offsetInCU: 0xD8BA, offset: 0xC1AA8, size: 0x8, addend: 0x0, symName: __ZN4absl12lts_2021110213cord_internal12CordRepBtree10CopySuffixEm, symObjAddr: 0x2600, symBinAddr: 0x1B40C, symSize: 0x348 }
  - { offsetInCU: 0xD8C5, offset: 0xC1AB3, size: 0x8, addend: 0x0, symName: __ZN4absl12lts_2021110213cord_internal12CordRepBtree7AddDataILNS2_8EdgeTypeE0EEENS0_11string_viewES5_m.cold.1, symObjAddr: 0x5C34, symBinAddr: 0x51248, symSize: 0x28 }
  - { offsetInCU: 0xD8DD, offset: 0xC1ACB, size: 0x8, addend: 0x0, symName: __ZN4absl12lts_2021110213cord_internal12CordRepBtree7AddDataILNS2_8EdgeTypeE0EEENS0_11string_viewES5_m.cold.2, symObjAddr: 0x5C5C, symBinAddr: 0x51270, symSize: 0x28 }
  - { offsetInCU: 0xD9FF, offset: 0xC1BED, size: 0x8, addend: 0x0, symName: __ZN4absl12lts_2021110213cord_internal12CordRepBtree7AddDataILNS2_8EdgeTypeE1EEEPS2_S5_NS0_11string_viewEm, symObjAddr: 0xFA4, symBinAddr: 0x19E48, symSize: 0x6A0 }
  - { offsetInCU: 0xE444, offset: 0xC2632, size: 0x8, addend: 0x0, symName: __ZN4absl12lts_2021110213cord_internal12CordRepBtree7AddDataILNS2_8EdgeTypeE1EEENS0_11string_viewES5_m, symObjAddr: 0x1644, symBinAddr: 0x1A4E8, symSize: 0x124 }
  - { offsetInCU: 0xE459, offset: 0xC2647, size: 0x8, addend: 0x0, symName: __ZN4absl12lts_2021110213cord_internal12CordRepBtree7AddDataILNS2_8EdgeTypeE1EEEPS2_S5_NS0_11string_viewEm.cold.9, symObjAddr: 0x5DB8, symBinAddr: 0x513CC, symSize: 0x24 }
  - { offsetInCU: 0xE49C, offset: 0xC268A, size: 0x8, addend: 0x0, symName: __ZN4absl12lts_2021110213cord_internal12CordRepBtree7AddDataILNS2_8EdgeTypeE1EEEPS2_S5_NS0_11string_viewEm.cold.8, symObjAddr: 0x5D94, symBinAddr: 0x513A8, symSize: 0x24 }
  - { offsetInCU: 0xE4DF, offset: 0xC26CD, size: 0x8, addend: 0x0, symName: __ZN4absl12lts_2021110213cord_internal12CordRepBtree7AddDataILNS2_8EdgeTypeE1EEENS0_11string_viewES5_m, symObjAddr: 0x1644, symBinAddr: 0x1A4E8, symSize: 0x124 }
  - { offsetInCU: 0xE77D, offset: 0xC296B, size: 0x8, addend: 0x0, symName: __ZN4absl12lts_2021110213cord_internal12CordRepBtree7NewLeafILNS2_8EdgeTypeE1EEEPS2_NS0_11string_viewEm, symObjAddr: 0x1768, symBinAddr: 0x1A60C, symSize: 0x110 }
  - { offsetInCU: 0xEAE0, offset: 0xC2CCE, size: 0x8, addend: 0x0, symName: __ZN4absl12lts_2021110213cord_internal12CordRepBtree7AddDataILNS2_8EdgeTypeE1EEEPS2_S5_NS0_11string_viewEm.cold.4, symObjAddr: 0x5CF8, symBinAddr: 0x5130C, symSize: 0x28 }
  - { offsetInCU: 0xEB0E, offset: 0xC2CFC, size: 0x8, addend: 0x0, symName: __ZN4absl12lts_2021110213cord_internal12CordRepBtree7AddDataILNS2_8EdgeTypeE1EEEPS2_S5_NS0_11string_viewEm.cold.3, symObjAddr: 0x5CD4, symBinAddr: 0x512E8, symSize: 0x24 }
  - { offsetInCU: 0xEB51, offset: 0xC2D3F, size: 0x8, addend: 0x0, symName: __ZN4absl12lts_2021110213cord_internal12CordRepBtree7AddDataILNS2_8EdgeTypeE1EEEPS2_S5_NS0_11string_viewEm.cold.1, symObjAddr: 0x5C84, symBinAddr: 0x51298, symSize: 0x28 }
  - { offsetInCU: 0xEB7F, offset: 0xC2D6D, size: 0x8, addend: 0x0, symName: __ZN4absl12lts_2021110213cord_internal12CordRepBtree7AddDataILNS2_8EdgeTypeE1EEEPS2_S5_NS0_11string_viewEm.cold.2, symObjAddr: 0x5CAC, symBinAddr: 0x512C0, symSize: 0x28 }
  - { offsetInCU: 0xEBAD, offset: 0xC2D9B, size: 0x8, addend: 0x0, symName: __ZN4absl12lts_2021110213cord_internal12CordRepBtree7AddDataILNS2_8EdgeTypeE1EEEPS2_S5_NS0_11string_viewEm.cold.7, symObjAddr: 0x5D70, symBinAddr: 0x51384, symSize: 0x24 }
  - { offsetInCU: 0xEC07, offset: 0xC2DF5, size: 0x8, addend: 0x0, symName: __ZN4absl12lts_2021110213cord_internal12CordRepBtree7AddDataILNS2_8EdgeTypeE1EEEPS2_S5_NS0_11string_viewEm.cold.5, symObjAddr: 0x5D20, symBinAddr: 0x51334, symSize: 0x28 }
  - { offsetInCU: 0xEC1F, offset: 0xC2E0D, size: 0x8, addend: 0x0, symName: __ZN4absl12lts_2021110213cord_internal12CordRepBtree7AddDataILNS2_8EdgeTypeE1EEEPS2_S5_NS0_11string_viewEm.cold.6, symObjAddr: 0x5D48, symBinAddr: 0x5135C, symSize: 0x28 }
  - { offsetInCU: 0xEC63, offset: 0xC2E51, size: 0x8, addend: 0x0, symName: __ZN4absl12lts_2021110213cord_internal12CordRepBtree7AddDataILNS2_8EdgeTypeE1EEENS0_11string_viewES5_m.cold.1, symObjAddr: 0x5DDC, symBinAddr: 0x513F0, symSize: 0x28 }
  - { offsetInCU: 0xEC7B, offset: 0xC2E69, size: 0x8, addend: 0x0, symName: __ZN4absl12lts_2021110213cord_internal12CordRepBtree7AddDataILNS2_8EdgeTypeE1EEENS0_11string_viewES5_m.cold.2, symObjAddr: 0x5E04, symBinAddr: 0x51418, symSize: 0x28 }
  - { offsetInCU: 0xEC98, offset: 0xC2E86, size: 0x8, addend: 0x0, symName: __ZN4absl12lts_2021110213cord_internal12CordRepBtree4DumpEPKNS1_7CordRepENS0_11string_viewEbRNSt3__113basic_ostreamIcNS7_11char_traitsIcEEEE, symObjAddr: 0x1878, symBinAddr: 0x1A71C, symSize: 0xC4 }
  - { offsetInCU: 0xF2CB, offset: 0xC34B9, size: 0x8, addend: 0x0, symName: __ZN4absl12lts_202111028AlphaNumC2Ei, symObjAddr: 0x4DA0, symBinAddr: 0x1D934, symSize: 0x44 }
  - { offsetInCU: 0xF519, offset: 0xC3707, size: 0x8, addend: 0x0, symName: '__ZZN4absl12lts_2021110213cord_internal12_GLOBAL__N_17DumpAllEPKNS1_7CordRepEbRNSt3__113basic_ostreamIcNS6_11char_traitsIcEEEEiENK3$_3clES5_', symObjAddr: 0x4B44, symBinAddr: 0x1D808, symSize: 0x12C }
  - { offsetInCU: 0xF796, offset: 0xC3984, size: 0x8, addend: 0x0, symName: __ZN4absl12lts_2021110213cord_internal12_GLOBAL__N_17DumpAllEPKNS1_7CordRepEbRNSt3__113basic_ostreamIcNS6_11char_traitsIcEEEEi.cold.1, symObjAddr: 0x5E2C, symBinAddr: 0x51440, symSize: 0x28 }
  - { offsetInCU: 0xF7AE, offset: 0xC399C, size: 0x8, addend: 0x0, symName: __ZN4absl12lts_2021110213cord_internal12CordRepBtree4DumpEPKNS1_7CordRepENS0_11string_viewERNSt3__113basic_ostreamIcNS7_11char_traitsIcEEEE, symObjAddr: 0x1DEC, symBinAddr: 0x1AC90, symSize: 0xC }
  - { offsetInCU: 0xF820, offset: 0xC3A0E, size: 0x8, addend: 0x0, symName: __ZN4absl12lts_2021110213cord_internal12CordRepBtree4DumpEPKNS1_7CordRepERNSt3__113basic_ostreamIcNS6_11char_traitsIcEEEE, symObjAddr: 0x1DF8, symBinAddr: 0x1AC9C, symSize: 0x14 }
  - { offsetInCU: 0xF97C, offset: 0xC3B6A, size: 0x8, addend: 0x0, symName: __ZN4absl12lts_2021110213cord_internal12CordRepBtree11DestroyLeafEPS2_mm, symObjAddr: 0x1E0C, symBinAddr: 0x1ACB0, symSize: 0x190 }
  - { offsetInCU: 0xFCD6, offset: 0xC3EC4, size: 0x8, addend: 0x0, symName: __ZN4absl12lts_2021110213cord_internal12CordRepBtree14DestroyNonLeafEPS2_mm, symObjAddr: 0x1F9C, symBinAddr: 0x1AE40, symSize: 0xF8 }
  - { offsetInCU: 0xFD0D, offset: 0xC3EFB, size: 0x8, addend: 0x0, symName: __ZN4absl12lts_2021110213cord_internal12CordRepBtree11DestroyLeafEPS2_mm.cold.9, symObjAddr: 0x5F84, symBinAddr: 0x51598, symSize: 0x24 }
  - { offsetInCU: 0xFD50, offset: 0xC3F3E, size: 0x8, addend: 0x0, symName: __ZN4absl12lts_2021110213cord_internal12CordRepBtree11DestroyLeafEPS2_mm.cold.4, symObjAddr: 0x5EC0, symBinAddr: 0x514D4, symSize: 0x28 }
  - { offsetInCU: 0xFDA8, offset: 0xC3F96, size: 0x8, addend: 0x0, symName: __ZN4absl12lts_2021110213cord_internal12CordRepBtree11DestroyLeafEPS2_mm.cold.5, symObjAddr: 0x5EE8, symBinAddr: 0x514FC, symSize: 0x28 }
  - { offsetInCU: 0xFDEB, offset: 0xC3FD9, size: 0x8, addend: 0x0, symName: __ZN4absl12lts_2021110213cord_internal12CordRepBtree11DestroyLeafEPS2_mm.cold.8, symObjAddr: 0x5F5C, symBinAddr: 0x51570, symSize: 0x28 }
  - { offsetInCU: 0xFE2E, offset: 0xC401C, size: 0x8, addend: 0x0, symName: __ZN4absl12lts_2021110213cord_internal12CordRepBtree11DestroyLeafEPS2_mm.cold.7, symObjAddr: 0x5F38, symBinAddr: 0x5154C, symSize: 0x24 }
  - { offsetInCU: 0xFE86, offset: 0xC4074, size: 0x8, addend: 0x0, symName: __ZN4absl12lts_2021110213cord_internal12CordRepBtree11DestroyLeafEPS2_mm.cold.6, symObjAddr: 0x5F10, symBinAddr: 0x51524, symSize: 0x28 }
  - { offsetInCU: 0xFEDE, offset: 0xC40CC, size: 0x8, addend: 0x0, symName: __ZN4absl12lts_2021110213cord_internal12CordRepBtree11DestroyLeafEPS2_mm.cold.1, symObjAddr: 0x5E54, symBinAddr: 0x51468, symSize: 0x24 }
  - { offsetInCU: 0xFF0C, offset: 0xC40FA, size: 0x8, addend: 0x0, symName: __ZN4absl12lts_2021110213cord_internal12CordRepBtree11DestroyLeafEPS2_mm.cold.2, symObjAddr: 0x5E78, symBinAddr: 0x5148C, symSize: 0x24 }
  - { offsetInCU: 0xFF3A, offset: 0xC4128, size: 0x8, addend: 0x0, symName: __ZN4absl12lts_2021110213cord_internal12CordRepBtree11DestroyLeafEPS2_mm.cold.3, symObjAddr: 0x5E9C, symBinAddr: 0x514B0, symSize: 0x24 }
  - { offsetInCU: 0xFF74, offset: 0xC4162, size: 0x8, addend: 0x0, symName: __ZN4absl12lts_2021110213cord_internal12CordRepBtree14DestroyNonLeafEPS2_mm, symObjAddr: 0x1F9C, symBinAddr: 0x1AE40, symSize: 0xF8 }
  - { offsetInCU: 0x101D2, offset: 0xC43C0, size: 0x8, addend: 0x0, symName: __ZN4absl12lts_2021110213cord_internal12CordRepBtree7IsValidEPKS2_b, symObjAddr: 0x2094, symBinAddr: 0x1AF38, symSize: 0x40C }
  - { offsetInCU: 0x101DD, offset: 0xC43CB, size: 0x8, addend: 0x0, symName: __ZN4absl12lts_2021110213cord_internal12CordRepBtree14DestroyNonLeafEPS2_mm.cold.5, symObjAddr: 0x6038, symBinAddr: 0x5164C, symSize: 0x24 }
  - { offsetInCU: 0x1020B, offset: 0xC43F9, size: 0x8, addend: 0x0, symName: __ZN4absl12lts_2021110213cord_internal12CordRepBtree14DestroyNonLeafEPS2_mm.cold.4, symObjAddr: 0x6014, symBinAddr: 0x51628, symSize: 0x24 }
  - { offsetInCU: 0x1024E, offset: 0xC443C, size: 0x8, addend: 0x0, symName: __ZN4absl12lts_2021110213cord_internal12CordRepBtree14DestroyNonLeafEPS2_mm.cold.1, symObjAddr: 0x5FA8, symBinAddr: 0x515BC, symSize: 0x24 }
  - { offsetInCU: 0x1027C, offset: 0xC446A, size: 0x8, addend: 0x0, symName: __ZN4absl12lts_2021110213cord_internal12CordRepBtree14DestroyNonLeafEPS2_mm.cold.2, symObjAddr: 0x5FCC, symBinAddr: 0x515E0, symSize: 0x24 }
  - { offsetInCU: 0x102AA, offset: 0xC4498, size: 0x8, addend: 0x0, symName: __ZN4absl12lts_2021110213cord_internal12CordRepBtree14DestroyNonLeafEPS2_mm.cold.3, symObjAddr: 0x5FF0, symBinAddr: 0x51604, symSize: 0x24 }
  - { offsetInCU: 0x103C7, offset: 0xC45B5, size: 0x8, addend: 0x0, symName: __ZN4absl12lts_2021110213cord_internal12CordRepBtree7IsValidEPKS2_b, symObjAddr: 0x2094, symBinAddr: 0x1AF38, symSize: 0x40C }
  - { offsetInCU: 0x10F7F, offset: 0xC516D, size: 0x8, addend: 0x0, symName: __ZN4absl12lts_2021110213cord_internal12_GLOBAL__N_115CreateSubstringEPNS1_7CordRepEmm, symObjAddr: 0x521C, symBinAddr: 0x1D978, symSize: 0xE4 }
  - { offsetInCU: 0x111A2, offset: 0xC5390, size: 0x8, addend: 0x0, symName: __ZN4absl12lts_2021110213cord_internal12CordRepBtree7IsValidEPKS2_b.cold.1, symObjAddr: 0x605C, symBinAddr: 0x51670, symSize: 0x24 }
  - { offsetInCU: 0x111D0, offset: 0xC53BE, size: 0x8, addend: 0x0, symName: __ZN4absl12lts_2021110213cord_internal12CordRepBtree11AssertValidEPS2_b, symObjAddr: 0x24A0, symBinAddr: 0x1B344, symSize: 0x64 }
  - { offsetInCU: 0x11276, offset: 0xC5464, size: 0x8, addend: 0x0, symName: __ZN4absl12lts_2021110213cord_internal12CordRepBtree11AssertValidEPKS2_b, symObjAddr: 0x2504, symBinAddr: 0x1B3A8, symSize: 0x64 }
  - { offsetInCU: 0x11434, offset: 0xC5622, size: 0x8, addend: 0x0, symName: __ZN4absl12lts_2021110213cord_internal12CordRepBtree10CopySuffixEm, symObjAddr: 0x2600, symBinAddr: 0x1B40C, symSize: 0x348 }
  - { offsetInCU: 0x12007, offset: 0xC61F5, size: 0x8, addend: 0x0, symName: __ZN4absl12lts_2021110213cord_internal12CordRepBtree10CopyPrefixEmb, symObjAddr: 0x2948, symBinAddr: 0x1B754, symSize: 0x3D8 }
  - { offsetInCU: 0x12012, offset: 0xC6200, size: 0x8, addend: 0x0, symName: __ZN4absl12lts_2021110213cord_internal12CordRepBtree10CopySuffixEm.cold.6, symObjAddr: 0x616C, symBinAddr: 0x51758, symSize: 0x24 }
  - { offsetInCU: 0x12056, offset: 0xC6244, size: 0x8, addend: 0x0, symName: __ZN4absl12lts_2021110213cord_internal12CordRepBtree10CopySuffixEm.cold.11, symObjAddr: 0x6224, symBinAddr: 0x51810, symSize: 0x24 }
  - { offsetInCU: 0x12084, offset: 0xC6272, size: 0x8, addend: 0x0, symName: __ZN4absl12lts_2021110213cord_internal12CordRepBtree10CopySuffixEm.cold.10, symObjAddr: 0x6200, symBinAddr: 0x517EC, symSize: 0x24 }
  - { offsetInCU: 0x120C8, offset: 0xC62B6, size: 0x8, addend: 0x0, symName: __ZN4absl12lts_2021110213cord_internal12CordRepBtree10CopySuffixEm.cold.3, symObjAddr: 0x60F8, symBinAddr: 0x516E4, symSize: 0x28 }
  - { offsetInCU: 0x120E0, offset: 0xC62CE, size: 0x8, addend: 0x0, symName: __ZN4absl12lts_2021110213cord_internal12CordRepBtree10CopySuffixEm.cold.4, symObjAddr: 0x6120, symBinAddr: 0x5170C, symSize: 0x24 }
  - { offsetInCU: 0x1210E, offset: 0xC62FC, size: 0x8, addend: 0x0, symName: __ZN4absl12lts_2021110213cord_internal12CordRepBtree10CopySuffixEm.cold.9, symObjAddr: 0x61DC, symBinAddr: 0x517C8, symSize: 0x24 }
  - { offsetInCU: 0x1213C, offset: 0xC632A, size: 0x8, addend: 0x0, symName: __ZN4absl12lts_2021110213cord_internal12CordRepBtree10CopySuffixEm.cold.8, symObjAddr: 0x61B8, symBinAddr: 0x517A4, symSize: 0x24 }
  - { offsetInCU: 0x1216A, offset: 0xC6358, size: 0x8, addend: 0x0, symName: __ZN4absl12lts_2021110213cord_internal12CordRepBtree10CopySuffixEm.cold.5, symObjAddr: 0x6144, symBinAddr: 0x51730, symSize: 0x28 }
  - { offsetInCU: 0x12198, offset: 0xC6386, size: 0x8, addend: 0x0, symName: __ZN4absl12lts_2021110213cord_internal12CordRepBtree10CopySuffixEm.cold.7, symObjAddr: 0x6190, symBinAddr: 0x5177C, symSize: 0x28 }
  - { offsetInCU: 0x121C6, offset: 0xC63B4, size: 0x8, addend: 0x0, symName: __ZN4absl12lts_2021110213cord_internal12CordRepBtree10CopySuffixEm.cold.12, symObjAddr: 0x6248, symBinAddr: 0x51834, symSize: 0x28 }
  - { offsetInCU: 0x121DE, offset: 0xC63CC, size: 0x8, addend: 0x0, symName: __ZN4absl12lts_2021110213cord_internal12CordRepBtree10CopySuffixEm.cold.1, symObjAddr: 0x60A8, symBinAddr: 0x51694, symSize: 0x28 }
  - { offsetInCU: 0x1220C, offset: 0xC63FA, size: 0x8, addend: 0x0, symName: __ZN4absl12lts_2021110213cord_internal12CordRepBtree10CopySuffixEm.cold.2, symObjAddr: 0x60D0, symBinAddr: 0x516BC, symSize: 0x28 }
  - { offsetInCU: 0x122D6, offset: 0xC64C4, size: 0x8, addend: 0x0, symName: __ZN4absl12lts_2021110213cord_internal12CordRepBtree10CopyPrefixEmb, symObjAddr: 0x2948, symBinAddr: 0x1B754, symSize: 0x3D8 }
  - { offsetInCU: 0x12EFC, offset: 0xC70EA, size: 0x8, addend: 0x0, symName: __ZN4absl12lts_2021110213cord_internal12CordRepBtree12ExtractFrontEPS2_, symObjAddr: 0x2D20, symBinAddr: 0x1BB2C, symSize: 0x13C }
  - { offsetInCU: 0x12F07, offset: 0xC70F5, size: 0x8, addend: 0x0, symName: __ZN4absl12lts_2021110213cord_internal12CordRepBtree10CopyPrefixEmb.cold.5, symObjAddr: 0x6308, symBinAddr: 0x518F4, symSize: 0x24 }
  - { offsetInCU: 0x12F35, offset: 0xC7123, size: 0x8, addend: 0x0, symName: __ZN4absl12lts_2021110213cord_internal12CordRepBtree10CopyPrefixEmb.cold.11, symObjAddr: 0x63E0, symBinAddr: 0x519CC, symSize: 0x24 }
  - { offsetInCU: 0x12F79, offset: 0xC7167, size: 0x8, addend: 0x0, symName: __ZN4absl12lts_2021110213cord_internal12CordRepBtree10CopyPrefixEmb.cold.15, symObjAddr: 0x6470, symBinAddr: 0x51A5C, symSize: 0x24 }
  - { offsetInCU: 0x12FBD, offset: 0xC71AB, size: 0x8, addend: 0x0, symName: __ZN4absl12lts_2021110213cord_internal12CordRepBtree10CopyPrefixEmb.cold.6, symObjAddr: 0x632C, symBinAddr: 0x51918, symSize: 0x24 }
  - { offsetInCU: 0x12FEB, offset: 0xC71D9, size: 0x8, addend: 0x0, symName: __ZN4absl12lts_2021110213cord_internal12CordRepBtree10CopyPrefixEmb.cold.14, symObjAddr: 0x644C, symBinAddr: 0x51A38, symSize: 0x24 }
  - { offsetInCU: 0x13019, offset: 0xC7207, size: 0x8, addend: 0x0, symName: __ZN4absl12lts_2021110213cord_internal12CordRepBtree10CopyPrefixEmb.cold.13, symObjAddr: 0x6428, symBinAddr: 0x51A14, symSize: 0x24 }
  - { offsetInCU: 0x13047, offset: 0xC7235, size: 0x8, addend: 0x0, symName: __ZN4absl12lts_2021110213cord_internal12CordRepBtree10CopyPrefixEmb.cold.12, symObjAddr: 0x6404, symBinAddr: 0x519F0, symSize: 0x24 }
  - { offsetInCU: 0x13075, offset: 0xC7263, size: 0x8, addend: 0x0, symName: __ZN4absl12lts_2021110213cord_internal12CordRepBtree10CopyPrefixEmb.cold.9, symObjAddr: 0x6398, symBinAddr: 0x51984, symSize: 0x24 }
  - { offsetInCU: 0x130A3, offset: 0xC7291, size: 0x8, addend: 0x0, symName: __ZN4absl12lts_2021110213cord_internal12CordRepBtree10CopyPrefixEmb.cold.10, symObjAddr: 0x63BC, symBinAddr: 0x519A8, symSize: 0x24 }
  - { offsetInCU: 0x130D1, offset: 0xC72BF, size: 0x8, addend: 0x0, symName: __ZN4absl12lts_2021110213cord_internal12CordRepBtree10CopyPrefixEmb.cold.17, symObjAddr: 0x64B8, symBinAddr: 0x51AA4, symSize: 0x24 }
  - { offsetInCU: 0x130FF, offset: 0xC72ED, size: 0x8, addend: 0x0, symName: __ZN4absl12lts_2021110213cord_internal12CordRepBtree10CopyPrefixEmb.cold.1, symObjAddr: 0x6270, symBinAddr: 0x5185C, symSize: 0x28 }
  - { offsetInCU: 0x13117, offset: 0xC7305, size: 0x8, addend: 0x0, symName: __ZN4absl12lts_2021110213cord_internal12CordRepBtree10CopyPrefixEmb.cold.2, symObjAddr: 0x6298, symBinAddr: 0x51884, symSize: 0x28 }
  - { offsetInCU: 0x1312F, offset: 0xC731D, size: 0x8, addend: 0x0, symName: __ZN4absl12lts_2021110213cord_internal12CordRepBtree10CopyPrefixEmb.cold.16, symObjAddr: 0x6494, symBinAddr: 0x51A80, symSize: 0x24 }
  - { offsetInCU: 0x1315D, offset: 0xC734B, size: 0x8, addend: 0x0, symName: __ZN4absl12lts_2021110213cord_internal12CordRepBtree10CopyPrefixEmb.cold.3, symObjAddr: 0x62C0, symBinAddr: 0x518AC, symSize: 0x24 }
  - { offsetInCU: 0x1318B, offset: 0xC7379, size: 0x8, addend: 0x0, symName: __ZN4absl12lts_2021110213cord_internal12CordRepBtree10CopyPrefixEmb.cold.4, symObjAddr: 0x62E4, symBinAddr: 0x518D0, symSize: 0x24 }
  - { offsetInCU: 0x131B9, offset: 0xC73A7, size: 0x8, addend: 0x0, symName: __ZN4absl12lts_2021110213cord_internal12CordRepBtree10CopyPrefixEmb.cold.7, symObjAddr: 0x6350, symBinAddr: 0x5193C, symSize: 0x24 }
  - { offsetInCU: 0x131E7, offset: 0xC73D5, size: 0x8, addend: 0x0, symName: __ZN4absl12lts_2021110213cord_internal12CordRepBtree10CopyPrefixEmb.cold.8, symObjAddr: 0x6374, symBinAddr: 0x51960, symSize: 0x24 }
  - { offsetInCU: 0x13276, offset: 0xC7464, size: 0x8, addend: 0x0, symName: __ZN4absl12lts_2021110213cord_internal12CordRepBtree12ExtractFrontEPS2_, symObjAddr: 0x2D20, symBinAddr: 0x1BB2C, symSize: 0x13C }
  - { offsetInCU: 0x135E1, offset: 0xC77CF, size: 0x8, addend: 0x0, symName: __ZN4absl12lts_2021110213cord_internal12CordRepBtree12ExtractFrontEPS2_.cold.1, symObjAddr: 0x64DC, symBinAddr: 0x51AC8, symSize: 0x24 }
  - { offsetInCU: 0x13625, offset: 0xC7813, size: 0x8, addend: 0x0, symName: __ZN4absl12lts_2021110213cord_internal12CordRepBtree12ExtractFrontEPS2_.cold.5, symObjAddr: 0x656C, symBinAddr: 0x51B58, symSize: 0x24 }
  - { offsetInCU: 0x13653, offset: 0xC7841, size: 0x8, addend: 0x0, symName: __ZN4absl12lts_2021110213cord_internal12CordRepBtree12ExtractFrontEPS2_.cold.2, symObjAddr: 0x6500, symBinAddr: 0x51AEC, symSize: 0x24 }
  - { offsetInCU: 0x13681, offset: 0xC786F, size: 0x8, addend: 0x0, symName: __ZN4absl12lts_2021110213cord_internal12CordRepBtree12ExtractFrontEPS2_.cold.3, symObjAddr: 0x6524, symBinAddr: 0x51B10, symSize: 0x24 }
  - { offsetInCU: 0x136AF, offset: 0xC789D, size: 0x8, addend: 0x0, symName: __ZN4absl12lts_2021110213cord_internal12CordRepBtree12ExtractFrontEPS2_.cold.4, symObjAddr: 0x6548, symBinAddr: 0x51B34, symSize: 0x24 }
  - { offsetInCU: 0x13788, offset: 0xC7976, size: 0x8, addend: 0x0, symName: __ZN4absl12lts_2021110213cord_internal12CordRepBtree14ConsumeBeginToEPS2_mm, symObjAddr: 0x2EAC, symBinAddr: 0x1BC68, symSize: 0x1C4 }
  - { offsetInCU: 0x13D4A, offset: 0xC7F38, size: 0x8, addend: 0x0, symName: __ZN4absl12lts_2021110213cord_internal12CordRepBtree12RemoveSuffixEPS2_m, symObjAddr: 0x3070, symBinAddr: 0x1BE2C, symSize: 0x2E4 }
  - { offsetInCU: 0x13D55, offset: 0xC7F43, size: 0x8, addend: 0x0, symName: __ZN4absl12lts_2021110213cord_internal12CordRepBtree14ConsumeBeginToEPS2_mm.cold.8, symObjAddr: 0x66D8, symBinAddr: 0x51C7C, symSize: 0x24 }
  - { offsetInCU: 0x13D99, offset: 0xC7F87, size: 0x8, addend: 0x0, symName: __ZN4absl12lts_2021110213cord_internal12CordRepBtree14ConsumeBeginToEPS2_mm.cold.4, symObjAddr: 0x6648, symBinAddr: 0x51BEC, symSize: 0x24 }
  - { offsetInCU: 0x13DDD, offset: 0xC7FCB, size: 0x8, addend: 0x0, symName: __ZN4absl12lts_2021110213cord_internal12CordRepBtree14ConsumeBeginToEPS2_mm.cold.1, symObjAddr: 0x65D8, symBinAddr: 0x51B7C, symSize: 0x28 }
  - { offsetInCU: 0x13DF5, offset: 0xC7FE3, size: 0x8, addend: 0x0, symName: __ZN4absl12lts_2021110213cord_internal12CordRepBtree14ConsumeBeginToEPS2_mm.cold.2, symObjAddr: 0x6600, symBinAddr: 0x51BA4, symSize: 0x24 }
  - { offsetInCU: 0x13E23, offset: 0xC8011, size: 0x8, addend: 0x0, symName: __ZN4absl12lts_2021110213cord_internal12CordRepBtree14ConsumeBeginToEPS2_mm.cold.3, symObjAddr: 0x6624, symBinAddr: 0x51BC8, symSize: 0x24 }
  - { offsetInCU: 0x13E51, offset: 0xC803F, size: 0x8, addend: 0x0, symName: __ZN4absl12lts_2021110213cord_internal12CordRepBtree14ConsumeBeginToEPS2_mm.cold.5, symObjAddr: 0x666C, symBinAddr: 0x51C10, symSize: 0x24 }
  - { offsetInCU: 0x13E7F, offset: 0xC806D, size: 0x8, addend: 0x0, symName: __ZN4absl12lts_2021110213cord_internal12CordRepBtree14ConsumeBeginToEPS2_mm.cold.6, symObjAddr: 0x6690, symBinAddr: 0x51C34, symSize: 0x24 }
  - { offsetInCU: 0x13EAD, offset: 0xC809B, size: 0x8, addend: 0x0, symName: __ZN4absl12lts_2021110213cord_internal12CordRepBtree14ConsumeBeginToEPS2_mm.cold.7, symObjAddr: 0x66B4, symBinAddr: 0x51C58, symSize: 0x24 }
  - { offsetInCU: 0x13EF1, offset: 0xC80DF, size: 0x8, addend: 0x0, symName: __ZN4absl12lts_2021110213cord_internal12CordRepBtree14ConsumeBeginToEPS2_mm.cold.9, symObjAddr: 0x66FC, symBinAddr: 0x51CA0, symSize: 0x24 }
  - { offsetInCU: 0x13F5B, offset: 0xC8149, size: 0x8, addend: 0x0, symName: __ZN4absl12lts_2021110213cord_internal12CordRepBtree12RemoveSuffixEPS2_m, symObjAddr: 0x3070, symBinAddr: 0x1BE2C, symSize: 0x2E4 }
  - { offsetInCU: 0x14608, offset: 0xC87F6, size: 0x8, addend: 0x0, symName: __ZN4absl12lts_2021110213cord_internal12CordRepBtree12RemoveSuffixEPS2_m.cold.14, symObjAddr: 0x68FC, symBinAddr: 0x51EA0, symSize: 0x24 }
  - { offsetInCU: 0x14636, offset: 0xC8824, size: 0x8, addend: 0x0, symName: __ZN4absl12lts_2021110213cord_internal12CordRepBtree12RemoveSuffixEPS2_m.cold.4, symObjAddr: 0x6790, symBinAddr: 0x51D34, symSize: 0x24 }
  - { offsetInCU: 0x14664, offset: 0xC8852, size: 0x8, addend: 0x0, symName: __ZN4absl12lts_2021110213cord_internal12CordRepBtree12RemoveSuffixEPS2_m.cold.12, symObjAddr: 0x68B0, symBinAddr: 0x51E54, symSize: 0x28 }
  - { offsetInCU: 0x1467C, offset: 0xC886A, size: 0x8, addend: 0x0, symName: __ZN4absl12lts_2021110213cord_internal12CordRepBtree12RemoveSuffixEPS2_m.cold.9, symObjAddr: 0x6844, symBinAddr: 0x51DE8, symSize: 0x24 }
  - { offsetInCU: 0x146AA, offset: 0xC8898, size: 0x8, addend: 0x0, symName: __ZN4absl12lts_2021110213cord_internal12CordRepBtree12RemoveSuffixEPS2_m.cold.6, symObjAddr: 0x67D8, symBinAddr: 0x51D7C, symSize: 0x24 }
  - { offsetInCU: 0x146D8, offset: 0xC88C6, size: 0x8, addend: 0x0, symName: __ZN4absl12lts_2021110213cord_internal12CordRepBtree12RemoveSuffixEPS2_m.cold.7, symObjAddr: 0x67FC, symBinAddr: 0x51DA0, symSize: 0x24 }
  - { offsetInCU: 0x14706, offset: 0xC88F4, size: 0x8, addend: 0x0, symName: __ZN4absl12lts_2021110213cord_internal12CordRepBtree12RemoveSuffixEPS2_m.cold.8, symObjAddr: 0x6820, symBinAddr: 0x51DC4, symSize: 0x24 }
  - { offsetInCU: 0x14734, offset: 0xC8922, size: 0x8, addend: 0x0, symName: __ZN4absl12lts_2021110213cord_internal12CordRepBtree12RemoveSuffixEPS2_m.cold.1, symObjAddr: 0x6720, symBinAddr: 0x51CC4, symSize: 0x28 }
  - { offsetInCU: 0x1474C, offset: 0xC893A, size: 0x8, addend: 0x0, symName: __ZN4absl12lts_2021110213cord_internal12CordRepBtree12RemoveSuffixEPS2_m.cold.2, symObjAddr: 0x6748, symBinAddr: 0x51CEC, symSize: 0x24 }
  - { offsetInCU: 0x14764, offset: 0xC8952, size: 0x8, addend: 0x0, symName: __ZN4absl12lts_2021110213cord_internal12CordRepBtree12RemoveSuffixEPS2_m.cold.3, symObjAddr: 0x676C, symBinAddr: 0x51D10, symSize: 0x24 }
  - { offsetInCU: 0x14792, offset: 0xC8980, size: 0x8, addend: 0x0, symName: __ZN4absl12lts_2021110213cord_internal12CordRepBtree12RemoveSuffixEPS2_m.cold.5, symObjAddr: 0x67B4, symBinAddr: 0x51D58, symSize: 0x24 }
  - { offsetInCU: 0x147C0, offset: 0xC89AE, size: 0x8, addend: 0x0, symName: __ZN4absl12lts_2021110213cord_internal12CordRepBtree12RemoveSuffixEPS2_m.cold.13, symObjAddr: 0x68D8, symBinAddr: 0x51E7C, symSize: 0x24 }
  - { offsetInCU: 0x147EE, offset: 0xC89DC, size: 0x8, addend: 0x0, symName: __ZN4absl12lts_2021110213cord_internal12CordRepBtree12RemoveSuffixEPS2_m.cold.11, symObjAddr: 0x688C, symBinAddr: 0x51E30, symSize: 0x24 }
  - { offsetInCU: 0x1481C, offset: 0xC8A0A, size: 0x8, addend: 0x0, symName: __ZN4absl12lts_2021110213cord_internal12CordRepBtree12RemoveSuffixEPS2_m.cold.10, symObjAddr: 0x6868, symBinAddr: 0x51E0C, symSize: 0x24 }
  - { offsetInCU: 0x14860, offset: 0xC8A4E, size: 0x8, addend: 0x0, symName: __ZN4absl12lts_2021110213cord_internal12_GLOBAL__N_110ResizeEdgeEPNS1_7CordRepEmb.cold.1, symObjAddr: 0x6920, symBinAddr: 0x51EC4, symSize: 0x28 }
  - { offsetInCU: 0x14878, offset: 0xC8A66, size: 0x8, addend: 0x0, symName: __ZN4absl12lts_2021110213cord_internal12_GLOBAL__N_110ResizeEdgeEPNS1_7CordRepEmb.cold.2, symObjAddr: 0x6948, symBinAddr: 0x51EEC, symSize: 0x28 }
  - { offsetInCU: 0x14890, offset: 0xC8A7E, size: 0x8, addend: 0x0, symName: __ZN4absl12lts_2021110213cord_internal12_GLOBAL__N_110ResizeEdgeEPNS1_7CordRepEmb.cold.3, symObjAddr: 0x6970, symBinAddr: 0x51F14, symSize: 0x28 }
  - { offsetInCU: 0x148E4, offset: 0xC8AD2, size: 0x8, addend: 0x0, symName: __ZN4absl12lts_2021110213cord_internal12CordRepBtree7SubTreeEmm, symObjAddr: 0x33D8, symBinAddr: 0x1C194, symSize: 0x48C }
  - { offsetInCU: 0x156F7, offset: 0xC98E5, size: 0x8, addend: 0x0, symName: __ZN4absl12lts_2021110213cord_internal12CordRepBtree7SubTreeEmm.cold.6, symObjAddr: 0x6A54, symBinAddr: 0x51FF8, symSize: 0x24 }
  - { offsetInCU: 0x15725, offset: 0xC9913, size: 0x8, addend: 0x0, symName: __ZN4absl12lts_2021110213cord_internal12CordRepBtree7SubTreeEmm.cold.12, symObjAddr: 0x6B30, symBinAddr: 0x520D4, symSize: 0x24 }
  - { offsetInCU: 0x15753, offset: 0xC9941, size: 0x8, addend: 0x0, symName: __ZN4absl12lts_2021110213cord_internal12CordRepBtree7SubTreeEmm.cold.11, symObjAddr: 0x6B0C, symBinAddr: 0x520B0, symSize: 0x24 }
  - { offsetInCU: 0x15781, offset: 0xC996F, size: 0x8, addend: 0x0, symName: __ZN4absl12lts_2021110213cord_internal12CordRepBtree7SubTreeEmm.cold.1, symObjAddr: 0x6998, symBinAddr: 0x51F3C, symSize: 0x28 }
  - { offsetInCU: 0x15799, offset: 0xC9987, size: 0x8, addend: 0x0, symName: __ZN4absl12lts_2021110213cord_internal12CordRepBtree7SubTreeEmm.cold.2, symObjAddr: 0x69C0, symBinAddr: 0x51F64, symSize: 0x28 }
  - { offsetInCU: 0x157B1, offset: 0xC999F, size: 0x8, addend: 0x0, symName: __ZN4absl12lts_2021110213cord_internal12CordRepBtree7SubTreeEmm.cold.13, symObjAddr: 0x6B54, symBinAddr: 0x520F8, symSize: 0x24 }
  - { offsetInCU: 0x157DF, offset: 0xC99CD, size: 0x8, addend: 0x0, symName: __ZN4absl12lts_2021110213cord_internal12CordRepBtree7SubTreeEmm.cold.10, symObjAddr: 0x6AE4, symBinAddr: 0x52088, symSize: 0x28 }
  - { offsetInCU: 0x157F7, offset: 0xC99E5, size: 0x8, addend: 0x0, symName: __ZN4absl12lts_2021110213cord_internal12CordRepBtree7SubTreeEmm.cold.3, symObjAddr: 0x69E8, symBinAddr: 0x51F8C, symSize: 0x24 }
  - { offsetInCU: 0x15825, offset: 0xC9A13, size: 0x8, addend: 0x0, symName: __ZN4absl12lts_2021110213cord_internal12CordRepBtree7SubTreeEmm.cold.4, symObjAddr: 0x6A0C, symBinAddr: 0x51FB0, symSize: 0x24 }
  - { offsetInCU: 0x15853, offset: 0xC9A41, size: 0x8, addend: 0x0, symName: __ZN4absl12lts_2021110213cord_internal12CordRepBtree7SubTreeEmm.cold.5, symObjAddr: 0x6A30, symBinAddr: 0x51FD4, symSize: 0x24 }
  - { offsetInCU: 0x15881, offset: 0xC9A6F, size: 0x8, addend: 0x0, symName: __ZN4absl12lts_2021110213cord_internal12CordRepBtree7SubTreeEmm.cold.8, symObjAddr: 0x6A9C, symBinAddr: 0x52040, symSize: 0x24 }
  - { offsetInCU: 0x158AF, offset: 0xC9A9D, size: 0x8, addend: 0x0, symName: __ZN4absl12lts_2021110213cord_internal12CordRepBtree7SubTreeEmm.cold.7, symObjAddr: 0x6A78, symBinAddr: 0x5201C, symSize: 0x24 }
  - { offsetInCU: 0x158DD, offset: 0xC9ACB, size: 0x8, addend: 0x0, symName: __ZN4absl12lts_2021110213cord_internal12CordRepBtree7SubTreeEmm.cold.9, symObjAddr: 0x6AC0, symBinAddr: 0x52064, symSize: 0x24 }
  - { offsetInCU: 0x15936, offset: 0xC9B24, size: 0x8, addend: 0x0, symName: __ZN4absl12lts_2021110213cord_internal12CordRepBtree10MergeTreesEPS2_S3_, symObjAddr: 0x3864, symBinAddr: 0x1C620, symSize: 0x28 }
  - { offsetInCU: 0x159C2, offset: 0xC9BB0, size: 0x8, addend: 0x0, symName: __ZN4absl12lts_2021110213cord_internal12CordRepBtree5MergeILNS2_8EdgeTypeE0EEEPS2_S5_S5_, symObjAddr: 0x3C7C, symBinAddr: 0x1CA38, symSize: 0x400 }
  - { offsetInCU: 0x164E5, offset: 0xCA6D3, size: 0x8, addend: 0x0, symName: __ZN4absl12lts_2021110213cord_internal12CordRepBtree5MergeILNS2_8EdgeTypeE1EEEPS2_S5_S5_, symObjAddr: 0x388C, symBinAddr: 0x1C648, symSize: 0x3F0 }
  - { offsetInCU: 0x16FE5, offset: 0xCB1D3, size: 0x8, addend: 0x0, symName: __ZN4absl12lts_2021110213cord_internal12CordRepBtree5MergeILNS2_8EdgeTypeE0EEEPS2_S5_S5_, symObjAddr: 0x3C7C, symBinAddr: 0x1CA38, symSize: 0x400 }
  - { offsetInCU: 0x17062, offset: 0xCB250, size: 0x8, addend: 0x0, symName: __ZN4absl12lts_2021110213cord_internal12CordRepBtree5MergeILNS2_8EdgeTypeE1EEEPS2_S5_S5_.cold.7, symObjAddr: 0x6C58, symBinAddr: 0x521FC, symSize: 0x24 }
  - { offsetInCU: 0x170A5, offset: 0xCB293, size: 0x8, addend: 0x0, symName: __ZN4absl12lts_2021110213cord_internal12CordRepBtree5MergeILNS2_8EdgeTypeE1EEEPS2_S5_S5_.cold.6, symObjAddr: 0x6C34, symBinAddr: 0x521D8, symSize: 0x24 }
  - { offsetInCU: 0x170E8, offset: 0xCB2D6, size: 0x8, addend: 0x0, symName: __ZN4absl12lts_2021110213cord_internal12CordRepBtree5MergeILNS2_8EdgeTypeE1EEEPS2_S5_S5_.cold.5, symObjAddr: 0x6C10, symBinAddr: 0x521B4, symSize: 0x24 }
  - { offsetInCU: 0x17142, offset: 0xCB330, size: 0x8, addend: 0x0, symName: __ZN4absl12lts_2021110213cord_internal12CordRepBtree5MergeILNS2_8EdgeTypeE1EEEPS2_S5_S5_.cold.3, symObjAddr: 0x6BC4, symBinAddr: 0x52168, symSize: 0x24 }
  - { offsetInCU: 0x17170, offset: 0xCB35E, size: 0x8, addend: 0x0, symName: __ZN4absl12lts_2021110213cord_internal12CordRepBtree5MergeILNS2_8EdgeTypeE1EEEPS2_S5_S5_.cold.1, symObjAddr: 0x6B78, symBinAddr: 0x5211C, symSize: 0x28 }
  - { offsetInCU: 0x17188, offset: 0xCB376, size: 0x8, addend: 0x0, symName: __ZN4absl12lts_2021110213cord_internal12CordRepBtree5MergeILNS2_8EdgeTypeE1EEEPS2_S5_S5_.cold.2, symObjAddr: 0x6BA0, symBinAddr: 0x52144, symSize: 0x24 }
  - { offsetInCU: 0x171CC, offset: 0xCB3BA, size: 0x8, addend: 0x0, symName: __ZN4absl12lts_2021110213cord_internal12CordRepBtree5MergeILNS2_8EdgeTypeE1EEEPS2_S5_S5_.cold.4, symObjAddr: 0x6BE8, symBinAddr: 0x5218C, symSize: 0x28 }
  - { offsetInCU: 0x17278, offset: 0xCB466, size: 0x8, addend: 0x0, symName: __ZN4absl12lts_2021110213cord_internal12CordRepBtree5MergeILNS2_8EdgeTypeE0EEEPS2_S5_S5_.cold.6, symObjAddr: 0x6D34, symBinAddr: 0x522D8, symSize: 0x24 }
  - { offsetInCU: 0x172BB, offset: 0xCB4A9, size: 0x8, addend: 0x0, symName: __ZN4absl12lts_2021110213cord_internal12CordRepBtree5MergeILNS2_8EdgeTypeE0EEEPS2_S5_S5_.cold.5, symObjAddr: 0x6D10, symBinAddr: 0x522B4, symSize: 0x24 }
  - { offsetInCU: 0x172FE, offset: 0xCB4EC, size: 0x8, addend: 0x0, symName: __ZN4absl12lts_2021110213cord_internal12CordRepBtree5MergeILNS2_8EdgeTypeE0EEEPS2_S5_S5_.cold.4, symObjAddr: 0x6CEC, symBinAddr: 0x52290, symSize: 0x24 }
  - { offsetInCU: 0x17358, offset: 0xCB546, size: 0x8, addend: 0x0, symName: __ZN4absl12lts_2021110213cord_internal12CordRepBtree5MergeILNS2_8EdgeTypeE0EEEPS2_S5_S5_.cold.3, symObjAddr: 0x6CC8, symBinAddr: 0x5226C, symSize: 0x24 }
  - { offsetInCU: 0x17386, offset: 0xCB574, size: 0x8, addend: 0x0, symName: __ZN4absl12lts_2021110213cord_internal12CordRepBtree5MergeILNS2_8EdgeTypeE0EEEPS2_S5_S5_.cold.1, symObjAddr: 0x6C7C, symBinAddr: 0x52220, symSize: 0x28 }
  - { offsetInCU: 0x1739E, offset: 0xCB58C, size: 0x8, addend: 0x0, symName: __ZN4absl12lts_2021110213cord_internal12CordRepBtree5MergeILNS2_8EdgeTypeE0EEEPS2_S5_S5_.cold.2, symObjAddr: 0x6CA4, symBinAddr: 0x52248, symSize: 0x24 }
  - { offsetInCU: 0x173E2, offset: 0xCB5D0, size: 0x8, addend: 0x0, symName: __ZNK4absl12lts_2021110213cord_internal12CordRepBtree6IsFlatEPNS0_11string_viewE, symObjAddr: 0x407C, symBinAddr: 0x1CE38, symSize: 0x50 }
  - { offsetInCU: 0x175EE, offset: 0xCB7DC, size: 0x8, addend: 0x0, symName: __ZNK4absl12lts_2021110213cord_internal12CordRepBtree6IsFlatEmmPNS0_11string_viewE, symObjAddr: 0x4180, symBinAddr: 0x1CE88, symSize: 0x168 }
  - { offsetInCU: 0x177BC, offset: 0xCB9AA, size: 0x8, addend: 0x0, symName: __ZNK4absl12lts_2021110213cord_internal12CordRepBtree6IsFlatEmmPNS0_11string_viewE, symObjAddr: 0x4180, symBinAddr: 0x1CE88, symSize: 0x168 }
  - { offsetInCU: 0x17ABA, offset: 0xCBCA8, size: 0x8, addend: 0x0, symName: __ZNK4absl12lts_2021110213cord_internal12CordRepBtree6IsFlatEmmPNS0_11string_viewE.cold.6, symObjAddr: 0x6EF0, symBinAddr: 0x523B8, symSize: 0x24 }
  - { offsetInCU: 0x17AE8, offset: 0xCBCD6, size: 0x8, addend: 0x0, symName: __ZNK4absl12lts_2021110213cord_internal12CordRepBtree6IsFlatEmmPNS0_11string_viewE.cold.9, symObjAddr: 0x6F5C, symBinAddr: 0x52424, symSize: 0x24 }
  - { offsetInCU: 0x17B16, offset: 0xCBD04, size: 0x8, addend: 0x0, symName: __ZNK4absl12lts_2021110213cord_internal12CordRepBtree6IsFlatEmmPNS0_11string_viewE.cold.7, symObjAddr: 0x6F14, symBinAddr: 0x523DC, symSize: 0x24 }
  - { offsetInCU: 0x17B44, offset: 0xCBD32, size: 0x8, addend: 0x0, symName: __ZNK4absl12lts_2021110213cord_internal12CordRepBtree6IsFlatEmmPNS0_11string_viewE.cold.8, symObjAddr: 0x6F38, symBinAddr: 0x52400, symSize: 0x24 }
  - { offsetInCU: 0x17B72, offset: 0xCBD60, size: 0x8, addend: 0x0, symName: __ZNK4absl12lts_2021110213cord_internal12CordRepBtree6IsFlatEmmPNS0_11string_viewE.cold.1, symObjAddr: 0x6E34, symBinAddr: 0x522FC, symSize: 0x28 }
  - { offsetInCU: 0x17B8A, offset: 0xCBD78, size: 0x8, addend: 0x0, symName: __ZNK4absl12lts_2021110213cord_internal12CordRepBtree6IsFlatEmmPNS0_11string_viewE.cold.2, symObjAddr: 0x6E5C, symBinAddr: 0x52324, symSize: 0x28 }
  - { offsetInCU: 0x17BA2, offset: 0xCBD90, size: 0x8, addend: 0x0, symName: __ZNK4absl12lts_2021110213cord_internal12CordRepBtree6IsFlatEmmPNS0_11string_viewE.cold.4, symObjAddr: 0x6EA8, symBinAddr: 0x52370, symSize: 0x24 }
  - { offsetInCU: 0x17C26, offset: 0xCBE14, size: 0x8, addend: 0x0, symName: __ZNK4absl12lts_2021110213cord_internal12CordRepBtree6IsFlatEmmPNS0_11string_viewE.cold.5, symObjAddr: 0x6ECC, symBinAddr: 0x52394, symSize: 0x24 }
  - { offsetInCU: 0x17C6A, offset: 0xCBE58, size: 0x8, addend: 0x0, symName: __ZNK4absl12lts_2021110213cord_internal12CordRepBtree6IsFlatEmmPNS0_11string_viewE.cold.3, symObjAddr: 0x6E84, symBinAddr: 0x5234C, symSize: 0x24 }
  - { offsetInCU: 0x17D7D, offset: 0xCBF6B, size: 0x8, addend: 0x0, symName: __ZNK4absl12lts_2021110213cord_internal12CordRepBtree12GetCharacterEm, symObjAddr: 0x432C, symBinAddr: 0x1CFF0, symSize: 0xCC }
  - { offsetInCU: 0x17F48, offset: 0xCC136, size: 0x8, addend: 0x0, symName: __ZN4absl12lts_2021110213cord_internal12CordRepBtree19GetAppendBufferSlowEm, symObjAddr: 0x43F8, symBinAddr: 0x1D0BC, symSize: 0x178 }
  - { offsetInCU: 0x17F53, offset: 0xCC141, size: 0x8, addend: 0x0, symName: __ZNK4absl12lts_2021110213cord_internal12CordRepBtree12GetCharacterEm.cold.3, symObjAddr: 0x6FF0, symBinAddr: 0x52494, symSize: 0x24 }
  - { offsetInCU: 0x17F81, offset: 0xCC16F, size: 0x8, addend: 0x0, symName: __ZNK4absl12lts_2021110213cord_internal12CordRepBtree12GetCharacterEm.cold.5, symObjAddr: 0x7038, symBinAddr: 0x524DC, symSize: 0x24 }
  - { offsetInCU: 0x17FAF, offset: 0xCC19D, size: 0x8, addend: 0x0, symName: __ZNK4absl12lts_2021110213cord_internal12CordRepBtree12GetCharacterEm.cold.2, symObjAddr: 0x6FCC, symBinAddr: 0x52470, symSize: 0x24 }
  - { offsetInCU: 0x17FDD, offset: 0xCC1CB, size: 0x8, addend: 0x0, symName: __ZNK4absl12lts_2021110213cord_internal12CordRepBtree12GetCharacterEm.cold.4, symObjAddr: 0x7014, symBinAddr: 0x524B8, symSize: 0x24 }
  - { offsetInCU: 0x1800B, offset: 0xCC1F9, size: 0x8, addend: 0x0, symName: __ZNK4absl12lts_2021110213cord_internal12CordRepBtree12GetCharacterEm.cold.6, symObjAddr: 0x705C, symBinAddr: 0x52500, symSize: 0x28 }
  - { offsetInCU: 0x18023, offset: 0xCC211, size: 0x8, addend: 0x0, symName: __ZNK4absl12lts_2021110213cord_internal12CordRepBtree12GetCharacterEm.cold.1, symObjAddr: 0x6FA4, symBinAddr: 0x52448, symSize: 0x28 }
  - { offsetInCU: 0x18067, offset: 0xCC255, size: 0x8, addend: 0x0, symName: __ZN4absl12lts_2021110213cord_internal12CordRepBtree19GetAppendBufferSlowEm, symObjAddr: 0x43F8, symBinAddr: 0x1D0BC, symSize: 0x178 }
  - { offsetInCU: 0x18407, offset: 0xCC5F5, size: 0x8, addend: 0x0, symName: __ZN4absl12lts_2021110213cord_internal12CordRepBtree19GetAppendBufferSlowEm.cold.3, symObjAddr: 0x70D4, symBinAddr: 0x52578, symSize: 0x24 }
  - { offsetInCU: 0x18435, offset: 0xCC623, size: 0x8, addend: 0x0, symName: __ZN4absl12lts_2021110213cord_internal12CordRepBtree19GetAppendBufferSlowEm.cold.1, symObjAddr: 0x7084, symBinAddr: 0x52528, symSize: 0x28 }
  - { offsetInCU: 0x1844D, offset: 0xCC63B, size: 0x8, addend: 0x0, symName: __ZN4absl12lts_2021110213cord_internal12CordRepBtree19GetAppendBufferSlowEm.cold.4, symObjAddr: 0x70F8, symBinAddr: 0x5259C, symSize: 0x28 }
  - { offsetInCU: 0x18465, offset: 0xCC653, size: 0x8, addend: 0x0, symName: __ZN4absl12lts_2021110213cord_internal12CordRepBtree19GetAppendBufferSlowEm.cold.2, symObjAddr: 0x70AC, symBinAddr: 0x52550, symSize: 0x28 }
  - { offsetInCU: 0x184D8, offset: 0xCC6C6, size: 0x8, addend: 0x0, symName: __ZN4absl12lts_2021110213cord_internal12CordRepBtree6AppendEPS2_NS0_11string_viewEm, symObjAddr: 0x466C, symBinAddr: 0x1D330, symSize: 0x4 }
  - { offsetInCU: 0x1851C, offset: 0xCC70A, size: 0x8, addend: 0x0, symName: __ZN4absl12lts_2021110213cord_internal12CordRepBtree6AppendEPS2_NS0_11string_viewEm, symObjAddr: 0x466C, symBinAddr: 0x1D330, symSize: 0x4 }
  - { offsetInCU: 0x18544, offset: 0xCC732, size: 0x8, addend: 0x0, symName: __ZN4absl12lts_2021110213cord_internal12CordRepBtree7PrependEPS2_NS0_11string_viewEm, symObjAddr: 0x4670, symBinAddr: 0x1D334, symSize: 0x4 }
  - { offsetInCU: 0x18588, offset: 0xCC776, size: 0x8, addend: 0x0, symName: __ZN4absl12lts_2021110213cord_internal12CordRepBtree7PrependEPS2_NS0_11string_viewEm, symObjAddr: 0x4670, symBinAddr: 0x1D334, symSize: 0x4 }
  - { offsetInCU: 0x1862E, offset: 0xCC81C, size: 0x8, addend: 0x0, symName: __ZN4absl12lts_2021110213cord_internal12CordRepBtree7RebuildEPPS2_S3_b, symObjAddr: 0x4674, symBinAddr: 0x1D338, symSize: 0x400 }
  - { offsetInCU: 0x19386, offset: 0xCD574, size: 0x8, addend: 0x0, symName: __ZN4absl12lts_2021110213cord_internal12CordRepBtree7RebuildEPPS2_S3_b.cold.5, symObjAddr: 0x71B0, symBinAddr: 0x52654, symSize: 0x24 }
  - { offsetInCU: 0x193B4, offset: 0xCD5A2, size: 0x8, addend: 0x0, symName: __ZN4absl12lts_2021110213cord_internal12CordRepBtree7RebuildEPPS2_S3_b.cold.4, symObjAddr: 0x718C, symBinAddr: 0x52630, symSize: 0x24 }
  - { offsetInCU: 0x193E2, offset: 0xCD5D0, size: 0x8, addend: 0x0, symName: __ZN4absl12lts_2021110213cord_internal12CordRepBtree7RebuildEPPS2_S3_b.cold.3, symObjAddr: 0x7168, symBinAddr: 0x5260C, symSize: 0x24 }
  - { offsetInCU: 0x19410, offset: 0xCD5FE, size: 0x8, addend: 0x0, symName: __ZN4absl12lts_2021110213cord_internal12CordRepBtree7RebuildEPPS2_S3_b.cold.1, symObjAddr: 0x7120, symBinAddr: 0x525C4, symSize: 0x24 }
  - { offsetInCU: 0x1943E, offset: 0xCD62C, size: 0x8, addend: 0x0, symName: __ZN4absl12lts_2021110213cord_internal12CordRepBtree7RebuildEPPS2_S3_b.cold.2, symObjAddr: 0x7144, symBinAddr: 0x525E8, symSize: 0x24 }
  - { offsetInCU: 0x19482, offset: 0xCD670, size: 0x8, addend: 0x0, symName: __ZN4absl12lts_2021110213cord_internal12CordRepBtree7RebuildEPS2_, symObjAddr: 0x4A74, symBinAddr: 0x1D738, symSize: 0xD0 }
  - { offsetInCU: 0x19711, offset: 0xCD8FF, size: 0x8, addend: 0x0, symName: __ZN4absl12lts_2021110213cord_internal12CordRepBtree7RebuildEPS2_.cold.1, symObjAddr: 0x71D4, symBinAddr: 0x52678, symSize: 0x28 }
  - { offsetInCU: 0x1973C, offset: 0xCD92A, size: 0x8, addend: 0x0, symName: '__ZZN4absl12lts_2021110213cord_internal12_GLOBAL__N_17DumpAllEPKNS1_7CordRepEbRNSt3__113basic_ostreamIcNS6_11char_traitsIcEEEEiENK3$_3clES5_.cold.2', symObjAddr: 0x7220, symBinAddr: 0x526C4, symSize: 0x24 }
  - { offsetInCU: 0x197BF, offset: 0xCD9AD, size: 0x8, addend: 0x0, symName: '__ZZN4absl12lts_2021110213cord_internal12_GLOBAL__N_17DumpAllEPKNS1_7CordRepEbRNSt3__113basic_ostreamIcNS6_11char_traitsIcEEEEiENK3$_3clES5_.cold.3', symObjAddr: 0x7244, symBinAddr: 0x526E8, symSize: 0x24 }
  - { offsetInCU: 0x19802, offset: 0xCD9F0, size: 0x8, addend: 0x0, symName: '__ZZN4absl12lts_2021110213cord_internal12_GLOBAL__N_17DumpAllEPKNS1_7CordRepEbRNSt3__113basic_ostreamIcNS6_11char_traitsIcEEEEiENK3$_3clES5_.cold.1', symObjAddr: 0x71FC, symBinAddr: 0x526A0, symSize: 0x24 }
  - { offsetInCU: 0x19A73, offset: 0xCDC61, size: 0x8, addend: 0x0, symName: __ZN4absl12lts_202111028AlphaNumC2Ei.cold.1, symObjAddr: 0x7268, symBinAddr: 0x5270C, symSize: 0x24 }
  - { offsetInCU: 0x19DC0, offset: 0xCDFAE, size: 0x8, addend: 0x0, symName: __ZN4absl12lts_2021110213cord_internal12_GLOBAL__N_115CreateSubstringEPNS1_7CordRepEmm.cold.1, symObjAddr: 0x72D4, symBinAddr: 0x52730, symSize: 0x28 }
  - { offsetInCU: 0x19DD8, offset: 0xCDFC6, size: 0x8, addend: 0x0, symName: __ZN4absl12lts_2021110213cord_internal12_GLOBAL__N_115CreateSubstringEPNS1_7CordRepEmm.cold.2, symObjAddr: 0x72FC, symBinAddr: 0x52758, symSize: 0x28 }
  - { offsetInCU: 0x19DF0, offset: 0xCDFDE, size: 0x8, addend: 0x0, symName: __ZN4absl12lts_2021110213cord_internal12_GLOBAL__N_115CreateSubstringEPNS1_7CordRepEmm.cold.3, symObjAddr: 0x7324, symBinAddr: 0x52780, symSize: 0x28 }
  - { offsetInCU: 0x19E08, offset: 0xCDFF6, size: 0x8, addend: 0x0, symName: __ZN4absl12lts_2021110213cord_internal12_GLOBAL__N_115CreateSubstringEPNS1_7CordRepEmm.cold.4, symObjAddr: 0x734C, symBinAddr: 0x527A8, symSize: 0x24 }
  - { offsetInCU: 0x19E35, offset: 0xCE023, size: 0x8, addend: 0x0, symName: __ZN4absl12lts_2021110213cord_internal12_GLOBAL__N_115CreateSubstringEPNS1_7CordRepEmm.cold.5, symObjAddr: 0x7370, symBinAddr: 0x527CC, symSize: 0x24 }
  - { offsetInCU: 0x19E78, offset: 0xCE066, size: 0x8, addend: 0x0, symName: __ZN4absl12lts_2021110213cord_internal12_GLOBAL__N_115StackOperationsILNS1_12CordRepBtree8EdgeTypeE1EE8FinalizeEPS4_NS4_8OpResultE.cold.2, symObjAddr: 0x73B8, symBinAddr: 0x52814, symSize: 0x24 }
  - { offsetInCU: 0x19EA6, offset: 0xCE094, size: 0x8, addend: 0x0, symName: __ZN4absl12lts_2021110213cord_internal12_GLOBAL__N_115StackOperationsILNS1_12CordRepBtree8EdgeTypeE1EE8FinalizeEPS4_NS4_8OpResultE.cold.1, symObjAddr: 0x7394, symBinAddr: 0x527F0, symSize: 0x24 }
  - { offsetInCU: 0x19ED4, offset: 0xCE0C2, size: 0x8, addend: 0x0, symName: __ZN4absl12lts_2021110213cord_internal12_GLOBAL__N_115StackOperationsILNS1_12CordRepBtree8EdgeTypeE1EE8FinalizeEPS4_NS4_8OpResultE.cold.3, symObjAddr: 0x73DC, symBinAddr: 0x52838, symSize: 0x24 }
  - { offsetInCU: 0x19F18, offset: 0xCE106, size: 0x8, addend: 0x0, symName: __ZN4absl12lts_2021110213cord_internal12_GLOBAL__N_115StackOperationsILNS1_12CordRepBtree8EdgeTypeE0EE8FinalizeEPS4_NS4_8OpResultE.cold.2, symObjAddr: 0x7424, symBinAddr: 0x52880, symSize: 0x24 }
  - { offsetInCU: 0x19F46, offset: 0xCE134, size: 0x8, addend: 0x0, symName: __ZN4absl12lts_2021110213cord_internal12_GLOBAL__N_115StackOperationsILNS1_12CordRepBtree8EdgeTypeE0EE8FinalizeEPS4_NS4_8OpResultE.cold.1, symObjAddr: 0x7400, symBinAddr: 0x5285C, symSize: 0x24 }
  - { offsetInCU: 0x19F74, offset: 0xCE162, size: 0x8, addend: 0x0, symName: __ZN4absl12lts_2021110213cord_internal12_GLOBAL__N_115StackOperationsILNS1_12CordRepBtree8EdgeTypeE0EE8FinalizeEPS4_NS4_8OpResultE.cold.3, symObjAddr: 0x7448, symBinAddr: 0x528A4, symSize: 0x24 }
  - { offsetInCU: 0x1A062, offset: 0xCE250, size: 0x8, addend: 0x0, symName: '__ZN4absl12lts_2021110219functional_internal12InvokeObjectIZNS0_13cord_internal12CordRepBtree10CreateSlowEPNS3_7CordRepEE3$_0vJS6_mmEEET0_NS1_7VoidPtrEDpNS1_8ForwardTIT1_E4typeE.cold.1', symObjAddr: 0x746C, symBinAddr: 0x528C8, symSize: 0x24 }
  - { offsetInCU: 0x1A198, offset: 0xCE386, size: 0x8, addend: 0x0, symName: '__ZN4absl12lts_2021110219functional_internal12InvokeObjectIZNS0_13cord_internal12CordRepBtree10AppendSlowEPS4_PNS3_7CordRepEE3$_1vJS7_mmEEET0_NS1_7VoidPtrEDpNS1_8ForwardTIT1_E4typeE.cold.1', symObjAddr: 0x7490, symBinAddr: 0x528EC, symSize: 0x24 }
  - { offsetInCU: 0x1A2CE, offset: 0xCE4BC, size: 0x8, addend: 0x0, symName: '__ZN4absl12lts_2021110219functional_internal12InvokeObjectIZNS0_13cord_internal12CordRepBtree11PrependSlowEPS4_PNS3_7CordRepEE3$_2vJS7_mmEEET0_NS1_7VoidPtrEDpNS1_8ForwardTIT1_E4typeE.cold.1', symObjAddr: 0x74B4, symBinAddr: 0x52910, symSize: 0x24 }
  - { offsetInCU: 0x1A388, offset: 0xCE576, size: 0x8, addend: 0x0, symName: __ZN4absl12lts_2021110213cord_internal12CordRepBtree7SetEdgeILNS2_8EdgeTypeE0EEENS2_8OpResultEbPNS1_7CordRepEm.cold.3, symObjAddr: 0x7520, symBinAddr: 0x5297C, symSize: 0x24 }
  - { offsetInCU: 0x1A3B6, offset: 0xCE5A4, size: 0x8, addend: 0x0, symName: __ZN4absl12lts_2021110213cord_internal12CordRepBtree7SetEdgeILNS2_8EdgeTypeE0EEENS2_8OpResultEbPNS1_7CordRepEm.cold.1, symObjAddr: 0x74D8, symBinAddr: 0x52934, symSize: 0x24 }
  - { offsetInCU: 0x1A3E4, offset: 0xCE5D2, size: 0x8, addend: 0x0, symName: __ZN4absl12lts_2021110213cord_internal12CordRepBtree7SetEdgeILNS2_8EdgeTypeE0EEENS2_8OpResultEbPNS1_7CordRepEm.cold.2, symObjAddr: 0x74FC, symBinAddr: 0x52958, symSize: 0x24 }
  - { offsetInCU: 0x1A428, offset: 0xCE616, size: 0x8, addend: 0x0, symName: __ZN4absl12lts_2021110213cord_internal12CordRepBtree7SetEdgeILNS2_8EdgeTypeE0EEENS2_8OpResultEbPNS1_7CordRepEm.cold.4, symObjAddr: 0x7544, symBinAddr: 0x529A0, symSize: 0x24 }
  - { offsetInCU: 0x1A456, offset: 0xCE644, size: 0x8, addend: 0x0, symName: __ZN4absl12lts_2021110213cord_internal12CordRepBtree7SetEdgeILNS2_8EdgeTypeE1EEENS2_8OpResultEbPNS1_7CordRepEm.cold.5, symObjAddr: 0x75F8, symBinAddr: 0x52A54, symSize: 0x24 }
  - { offsetInCU: 0x1A484, offset: 0xCE672, size: 0x8, addend: 0x0, symName: __ZN4absl12lts_2021110213cord_internal12CordRepBtree7SetEdgeILNS2_8EdgeTypeE1EEENS2_8OpResultEbPNS1_7CordRepEm.cold.1, symObjAddr: 0x7568, symBinAddr: 0x529C4, symSize: 0x24 }
  - { offsetInCU: 0x1A4B2, offset: 0xCE6A0, size: 0x8, addend: 0x0, symName: __ZN4absl12lts_2021110213cord_internal12CordRepBtree7SetEdgeILNS2_8EdgeTypeE1EEENS2_8OpResultEbPNS1_7CordRepEm.cold.2, symObjAddr: 0x758C, symBinAddr: 0x529E8, symSize: 0x24 }
  - { offsetInCU: 0x1A4F6, offset: 0xCE6E4, size: 0x8, addend: 0x0, symName: __ZN4absl12lts_2021110213cord_internal12CordRepBtree7SetEdgeILNS2_8EdgeTypeE1EEENS2_8OpResultEbPNS1_7CordRepEm.cold.3, symObjAddr: 0x75B0, symBinAddr: 0x52A0C, symSize: 0x24 }
  - { offsetInCU: 0x1A524, offset: 0xCE712, size: 0x8, addend: 0x0, symName: __ZN4absl12lts_2021110213cord_internal12CordRepBtree7SetEdgeILNS2_8EdgeTypeE1EEENS2_8OpResultEbPNS1_7CordRepEm.cold.4, symObjAddr: 0x75D4, symBinAddr: 0x52A30, symSize: 0x24 }
  - { offsetInCU: 0x1A552, offset: 0xCE740, size: 0x8, addend: 0x0, symName: _OUTLINED_FUNCTION_0, symObjAddr: 0x761C, symBinAddr: 0x1E138, symSize: 0x8 }
  - { offsetInCU: 0x1A56A, offset: 0xCE758, size: 0x8, addend: 0x0, symName: _OUTLINED_FUNCTION_1, symObjAddr: 0x7624, symBinAddr: 0x1E140, symSize: 0x8 }
  - { offsetInCU: 0x1A582, offset: 0xCE770, size: 0x8, addend: 0x0, symName: _OUTLINED_FUNCTION_2, symObjAddr: 0x762C, symBinAddr: 0x1E148, symSize: 0x8 }
  - { offsetInCU: 0x1A59A, offset: 0xCE788, size: 0x8, addend: 0x0, symName: _OUTLINED_FUNCTION_3, symObjAddr: 0x7634, symBinAddr: 0x1E150, symSize: 0x8 }
  - { offsetInCU: 0x1A5B2, offset: 0xCE7A0, size: 0x8, addend: 0x0, symName: _OUTLINED_FUNCTION_4, symObjAddr: 0x763C, symBinAddr: 0x1E158, symSize: 0x8 }
  - { offsetInCU: 0x1A5CA, offset: 0xCE7B8, size: 0x8, addend: 0x0, symName: _OUTLINED_FUNCTION_5, symObjAddr: 0x7644, symBinAddr: 0x1E160, symSize: 0x8 }
  - { offsetInCU: 0x1A5E2, offset: 0xCE7D0, size: 0x8, addend: 0x0, symName: _OUTLINED_FUNCTION_6, symObjAddr: 0x764C, symBinAddr: 0x1E168, symSize: 0x8 }
  - { offsetInCU: 0x1A5FA, offset: 0xCE7E8, size: 0x8, addend: 0x0, symName: _OUTLINED_FUNCTION_7, symObjAddr: 0x7654, symBinAddr: 0x1E170, symSize: 0x8 }
  - { offsetInCU: 0x1A612, offset: 0xCE800, size: 0x8, addend: 0x0, symName: _OUTLINED_FUNCTION_8, symObjAddr: 0x765C, symBinAddr: 0x1E178, symSize: 0x8 }
  - { offsetInCU: 0x1A62A, offset: 0xCE818, size: 0x8, addend: 0x0, symName: _OUTLINED_FUNCTION_9, symObjAddr: 0x7664, symBinAddr: 0x1E180, symSize: 0x8 }
  - { offsetInCU: 0x1A642, offset: 0xCE830, size: 0x8, addend: 0x0, symName: _OUTLINED_FUNCTION_10, symObjAddr: 0x766C, symBinAddr: 0x1E188, symSize: 0x8 }
  - { offsetInCU: 0x1A65A, offset: 0xCE848, size: 0x8, addend: 0x0, symName: _OUTLINED_FUNCTION_11, symObjAddr: 0x7674, symBinAddr: 0x1E190, symSize: 0x8 }
  - { offsetInCU: 0x1A672, offset: 0xCE860, size: 0x8, addend: 0x0, symName: _OUTLINED_FUNCTION_12, symObjAddr: 0x767C, symBinAddr: 0x1E198, symSize: 0x8 }
  - { offsetInCU: 0x1A68A, offset: 0xCE878, size: 0x8, addend: 0x0, symName: _OUTLINED_FUNCTION_13, symObjAddr: 0x7684, symBinAddr: 0x1E1A0, symSize: 0x8 }
  - { offsetInCU: 0x1A6A2, offset: 0xCE890, size: 0x8, addend: 0x0, symName: _OUTLINED_FUNCTION_14, symObjAddr: 0x768C, symBinAddr: 0x1E1A8, symSize: 0x8 }
  - { offsetInCU: 0x1A6BA, offset: 0xCE8A8, size: 0x8, addend: 0x0, symName: _OUTLINED_FUNCTION_15, symObjAddr: 0x7694, symBinAddr: 0x1E1B0, symSize: 0x8 }
  - { offsetInCU: 0x26, offset: 0xCE914, size: 0x8, addend: 0x0, symName: __ZN4absl12lts_2021110213cord_internal21CordRepBtreeNavigator4SkipEm, symObjAddr: 0x0, symBinAddr: 0x1E1B8, symSize: 0x1A8 }
  - { offsetInCU: 0xC2D, offset: 0xCF51B, size: 0x8, addend: 0x0, symName: __ZN4absl12lts_2021110213cord_internal12_GLOBAL__N_19SubstringEPNS1_7CordRepEmm, symObjAddr: 0x560, symBinAddr: 0x1E718, symSize: 0xFC }
  - { offsetInCU: 0xF7F, offset: 0xCF86D, size: 0x8, addend: 0x0, symName: __ZN4absl12lts_2021110213cord_internal21CordRepBtreeNavigator4SkipEm.cold.1, symObjAddr: 0x65C, symBinAddr: 0x52A78, symSize: 0x24 }
  - { offsetInCU: 0x2EED, offset: 0xD17DB, size: 0x8, addend: 0x0, symName: __ZN4absl12lts_2021110213cord_internal21CordRepBtreeNavigator4SkipEm, symObjAddr: 0x0, symBinAddr: 0x1E1B8, symSize: 0x1A8 }
  - { offsetInCU: 0x30F8, offset: 0xD19E6, size: 0x8, addend: 0x0, symName: __ZN4absl12lts_2021110213cord_internal21CordRepBtreeNavigator4ReadEmm, symObjAddr: 0x1A8, symBinAddr: 0x1E360, symSize: 0x3B8 }
  - { offsetInCU: 0x3103, offset: 0xD19F1, size: 0x8, addend: 0x0, symName: __ZN4absl12lts_2021110213cord_internal21CordRepBtreeNavigator4SkipEm.cold.3, symObjAddr: 0x6A4, symBinAddr: 0x52AC0, symSize: 0x28 }
  - { offsetInCU: 0x311B, offset: 0xD1A09, size: 0x8, addend: 0x0, symName: __ZN4absl12lts_2021110213cord_internal21CordRepBtreeNavigator4SkipEm.cold.4, symObjAddr: 0x6CC, symBinAddr: 0x52AE8, symSize: 0x24 }
  - { offsetInCU: 0x3148, offset: 0xD1A36, size: 0x8, addend: 0x0, symName: __ZN4absl12lts_2021110213cord_internal21CordRepBtreeNavigator4SkipEm.cold.2, symObjAddr: 0x680, symBinAddr: 0x52A9C, symSize: 0x24 }
  - { offsetInCU: 0x3175, offset: 0xD1A63, size: 0x8, addend: 0x0, symName: __ZN4absl12lts_2021110213cord_internal21CordRepBtreeNavigator4SkipEm.cold.7, symObjAddr: 0x73C, symBinAddr: 0x52B58, symSize: 0x24 }
  - { offsetInCU: 0x31A2, offset: 0xD1A90, size: 0x8, addend: 0x0, symName: __ZN4absl12lts_2021110213cord_internal21CordRepBtreeNavigator4SkipEm.cold.1, symObjAddr: 0x65C, symBinAddr: 0x52A78, symSize: 0x24 }
  - { offsetInCU: 0x31CF, offset: 0xD1ABD, size: 0x8, addend: 0x0, symName: __ZN4absl12lts_2021110213cord_internal21CordRepBtreeNavigator4SkipEm.cold.8, symObjAddr: 0x760, symBinAddr: 0x52B7C, symSize: 0x24 }
  - { offsetInCU: 0x31FC, offset: 0xD1AEA, size: 0x8, addend: 0x0, symName: __ZN4absl12lts_2021110213cord_internal21CordRepBtreeNavigator4SkipEm.cold.6, symObjAddr: 0x714, symBinAddr: 0x52B30, symSize: 0x28 }
  - { offsetInCU: 0x3229, offset: 0xD1B17, size: 0x8, addend: 0x0, symName: __ZN4absl12lts_2021110213cord_internal21CordRepBtreeNavigator4SkipEm.cold.5, symObjAddr: 0x6F0, symBinAddr: 0x52B0C, symSize: 0x24 }
  - { offsetInCU: 0x3583, offset: 0xD1E71, size: 0x8, addend: 0x0, symName: __ZN4absl12lts_2021110213cord_internal21CordRepBtreeNavigator4ReadEmm, symObjAddr: 0x1A8, symBinAddr: 0x1E360, symSize: 0x3B8 }
  - { offsetInCU: 0x4151, offset: 0xD2A3F, size: 0x8, addend: 0x0, symName: __ZN4absl12lts_2021110213cord_internal21CordRepBtreeNavigator4ReadEmm.cold.3, symObjAddr: 0x7CC, symBinAddr: 0x52BE8, symSize: 0x24 }
  - { offsetInCU: 0x417E, offset: 0xD2A6C, size: 0x8, addend: 0x0, symName: __ZN4absl12lts_2021110213cord_internal21CordRepBtreeNavigator4ReadEmm.cold.4, symObjAddr: 0x7F0, symBinAddr: 0x52C0C, symSize: 0x24 }
  - { offsetInCU: 0x41AB, offset: 0xD2A99, size: 0x8, addend: 0x0, symName: __ZN4absl12lts_2021110213cord_internal21CordRepBtreeNavigator4ReadEmm.cold.2, symObjAddr: 0x7A8, symBinAddr: 0x52BC4, symSize: 0x24 }
  - { offsetInCU: 0x41D8, offset: 0xD2AC6, size: 0x8, addend: 0x0, symName: __ZN4absl12lts_2021110213cord_internal21CordRepBtreeNavigator4ReadEmm.cold.7, symObjAddr: 0x860, symBinAddr: 0x52C7C, symSize: 0x24 }
  - { offsetInCU: 0x4205, offset: 0xD2AF3, size: 0x8, addend: 0x0, symName: __ZN4absl12lts_2021110213cord_internal21CordRepBtreeNavigator4ReadEmm.cold.1, symObjAddr: 0x784, symBinAddr: 0x52BA0, symSize: 0x24 }
  - { offsetInCU: 0x4232, offset: 0xD2B20, size: 0x8, addend: 0x0, symName: __ZN4absl12lts_2021110213cord_internal21CordRepBtreeNavigator4ReadEmm.cold.10, symObjAddr: 0x8D4, symBinAddr: 0x52CF0, symSize: 0x24 }
  - { offsetInCU: 0x425F, offset: 0xD2B4D, size: 0x8, addend: 0x0, symName: __ZN4absl12lts_2021110213cord_internal21CordRepBtreeNavigator4ReadEmm.cold.9, symObjAddr: 0x8AC, symBinAddr: 0x52CC8, symSize: 0x28 }
  - { offsetInCU: 0x4277, offset: 0xD2B65, size: 0x8, addend: 0x0, symName: __ZN4absl12lts_2021110213cord_internal21CordRepBtreeNavigator4ReadEmm.cold.6, symObjAddr: 0x838, symBinAddr: 0x52C54, symSize: 0x28 }
  - { offsetInCU: 0x42A4, offset: 0xD2B92, size: 0x8, addend: 0x0, symName: __ZN4absl12lts_2021110213cord_internal21CordRepBtreeNavigator4ReadEmm.cold.5, symObjAddr: 0x814, symBinAddr: 0x52C30, symSize: 0x24 }
  - { offsetInCU: 0x42D1, offset: 0xD2BBF, size: 0x8, addend: 0x0, symName: __ZN4absl12lts_2021110213cord_internal21CordRepBtreeNavigator4ReadEmm.cold.8, symObjAddr: 0x884, symBinAddr: 0x52CA0, symSize: 0x28 }
  - { offsetInCU: 0x4369, offset: 0xD2C57, size: 0x8, addend: 0x0, symName: __ZN4absl12lts_2021110213cord_internal12_GLOBAL__N_19SubstringEPNS1_7CordRepEmm.cold.1, symObjAddr: 0x8F8, symBinAddr: 0x52D14, symSize: 0x28 }
  - { offsetInCU: 0x4381, offset: 0xD2C6F, size: 0x8, addend: 0x0, symName: __ZN4absl12lts_2021110213cord_internal12_GLOBAL__N_19SubstringEPNS1_7CordRepEmm.cold.5, symObjAddr: 0x998, symBinAddr: 0x52DB4, symSize: 0x28 }
  - { offsetInCU: 0x4399, offset: 0xD2C87, size: 0x8, addend: 0x0, symName: __ZN4absl12lts_2021110213cord_internal12_GLOBAL__N_19SubstringEPNS1_7CordRepEmm.cold.2, symObjAddr: 0x920, symBinAddr: 0x52D3C, symSize: 0x28 }
  - { offsetInCU: 0x43B1, offset: 0xD2C9F, size: 0x8, addend: 0x0, symName: __ZN4absl12lts_2021110213cord_internal12_GLOBAL__N_19SubstringEPNS1_7CordRepEmm.cold.4, symObjAddr: 0x970, symBinAddr: 0x52D8C, symSize: 0x28 }
  - { offsetInCU: 0x43C9, offset: 0xD2CB7, size: 0x8, addend: 0x0, symName: __ZN4absl12lts_2021110213cord_internal12_GLOBAL__N_19SubstringEPNS1_7CordRepEmm.cold.3, symObjAddr: 0x948, symBinAddr: 0x52D64, symSize: 0x28 }
  - { offsetInCU: 0x43F6, offset: 0xD2CE4, size: 0x8, addend: 0x0, symName: _OUTLINED_FUNCTION_0, symObjAddr: 0x9C0, symBinAddr: 0x1E814, symSize: 0x8 }
  - { offsetInCU: 0x440E, offset: 0xD2CFC, size: 0x8, addend: 0x0, symName: _OUTLINED_FUNCTION_1, symObjAddr: 0x9C8, symBinAddr: 0x1E81C, symSize: 0x8 }
  - { offsetInCU: 0x26, offset: 0xD2D3E, size: 0x8, addend: 0x0, symName: __ZN4absl12lts_2021110213cord_internal18CordRepBtreeReader4ReadEmmRPNS1_7CordRepE, symObjAddr: 0x0, symBinAddr: 0x1E824, symSize: 0x264 }
  - { offsetInCU: 0x2D84, offset: 0xD5A9C, size: 0x8, addend: 0x0, symName: __ZN4absl12lts_2021110213cord_internal18CordRepBtreeReader4ReadEmmRPNS1_7CordRepE, symObjAddr: 0x0, symBinAddr: 0x1E824, symSize: 0x264 }
  - { offsetInCU: 0x337E, offset: 0xD6096, size: 0x8, addend: 0x0, symName: __ZN4absl12lts_2021110213cord_internal18CordRepBtreeReader4ReadEmmRPNS1_7CordRepE.cold.1, symObjAddr: 0x3A4, symBinAddr: 0x52DDC, symSize: 0x28 }
  - { offsetInCU: 0x342D, offset: 0xD6145, size: 0x8, addend: 0x0, symName: __ZN4absl12lts_2021110213cord_internal18CordRepBtreeReader4ReadEmmRPNS1_7CordRepE.cold.1, symObjAddr: 0x3A4, symBinAddr: 0x52DDC, symSize: 0x28 }
  - { offsetInCU: 0x345A, offset: 0xD6172, size: 0x8, addend: 0x0, symName: __ZN4absl12lts_2021110213cord_internal18CordRepBtreeReader4ReadEmmRPNS1_7CordRepE.cold.2, symObjAddr: 0x3CC, symBinAddr: 0x52E04, symSize: 0x24 }
  - { offsetInCU: 0x349C, offset: 0xD61B4, size: 0x8, addend: 0x0, symName: __ZN4absl12lts_2021110213cord_internal18CordRepBtreeReader4ReadEmmRPNS1_7CordRepE.cold.15, symObjAddr: 0x5B8, symBinAddr: 0x52FF0, symSize: 0x24 }
  - { offsetInCU: 0x34DE, offset: 0xD61F6, size: 0x8, addend: 0x0, symName: __ZN4absl12lts_2021110213cord_internal18CordRepBtreeReader4ReadEmmRPNS1_7CordRepE.cold.3, symObjAddr: 0x3F0, symBinAddr: 0x52E28, symSize: 0x28 }
  - { offsetInCU: 0x34F6, offset: 0xD620E, size: 0x8, addend: 0x0, symName: __ZN4absl12lts_2021110213cord_internal18CordRepBtreeReader4ReadEmmRPNS1_7CordRepE.cold.5, symObjAddr: 0x440, symBinAddr: 0x52E78, symSize: 0x24 }
  - { offsetInCU: 0x3579, offset: 0xD6291, size: 0x8, addend: 0x0, symName: __ZN4absl12lts_2021110213cord_internal18CordRepBtreeReader4ReadEmmRPNS1_7CordRepE.cold.7, symObjAddr: 0x48C, symBinAddr: 0x52EC4, symSize: 0x28 }
  - { offsetInCU: 0x35A6, offset: 0xD62BE, size: 0x8, addend: 0x0, symName: __ZN4absl12lts_2021110213cord_internal18CordRepBtreeReader4ReadEmmRPNS1_7CordRepE.cold.8, symObjAddr: 0x4B4, symBinAddr: 0x52EEC, symSize: 0x24 }
  - { offsetInCU: 0x35E8, offset: 0xD6300, size: 0x8, addend: 0x0, symName: __ZN4absl12lts_2021110213cord_internal18CordRepBtreeReader4ReadEmmRPNS1_7CordRepE.cold.12, symObjAddr: 0x54C, symBinAddr: 0x52F84, symSize: 0x24 }
  - { offsetInCU: 0x362A, offset: 0xD6342, size: 0x8, addend: 0x0, symName: __ZN4absl12lts_2021110213cord_internal18CordRepBtreeReader4ReadEmmRPNS1_7CordRepE.cold.6, symObjAddr: 0x464, symBinAddr: 0x52E9C, symSize: 0x28 }
  - { offsetInCU: 0x366D, offset: 0xD6385, size: 0x8, addend: 0x0, symName: __ZN4absl12lts_2021110213cord_internal18CordRepBtreeReader4ReadEmmRPNS1_7CordRepE.cold.4, symObjAddr: 0x418, symBinAddr: 0x52E50, symSize: 0x28 }
  - { offsetInCU: 0x36C6, offset: 0xD63DE, size: 0x8, addend: 0x0, symName: __ZN4absl12lts_2021110213cord_internal18CordRepBtreeReader4ReadEmmRPNS1_7CordRepE.cold.10, symObjAddr: 0x500, symBinAddr: 0x52F38, symSize: 0x24 }
  - { offsetInCU: 0x3749, offset: 0xD6461, size: 0x8, addend: 0x0, symName: __ZN4absl12lts_2021110213cord_internal18CordRepBtreeReader4ReadEmmRPNS1_7CordRepE.cold.13, symObjAddr: 0x570, symBinAddr: 0x52FA8, symSize: 0x24 }
  - { offsetInCU: 0x378B, offset: 0xD64A3, size: 0x8, addend: 0x0, symName: __ZN4absl12lts_2021110213cord_internal18CordRepBtreeReader4ReadEmmRPNS1_7CordRepE.cold.14, symObjAddr: 0x594, symBinAddr: 0x52FCC, symSize: 0x24 }
  - { offsetInCU: 0x37CD, offset: 0xD64E5, size: 0x8, addend: 0x0, symName: __ZN4absl12lts_2021110213cord_internal18CordRepBtreeReader4ReadEmmRPNS1_7CordRepE.cold.11, symObjAddr: 0x524, symBinAddr: 0x52F5C, symSize: 0x28 }
  - { offsetInCU: 0x3810, offset: 0xD6528, size: 0x8, addend: 0x0, symName: __ZN4absl12lts_2021110213cord_internal18CordRepBtreeReader4ReadEmmRPNS1_7CordRepE.cold.9, symObjAddr: 0x4D8, symBinAddr: 0x52F10, symSize: 0x28 }
  - { offsetInCU: 0x395A, offset: 0xD6672, size: 0x8, addend: 0x0, symName: _OUTLINED_FUNCTION_0, symObjAddr: 0x6E0, symBinAddr: 0x1EA88, symSize: 0x8 }
  - { offsetInCU: 0x3972, offset: 0xD668A, size: 0x8, addend: 0x0, symName: _OUTLINED_FUNCTION_1, symObjAddr: 0x6E8, symBinAddr: 0x1EA90, symSize: 0x8 }
  - { offsetInCU: 0x398A, offset: 0xD66A2, size: 0x8, addend: 0x0, symName: _OUTLINED_FUNCTION_2, symObjAddr: 0x6F0, symBinAddr: 0x1EA98, symSize: 0x8 }
  - { offsetInCU: 0x44, offset: 0xD6707, size: 0x8, addend: 0x0, symName: __ZN4absl12lts_2021110213cord_internal12_GLOBAL__N_17ConsumeEbPNS1_7CordRepENS0_11FunctionRefIFvS4_mmEEE, symObjAddr: 0x14, symBinAddr: 0x1EAB4, symSize: 0x420 }
  - { offsetInCU: 0xBB1, offset: 0xD7274, size: 0x8, addend: 0x0, symName: __ZN4absl12lts_2021110213cord_internal7ConsumeEPNS1_7CordRepENS0_11FunctionRefIFvS3_mmEEE, symObjAddr: 0x0, symBinAddr: 0x1EAA0, symSize: 0x14 }
  - { offsetInCU: 0xC0E, offset: 0xD72D1, size: 0x8, addend: 0x0, symName: __ZN4absl12lts_2021110213cord_internal14ReverseConsumeEPNS1_7CordRepENS0_11FunctionRefIFvS3_mmEEE, symObjAddr: 0x434, symBinAddr: 0x1EED4, symSize: 0x14 }
  - { offsetInCU: 0x5577, offset: 0xDBC3A, size: 0x8, addend: 0x0, symName: __ZN4absl12lts_2021110213InlinedVectorIZNS0_13cord_internal12_GLOBAL__N_17ConsumeEbPNS2_7CordRepENS0_11FunctionRefIFvS5_mmEEEE5EntryLm40ENSt3__19allocatorIS9_EEE4backEv, symObjAddr: 0x498, symBinAddr: 0x1EF38, symSize: 0x3C }
  - { offsetInCU: 0x568C, offset: 0xDBD4F, size: 0x8, addend: 0x0, symName: __ZN4absl12lts_2021110213InlinedVectorIZNS0_13cord_internal12_GLOBAL__N_17ConsumeEbPNS2_7CordRepENS0_11FunctionRefIFvS5_mmEEEE5EntryLm40ENSt3__19allocatorIS9_EEE9push_backEOS9_, symObjAddr: 0x448, symBinAddr: 0x1EEE8, symSize: 0x50 }
  - { offsetInCU: 0x570A, offset: 0xDBDCD, size: 0x8, addend: 0x0, symName: __ZN4absl12lts_2021110213InlinedVectorIZNS0_13cord_internal12_GLOBAL__N_17ConsumeEbPNS2_7CordRepENS0_11FunctionRefIFvS5_mmEEEE5EntryLm40ENSt3__19allocatorIS9_EEE9push_backEOS9_, symObjAddr: 0x448, symBinAddr: 0x1EEE8, symSize: 0x50 }
  - { offsetInCU: 0x5726, offset: 0xDBDE9, size: 0x8, addend: 0x0, symName: __ZN4absl12lts_2021110213InlinedVectorIZNS0_13cord_internal12_GLOBAL__N_17ConsumeEbPNS2_7CordRepENS0_11FunctionRefIFvS5_mmEEEE5EntryLm40ENSt3__19allocatorIS9_EEE9push_backEOS9_, symObjAddr: 0x448, symBinAddr: 0x1EEE8, symSize: 0x50 }
  - { offsetInCU: 0x5959, offset: 0xDC01C, size: 0x8, addend: 0x0, symName: __ZN4absl12lts_2021110223inlined_vector_internal7StorageIZNS0_13cord_internal12_GLOBAL__N_17ConsumeEbPNS3_7CordRepENS0_11FunctionRefIFvS6_mmEEEE5EntryLm40ENSt3__19allocatorISA_EEE15EmplaceBackSlowIJSA_EEERSA_DpOT_, symObjAddr: 0x4E0, symBinAddr: 0x1EF74, symSize: 0xE4 }
  - { offsetInCU: 0x5E1D, offset: 0xDC4E0, size: 0x8, addend: 0x0, symName: __ZN4absl12lts_2021110213InlinedVectorIZNS0_13cord_internal12_GLOBAL__N_17ConsumeEbPNS2_7CordRepENS0_11FunctionRefIFvS5_mmEEEE5EntryLm40ENSt3__19allocatorIS9_EEE4backEv.cold.1, symObjAddr: 0x5EC, symBinAddr: 0x53014, symSize: 0x28 }
  - { offsetInCU: 0x5C, offset: 0xDC703, size: 0x8, addend: 0x0, symName: __ZN4absl12lts_2021110213cord_internal11CordRepRing12kMaxCapacityE, symObjAddr: 0x4C60, symBinAddr: 0x5A9C0, symSize: 0x0 }
  - { offsetInCU: 0xBEB, offset: 0xDD292, size: 0x8, addend: 0x0, symName: __ZN4absl12lts_2021110213cord_internal12_GLOBAL__N_112UnrefEntriesEPKNS1_11CordRepRingEjj, symObjAddr: 0x8B0, symBinAddr: 0x1F908, symSize: 0x90 }
  - { offsetInCU: 0xD53, offset: 0xDD3FA, size: 0x8, addend: 0x0, symName: __ZN4absl12lts_2021110213cord_internal12_GLOBAL__N_110CreateFlatEPKcmm, symObjAddr: 0x1A24, symBinAddr: 0x20A7C, symSize: 0x54 }
  - { offsetInCU: 0xD9B, offset: 0xDD442, size: 0x8, addend: 0x0, symName: __ZN4absl12lts_2021110213cord_internal11CordRepRing6Filler3AddEPNS1_7CordRepEmm, symObjAddr: 0x1A78, symBinAddr: 0x20AD0, symSize: 0x78 }
  - { offsetInCU: 0xDCE, offset: 0xDD475, size: 0x8, addend: 0x0, symName: __ZN4absl12lts_2021110213cord_internallsERNSt3__113basic_ostreamIcNS2_11char_traitsIcEEEERKNS1_11CordRepRingE, symObjAddr: 0x0, symBinAddr: 0x1F058, symSize: 0x288 }
  - { offsetInCU: 0x1434, offset: 0xDDADB, size: 0x8, addend: 0x0, symName: __ZNK4absl12lts_2021110213cord_internal11CordRepRing11entry_childEj, symObjAddr: 0x288, symBinAddr: 0x1F2E0, symSize: 0x5C }
  - { offsetInCU: 0x2017, offset: 0xDE6BE, size: 0x8, addend: 0x0, symName: '__ZN4absl12lts_2021110219functional_internal12InvokeObjectIZNS0_13cord_internal11CordRepRing10CreateSlowEPNS3_7CordRepEmE3$_0vJS6_mmEEET0_NS1_7VoidPtrEDpNS1_8ForwardTIT1_E4typeE', symObjAddr: 0x30EC, symBinAddr: 0x21CB8, symSize: 0xD8 }
  - { offsetInCU: 0x21A4, offset: 0xDE84B, size: 0x8, addend: 0x0, symName: '__ZN4absl12lts_2021110219functional_internal12InvokeObjectIZNS0_13cord_internal11CordRepRing10AppendSlowEPS4_PNS3_7CordRepEE3$_1vJS7_mmEEET0_NS1_7VoidPtrEDpNS1_8ForwardTIT1_E4typeE', symObjAddr: 0x31C4, symBinAddr: 0x21D90, symSize: 0x44 }
  - { offsetInCU: 0x21D6, offset: 0xDE87D, size: 0x8, addend: 0x0, symName: '__ZN4absl12lts_2021110219functional_internal12InvokeObjectIZNS0_13cord_internal11CordRepRing10AppendSlowEPS4_PNS3_7CordRepEE3$_1vJS7_mmEEET0_NS1_7VoidPtrEDpNS1_8ForwardTIT1_E4typeE', symObjAddr: 0x31C4, symBinAddr: 0x21D90, symSize: 0x44 }
  - { offsetInCU: 0x22F8, offset: 0xDE99F, size: 0x8, addend: 0x0, symName: '__ZN4absl12lts_2021110219functional_internal12InvokeObjectIZNS0_13cord_internal11CordRepRing11PrependSlowEPS4_PNS3_7CordRepEE3$_2vJS7_mmEEET0_NS1_7VoidPtrEDpNS1_8ForwardTIT1_E4typeE', symObjAddr: 0x34A0, symBinAddr: 0x2206C, symSize: 0x58 }
  - { offsetInCU: 0x2428, offset: 0xDEACF, size: 0x8, addend: 0x0, symName: __ZN4absl12lts_2021110213cord_internallsERNSt3__113basic_ostreamIcNS2_11char_traitsIcEEEERKNS1_11CordRepRingE.cold.1, symObjAddr: 0x34F8, symBinAddr: 0x5303C, symSize: 0x24 }
  - { offsetInCU: 0x59D2, offset: 0xE2079, size: 0x8, addend: 0x0, symName: __ZN4absl12lts_2021110213cord_internal11CordRepRing10CreateSlowEPNS1_7CordRepEm, symObjAddr: 0xF5C, symBinAddr: 0x1FFB4, symSize: 0x40 }
  - { offsetInCU: 0x5A71, offset: 0xE2118, size: 0x8, addend: 0x0, symName: __ZN4absl12lts_2021110213cord_internal11CordRepRing10AppendSlowEPS2_PNS1_7CordRepE, symObjAddr: 0x1018, symBinAddr: 0x20070, symSize: 0x3C }
  - { offsetInCU: 0x5AF0, offset: 0xE2197, size: 0x8, addend: 0x0, symName: __ZN4absl12lts_2021110213cord_internal11CordRepRing11PrependSlowEPS2_PNS1_7CordRepE, symObjAddr: 0x144C, symBinAddr: 0x204A4, symSize: 0x3C }
  - { offsetInCU: 0x7A80, offset: 0xE4127, size: 0x8, addend: 0x0, symName: __ZNK4absl12lts_2021110213cord_internal11CordRepRing11entry_childEj, symObjAddr: 0x288, symBinAddr: 0x1F2E0, symSize: 0x5C }
  - { offsetInCU: 0x7B03, offset: 0xE41AA, size: 0x8, addend: 0x0, symName: __ZNK4absl12lts_2021110213cord_internal11CordRepRing17entry_data_offsetEj, symObjAddr: 0x2E4, symBinAddr: 0x1F33C, symSize: 0x5C }
  - { offsetInCU: 0x7B0E, offset: 0xE41B5, size: 0x8, addend: 0x0, symName: __ZNK4absl12lts_2021110213cord_internal11CordRepRing15entry_begin_posEj, symObjAddr: 0xDBC, symBinAddr: 0x1FE14, symSize: 0x44 }
  - { offsetInCU: 0x7B72, offset: 0xE4219, size: 0x8, addend: 0x0, symName: __ZN4absl12lts_2021110213cord_internal11CordRepRing16GetPrependBufferEm, symObjAddr: 0xE00, symBinAddr: 0x1FE58, symSize: 0xE4 }
  - { offsetInCU: 0x7B7D, offset: 0xE4224, size: 0x8, addend: 0x0, symName: __ZNK4absl12lts_2021110213cord_internal11CordRepRing13entry_end_posEj, symObjAddr: 0x340, symBinAddr: 0x1F398, symSize: 0x58 }
  - { offsetInCU: 0x7C04, offset: 0xE42AB, size: 0x8, addend: 0x0, symName: __ZN4absl12lts_2021110213cord_internal11CordRepRing13AddDataOffsetEjm, symObjAddr: 0x398, symBinAddr: 0x1F3F0, symSize: 0x34 }
  - { offsetInCU: 0x7C0F, offset: 0xE42B6, size: 0x8, addend: 0x0, symName: __ZNK4absl12lts_2021110213cord_internal11CordRepRing17entry_data_offsetEj, symObjAddr: 0x2E4, symBinAddr: 0x1F33C, symSize: 0x5C }
  - { offsetInCU: 0x7C92, offset: 0xE4339, size: 0x8, addend: 0x0, symName: __ZNK4absl12lts_2021110213cord_internal11CordRepRing13entry_end_posEj, symObjAddr: 0x340, symBinAddr: 0x1F398, symSize: 0x58 }
  - { offsetInCU: 0x7C9D, offset: 0xE4344, size: 0x8, addend: 0x0, symName: __ZN4absl12lts_2021110213cord_internallsERNSt3__113basic_ostreamIcNS2_11char_traitsIcEEEERKNS1_11CordRepRingE.cold.1, symObjAddr: 0x34F8, symBinAddr: 0x5303C, symSize: 0x24 }
  - { offsetInCU: 0x7D34, offset: 0xE43DB, size: 0x8, addend: 0x0, symName: __ZNK4absl12lts_2021110213cord_internal11CordRepRing11entry_childEj.cold.2, symObjAddr: 0x3540, symBinAddr: 0x53084, symSize: 0x28 }
  - { offsetInCU: 0x7D4C, offset: 0xE43F3, size: 0x8, addend: 0x0, symName: __ZNK4absl12lts_2021110213cord_internal11CordRepRing11entry_childEj.cold.1, symObjAddr: 0x351C, symBinAddr: 0x53060, symSize: 0x24 }
  - { offsetInCU: 0x7DDA, offset: 0xE4481, size: 0x8, addend: 0x0, symName: __ZNK4absl12lts_2021110213cord_internal11CordRepRing17entry_data_offsetEj.cold.2, symObjAddr: 0x358C, symBinAddr: 0x530D0, symSize: 0x28 }
  - { offsetInCU: 0x7DF2, offset: 0xE4499, size: 0x8, addend: 0x0, symName: __ZNK4absl12lts_2021110213cord_internal11CordRepRing17entry_data_offsetEj.cold.1, symObjAddr: 0x3568, symBinAddr: 0x530AC, symSize: 0x24 }
  - { offsetInCU: 0x7E74, offset: 0xE451B, size: 0x8, addend: 0x0, symName: __ZNK4absl12lts_2021110213cord_internal11CordRepRing13entry_end_posEj.cold.2, symObjAddr: 0x35D8, symBinAddr: 0x5311C, symSize: 0x28 }
  - { offsetInCU: 0x7E8C, offset: 0xE4533, size: 0x8, addend: 0x0, symName: __ZNK4absl12lts_2021110213cord_internal11CordRepRing13entry_end_posEj.cold.1, symObjAddr: 0x35B4, symBinAddr: 0x530F8, symSize: 0x24 }
  - { offsetInCU: 0x7F26, offset: 0xE45CD, size: 0x8, addend: 0x0, symName: __ZN4absl12lts_2021110213cord_internal11CordRepRing13AddDataOffsetEjm, symObjAddr: 0x398, symBinAddr: 0x1F3F0, symSize: 0x34 }
  - { offsetInCU: 0x7FAB, offset: 0xE4652, size: 0x8, addend: 0x0, symName: __ZN4absl12lts_2021110213cord_internal11CordRepRing9SubLengthEjm, symObjAddr: 0x3CC, symBinAddr: 0x1F424, symSize: 0x2C }
  - { offsetInCU: 0x7FB6, offset: 0xE465D, size: 0x8, addend: 0x0, symName: __ZN4absl12lts_2021110213cord_internal11CordRepRing13AddDataOffsetEjm.cold.1, symObjAddr: 0x3600, symBinAddr: 0x53144, symSize: 0x24 }
  - { offsetInCU: 0x8050, offset: 0xE46F7, size: 0x8, addend: 0x0, symName: __ZN4absl12lts_2021110213cord_internal11CordRepRing9SubLengthEjm, symObjAddr: 0x3CC, symBinAddr: 0x1F424, symSize: 0x2C }
  - { offsetInCU: 0x80BC, offset: 0xE4763, size: 0x8, addend: 0x0, symName: __ZNK4absl12lts_2021110213cord_internal11CordRepRing7IsValidERNSt3__113basic_ostreamIcNS3_11char_traitsIcEEEE, symObjAddr: 0x3F8, symBinAddr: 0x1F450, symSize: 0x344 }
  - { offsetInCU: 0x80C7, offset: 0xE476E, size: 0x8, addend: 0x0, symName: __ZN4absl12lts_2021110213cord_internal11CordRepRing9SubLengthEjm.cold.1, symObjAddr: 0x3624, symBinAddr: 0x53168, symSize: 0x24 }
  - { offsetInCU: 0x812E, offset: 0xE47D5, size: 0x8, addend: 0x0, symName: __ZNK4absl12lts_2021110213cord_internal11CordRepRing7IsValidERNSt3__113basic_ostreamIcNS3_11char_traitsIcEEEE, symObjAddr: 0x3F8, symBinAddr: 0x1F450, symSize: 0x344 }
  - { offsetInCU: 0x8798, offset: 0xE4E3F, size: 0x8, addend: 0x0, symName: __ZN4absl12lts_2021110213cord_internal11CordRepRing3NewEmm, symObjAddr: 0x73C, symBinAddr: 0x1F794, symSize: 0x60 }
  - { offsetInCU: 0x87A3, offset: 0xE4E4A, size: 0x8, addend: 0x0, symName: __ZNK4absl12lts_2021110213cord_internal11CordRepRing7IsValidERNSt3__113basic_ostreamIcNS3_11char_traitsIcEEEE.cold.1, symObjAddr: 0x3648, symBinAddr: 0x5318C, symSize: 0x24 }
  - { offsetInCU: 0x89A8, offset: 0xE504F, size: 0x8, addend: 0x0, symName: __ZN4absl12lts_2021110213cord_internal11CordRepRing3NewEmm, symObjAddr: 0x73C, symBinAddr: 0x1F794, symSize: 0x60 }
  - { offsetInCU: 0x8BE8, offset: 0xE528F, size: 0x8, addend: 0x0, symName: __ZN4absl12lts_2021110213cord_internal11CordRepRing21SetCapacityForTestingEm, symObjAddr: 0x79C, symBinAddr: 0x1F7F4, symSize: 0xC8 }
  - { offsetInCU: 0x8C97, offset: 0xE533E, size: 0x8, addend: 0x0, symName: __ZN4absl12lts_2021110213cord_internal11CordRepRing21SetCapacityForTestingEm, symObjAddr: 0x79C, symBinAddr: 0x1F7F4, symSize: 0xC8 }
  - { offsetInCU: 0x8E35, offset: 0xE54DC, size: 0x8, addend: 0x0, symName: __ZN4absl12lts_2021110213cord_internal11CordRepRing6DeleteEPS2_, symObjAddr: 0x864, symBinAddr: 0x1F8BC, symSize: 0x24 }
  - { offsetInCU: 0x8E40, offset: 0xE54E7, size: 0x8, addend: 0x0, symName: __ZNK4absl12lts_2021110213cord_internal11CordRepRing7entriesEjj, symObjAddr: 0x9DC, symBinAddr: 0x1FA34, symSize: 0x30 }
  - { offsetInCU: 0x8E87, offset: 0xE552E, size: 0x8, addend: 0x0, symName: __ZN4absl12lts_2021110213cord_internal11CordRepRing4FillILb1EEEvPKS2_jj, symObjAddr: 0xA0C, symBinAddr: 0x1FA64, symSize: 0xD0 }
  - { offsetInCU: 0x8E92, offset: 0xE5539, size: 0x8, addend: 0x0, symName: __ZN4absl12lts_2021110213cord_internal11CordRepRing21SetCapacityForTestingEm.cold.1, symObjAddr: 0x366C, symBinAddr: 0x531B0, symSize: 0x28 }
  - { offsetInCU: 0x8EAA, offset: 0xE5551, size: 0x8, addend: 0x0, symName: __ZN4absl12lts_2021110213cord_internal11CordRepRing21SetCapacityForTestingEm.cold.2, symObjAddr: 0x3694, symBinAddr: 0x531D8, symSize: 0x24 }
  - { offsetInCU: 0x8ED7, offset: 0xE557E, size: 0x8, addend: 0x0, symName: __ZN4absl12lts_2021110213cord_internal11CordRepRing21SetCapacityForTestingEm.cold.3, symObjAddr: 0x36B8, symBinAddr: 0x531FC, symSize: 0x28 }
  - { offsetInCU: 0x8F05, offset: 0xE55AC, size: 0x8, addend: 0x0, symName: __ZN4absl12lts_2021110213cord_internal11CordRepRing6DeleteEPS2_, symObjAddr: 0x864, symBinAddr: 0x1F8BC, symSize: 0x24 }
  - { offsetInCU: 0x8F56, offset: 0xE55FD, size: 0x8, addend: 0x0, symName: __ZN4absl12lts_2021110213cord_internal11CordRepRing7DestroyEPS2_, symObjAddr: 0x888, symBinAddr: 0x1F8E0, symSize: 0x28 }
  - { offsetInCU: 0x8F72, offset: 0xE5619, size: 0x8, addend: 0x0, symName: __ZN4absl12lts_2021110213cord_internal11CordRepRing6DeleteEPS2_.cold.1, symObjAddr: 0x36E0, symBinAddr: 0x53224, symSize: 0x28 }
  - { offsetInCU: 0x8F8A, offset: 0xE5631, size: 0x8, addend: 0x0, symName: __ZN4absl12lts_2021110213cord_internal11CordRepRing7DestroyEPS2_, symObjAddr: 0x888, symBinAddr: 0x1F8E0, symSize: 0x28 }
  - { offsetInCU: 0x9072, offset: 0xE5719, size: 0x8, addend: 0x0, symName: '__ZZN4absl12lts_2021110213cord_internal12_GLOBAL__N_112UnrefEntriesEPKNS1_11CordRepRingEjjENK3$_3clEj', symObjAddr: 0x26D4, symBinAddr: 0x21694, symSize: 0xA4 }
  - { offsetInCU: 0x925B, offset: 0xE5902, size: 0x8, addend: 0x0, symName: __ZN4absl12lts_2021110213cord_internal11CordRepRing4CopyEPS2_jjm, symObjAddr: 0x940, symBinAddr: 0x1F998, symSize: 0x9C }
  - { offsetInCU: 0x93BC, offset: 0xE5A63, size: 0x8, addend: 0x0, symName: __ZN4absl12lts_2021110213cord_internal11CordRepRing4FillILb1EEEvPKS2_jj, symObjAddr: 0xA0C, symBinAddr: 0x1FA64, symSize: 0xD0 }
  - { offsetInCU: 0x95AD, offset: 0xE5C54, size: 0x8, addend: 0x0, symName: __ZN4absl12lts_2021110213cord_internal11CordRepRing7MutableEPS2_m, symObjAddr: 0xADC, symBinAddr: 0x1FB34, symSize: 0x9C }
  - { offsetInCU: 0x95C2, offset: 0xE5C69, size: 0x8, addend: 0x0, symName: __ZN4absl12lts_2021110213cord_internal11CordRepRing4CopyEPS2_jjm.cold.1, symObjAddr: 0x3708, symBinAddr: 0x5324C, symSize: 0x24 }
  - { offsetInCU: 0x95F0, offset: 0xE5C97, size: 0x8, addend: 0x0, symName: __ZN4absl12lts_2021110213cord_internal11CordRepRing4CopyEPS2_jjm.cold.2, symObjAddr: 0x372C, symBinAddr: 0x53270, symSize: 0x24 }
  - { offsetInCU: 0x9634, offset: 0xE5CDB, size: 0x8, addend: 0x0, symName: __ZNK4absl12lts_2021110213cord_internal11CordRepRing7entriesEjj.cold.1, symObjAddr: 0x3750, symBinAddr: 0x53294, symSize: 0x28 }
  - { offsetInCU: 0x96AC, offset: 0xE5D53, size: 0x8, addend: 0x0, symName: __ZNK4absl12lts_2021110213cord_internal11CordRepRing7ForEachIZNS2_4FillILb1EEEvPKS2_jjEUljE_EEvjjOT_, symObjAddr: 0x2B6C, symBinAddr: 0x21738, symSize: 0x190 }
  - { offsetInCU: 0x9924, offset: 0xE5FCB, size: 0x8, addend: 0x0, symName: __ZNK4absl12lts_2021110213cord_internal11CordRepRing7ForEachIZNS2_4FillILb0EEEvPKS2_jjEUljE_EEvjjOT_, symObjAddr: 0x2CFC, symBinAddr: 0x218C8, symSize: 0x158 }
  - { offsetInCU: 0x9938, offset: 0xE5FDF, size: 0x8, addend: 0x0, symName: __ZN4absl12lts_2021110213cord_internal11CordRepRing4FillILb1EEEvPKS2_jj.cold.1, symObjAddr: 0x3778, symBinAddr: 0x532BC, symSize: 0x24 }
  - { offsetInCU: 0x9965, offset: 0xE600C, size: 0x8, addend: 0x0, symName: __ZN4absl12lts_2021110213cord_internal11CordRepRing4FillILb1EEEvPKS2_jj.cold.2, symObjAddr: 0x379C, symBinAddr: 0x532E0, symSize: 0x24 }
  - { offsetInCU: 0x99BF, offset: 0xE6066, size: 0x8, addend: 0x0, symName: __ZN4absl12lts_2021110213cord_internal11CordRepRing7MutableEPS2_m, symObjAddr: 0xADC, symBinAddr: 0x1FB34, symSize: 0x9C }
  - { offsetInCU: 0x9B7F, offset: 0xE6226, size: 0x8, addend: 0x0, symName: __ZN4absl12lts_2021110213cord_internal11CordRepRing4FillILb0EEEvPKS2_jj, symObjAddr: 0xB78, symBinAddr: 0x1FBD0, symSize: 0xD0 }
  - { offsetInCU: 0x9D70, offset: 0xE6417, size: 0x8, addend: 0x0, symName: __ZN4absl12lts_2021110213cord_internal11CordRepRing15GetAppendBufferEm, symObjAddr: 0xC48, symBinAddr: 0x1FCA0, symSize: 0x174 }
  - { offsetInCU: 0x9D8B, offset: 0xE6432, size: 0x8, addend: 0x0, symName: __ZNK4absl12lts_2021110213cord_internal11CordRepRing7ForEachIZNS2_4FillILb0EEEvPKS2_jjEUljE_EEvjjOT_, symObjAddr: 0x2CFC, symBinAddr: 0x218C8, symSize: 0x158 }
  - { offsetInCU: 0x9F07, offset: 0xE65AE, size: 0x8, addend: 0x0, symName: __ZN4absl12lts_2021110213cord_internal11CordRepRing4FillILb0EEEvPKS2_jj.cold.1, symObjAddr: 0x37C0, symBinAddr: 0x53304, symSize: 0x24 }
  - { offsetInCU: 0x9F34, offset: 0xE65DB, size: 0x8, addend: 0x0, symName: __ZN4absl12lts_2021110213cord_internal11CordRepRing4FillILb0EEEvPKS2_jj.cold.2, symObjAddr: 0x37E4, symBinAddr: 0x53328, symSize: 0x24 }
  - { offsetInCU: 0x9FBC, offset: 0xE6663, size: 0x8, addend: 0x0, symName: __ZN4absl12lts_2021110213cord_internal11CordRepRing15GetAppendBufferEm, symObjAddr: 0xC48, symBinAddr: 0x1FCA0, symSize: 0x174 }
  - { offsetInCU: 0xA2EA, offset: 0xE6991, size: 0x8, addend: 0x0, symName: __ZNK4absl12lts_2021110213cord_internal11CordRepRing15entry_begin_posEj, symObjAddr: 0xDBC, symBinAddr: 0x1FE14, symSize: 0x44 }
  - { offsetInCU: 0xA2F5, offset: 0xE699C, size: 0x8, addend: 0x0, symName: __ZN4absl12lts_2021110213cord_internal11CordRepRing15GetAppendBufferEm.cold.5, symObjAddr: 0x3898, symBinAddr: 0x533DC, symSize: 0x28 }
  - { offsetInCU: 0xA30D, offset: 0xE69B4, size: 0x8, addend: 0x0, symName: __ZN4absl12lts_2021110213cord_internal11CordRepRing15GetAppendBufferEm.cold.4, symObjAddr: 0x3874, symBinAddr: 0x533B8, symSize: 0x24 }
  - { offsetInCU: 0xA33B, offset: 0xE69E2, size: 0x8, addend: 0x0, symName: __ZN4absl12lts_2021110213cord_internal11CordRepRing15GetAppendBufferEm.cold.1, symObjAddr: 0x3808, symBinAddr: 0x5334C, symSize: 0x24 }
  - { offsetInCU: 0xA369, offset: 0xE6A10, size: 0x8, addend: 0x0, symName: __ZN4absl12lts_2021110213cord_internal11CordRepRing15GetAppendBufferEm.cold.3, symObjAddr: 0x3850, symBinAddr: 0x53394, symSize: 0x24 }
  - { offsetInCU: 0xA3AD, offset: 0xE6A54, size: 0x8, addend: 0x0, symName: __ZN4absl12lts_2021110213cord_internal11CordRepRing15GetAppendBufferEm.cold.2, symObjAddr: 0x382C, symBinAddr: 0x53370, symSize: 0x24 }
  - { offsetInCU: 0xA3DB, offset: 0xE6A82, size: 0x8, addend: 0x0, symName: __ZNK4absl12lts_2021110213cord_internal11CordRepRing15entry_begin_posEj.cold.1, symObjAddr: 0x38C0, symBinAddr: 0x53404, symSize: 0x24 }
  - { offsetInCU: 0xA409, offset: 0xE6AB0, size: 0x8, addend: 0x0, symName: __ZN4absl12lts_2021110213cord_internal11CordRepRing16GetPrependBufferEm, symObjAddr: 0xE00, symBinAddr: 0x1FE58, symSize: 0xE4 }
  - { offsetInCU: 0xA5F2, offset: 0xE6C99, size: 0x8, addend: 0x0, symName: __ZN4absl12lts_2021110213cord_internal11CordRepRing14CreateFromLeafEPNS1_7CordRepEmmm, symObjAddr: 0xEE4, symBinAddr: 0x1FF3C, symSize: 0x78 }
  - { offsetInCU: 0xA5FD, offset: 0xE6CA4, size: 0x8, addend: 0x0, symName: __ZN4absl12lts_2021110213cord_internal11CordRepRing16GetPrependBufferEm.cold.3, symObjAddr: 0x392C, symBinAddr: 0x53470, symSize: 0x28 }
  - { offsetInCU: 0xA615, offset: 0xE6CBC, size: 0x8, addend: 0x0, symName: __ZN4absl12lts_2021110213cord_internal11CordRepRing16GetPrependBufferEm.cold.2, symObjAddr: 0x3908, symBinAddr: 0x5344C, symSize: 0x24 }
  - { offsetInCU: 0xA659, offset: 0xE6D00, size: 0x8, addend: 0x0, symName: __ZN4absl12lts_2021110213cord_internal11CordRepRing16GetPrependBufferEm.cold.1, symObjAddr: 0x38E4, symBinAddr: 0x53428, symSize: 0x24 }
  - { offsetInCU: 0xA6AD, offset: 0xE6D54, size: 0x8, addend: 0x0, symName: __ZN4absl12lts_2021110213cord_internal11CordRepRing14CreateFromLeafEPNS1_7CordRepEmmm, symObjAddr: 0xEE4, symBinAddr: 0x1FF3C, symSize: 0x78 }
  - { offsetInCU: 0xA7ED, offset: 0xE6E94, size: 0x8, addend: 0x0, symName: __ZN4absl12lts_2021110213cord_internal11CordRepRing10CreateSlowEPNS1_7CordRepEm, symObjAddr: 0xF5C, symBinAddr: 0x1FFB4, symSize: 0x40 }
  - { offsetInCU: 0xA7F8, offset: 0xE6E9F, size: 0x8, addend: 0x0, symName: __ZN4absl12lts_2021110213cord_internal11CordRepRing14CreateFromLeafEPNS1_7CordRepEmmm.cold.1, symObjAddr: 0x3954, symBinAddr: 0x53498, symSize: 0x24 }
  - { offsetInCU: 0xA826, offset: 0xE6ECD, size: 0x8, addend: 0x0, symName: __ZN4absl12lts_2021110213cord_internal11CordRepRing14CreateFromLeafEPNS1_7CordRepEmmm.cold.2, symObjAddr: 0x3978, symBinAddr: 0x534BC, symSize: 0x24 }
  - { offsetInCU: 0xA8AF, offset: 0xE6F56, size: 0x8, addend: 0x0, symName: __ZN4absl12lts_2021110213cord_internal11CordRepRing6CreateEPNS1_7CordRepEm, symObjAddr: 0xF9C, symBinAddr: 0x1FFF4, symSize: 0x7C }
  - { offsetInCU: 0xA995, offset: 0xE703C, size: 0x8, addend: 0x0, symName: __ZN4absl12lts_2021110213cord_internal11CordRepRing10AppendLeafEPS2_PNS1_7CordRepEmm, symObjAddr: 0x1054, symBinAddr: 0x200AC, symSize: 0x8C }
  - { offsetInCU: 0xAACD, offset: 0xE7174, size: 0x8, addend: 0x0, symName: __ZN4absl12lts_2021110213cord_internal11CordRepRing6AppendEPS2_PNS1_7CordRepE, symObjAddr: 0x10E0, symBinAddr: 0x20138, symSize: 0x7C }
  - { offsetInCU: 0xAAD8, offset: 0xE717F, size: 0x8, addend: 0x0, symName: __ZN4absl12lts_2021110213cord_internal11CordRepRing10AppendLeafEPS2_PNS1_7CordRepEmm.cold.2, symObjAddr: 0x39C0, symBinAddr: 0x53504, symSize: 0x24 }
  - { offsetInCU: 0xAB06, offset: 0xE71AD, size: 0x8, addend: 0x0, symName: __ZN4absl12lts_2021110213cord_internal11CordRepRing10AppendLeafEPS2_PNS1_7CordRepEmm.cold.1, symObjAddr: 0x399C, symBinAddr: 0x534E0, symSize: 0x24 }
  - { offsetInCU: 0xAB6D, offset: 0xE7214, size: 0x8, addend: 0x0, symName: __ZN4absl12lts_2021110213cord_internal11CordRepRing6AppendEPS2_PNS1_7CordRepE, symObjAddr: 0x10E0, symBinAddr: 0x20138, symSize: 0x7C }
  - { offsetInCU: 0xAC50, offset: 0xE72F7, size: 0x8, addend: 0x0, symName: __ZN4absl12lts_2021110213cord_internal11CordRepRing7AddRingILNS2_7AddModeE0EEEPS2_S5_S5_mm, symObjAddr: 0x115C, symBinAddr: 0x201B4, symSize: 0x2F0 }
  - { offsetInCU: 0xB370, offset: 0xE7A17, size: 0x8, addend: 0x0, symName: __ZNK4absl12lts_2021110213cord_internal11CordRepRing8FindSlowEjm, symObjAddr: 0x1D68, symBinAddr: 0x20D28, symSize: 0xD8 }
  - { offsetInCU: 0xB504, offset: 0xE7BAB, size: 0x8, addend: 0x0, symName: __ZNK4absl12lts_2021110213cord_internal11CordRepRing10FindBinaryILb0EEEjjjm, symObjAddr: 0x1E40, symBinAddr: 0x20E00, symSize: 0xA8 }
  - { offsetInCU: 0xB50F, offset: 0xE7BB6, size: 0x8, addend: 0x0, symName: __ZNK4absl12lts_2021110213cord_internal11CordRepRing12FindTailSlowEjm, symObjAddr: 0x1FD8, symBinAddr: 0x20F98, symSize: 0xE4 }
  - { offsetInCU: 0xB66E, offset: 0xE7D15, size: 0x8, addend: 0x0, symName: __ZNK4absl12lts_2021110213cord_internal11CordRepRing12GetCharacterEm, symObjAddr: 0x20BC, symBinAddr: 0x2107C, symSize: 0x100 }
  - { offsetInCU: 0xB684, offset: 0xE7D2B, size: 0x8, addend: 0x0, symName: __ZNK4absl12lts_2021110213cord_internal11CordRepRing7ForEachIZNS2_7AddRingILNS2_7AddModeE0EEEPS2_S6_S6_mmEUljE_EEvjjOT_, symObjAddr: 0x2E54, symBinAddr: 0x21A20, symSize: 0x130 }
  - { offsetInCU: 0xB834, offset: 0xE7EDB, size: 0x8, addend: 0x0, symName: __ZNK4absl12lts_2021110213cord_internal11CordRepRing7ForEachIZNS2_7AddRingILNS2_7AddModeE0EEEPS2_S6_S6_mmEUljE0_EEvjjOT_, symObjAddr: 0x2F84, symBinAddr: 0x21B50, symSize: 0x168 }
  - { offsetInCU: 0xBAEC, offset: 0xE8193, size: 0x8, addend: 0x0, symName: '__ZN4absl12lts_2021110219functional_internal12InvokeObjectIZNS0_13cord_internal11CordRepRing10CreateSlowEPNS3_7CordRepEmE3$_0vJS6_mmEEET0_NS1_7VoidPtrEDpNS1_8ForwardTIT1_E4typeE', symObjAddr: 0x30EC, symBinAddr: 0x21CB8, symSize: 0xD8 }
  - { offsetInCU: 0xBB00, offset: 0xE81A7, size: 0x8, addend: 0x0, symName: __ZN4absl12lts_2021110213cord_internal11CordRepRing7AddRingILNS2_7AddModeE0EEEPS2_S5_S5_mm.cold.2, symObjAddr: 0x3A08, symBinAddr: 0x5354C, symSize: 0x24 }
  - { offsetInCU: 0xBB2E, offset: 0xE81D5, size: 0x8, addend: 0x0, symName: __ZN4absl12lts_2021110213cord_internal11CordRepRing7AddRingILNS2_7AddModeE0EEEPS2_S5_S5_mm.cold.1, symObjAddr: 0x39E4, symBinAddr: 0x53528, symSize: 0x24 }
  - { offsetInCU: 0xBB5C, offset: 0xE8203, size: 0x8, addend: 0x0, symName: __ZN4absl12lts_2021110213cord_internal11CordRepRing7AddRingILNS2_7AddModeE0EEEPS2_S5_S5_mm.cold.8, symObjAddr: 0x3AE0, symBinAddr: 0x53624, symSize: 0x28 }
  - { offsetInCU: 0xBB74, offset: 0xE821B, size: 0x8, addend: 0x0, symName: __ZN4absl12lts_2021110213cord_internal11CordRepRing7AddRingILNS2_7AddModeE0EEEPS2_S5_S5_mm.cold.5, symObjAddr: 0x3A74, symBinAddr: 0x535B8, symSize: 0x24 }
  - { offsetInCU: 0xBBCD, offset: 0xE8274, size: 0x8, addend: 0x0, symName: __ZN4absl12lts_2021110213cord_internal11CordRepRing7AddRingILNS2_7AddModeE0EEEPS2_S5_S5_mm.cold.4, symObjAddr: 0x3A50, symBinAddr: 0x53594, symSize: 0x24 }
  - { offsetInCU: 0xBBFB, offset: 0xE82A2, size: 0x8, addend: 0x0, symName: __ZN4absl12lts_2021110213cord_internal11CordRepRing7AddRingILNS2_7AddModeE0EEEPS2_S5_S5_mm.cold.3, symObjAddr: 0x3A2C, symBinAddr: 0x53570, symSize: 0x24 }
  - { offsetInCU: 0xBC54, offset: 0xE82FB, size: 0x8, addend: 0x0, symName: __ZN4absl12lts_2021110213cord_internal11CordRepRing7AddRingILNS2_7AddModeE0EEEPS2_S5_S5_mm.cold.6, symObjAddr: 0x3A98, symBinAddr: 0x535DC, symSize: 0x24 }
  - { offsetInCU: 0xBC82, offset: 0xE8329, size: 0x8, addend: 0x0, symName: __ZN4absl12lts_2021110213cord_internal11CordRepRing7AddRingILNS2_7AddModeE0EEEPS2_S5_S5_mm.cold.7, symObjAddr: 0x3ABC, symBinAddr: 0x53600, symSize: 0x24 }
  - { offsetInCU: 0xBCC6, offset: 0xE836D, size: 0x8, addend: 0x0, symName: __ZN4absl12lts_2021110213cord_internal11CordRepRing11PrependLeafEPS2_PNS1_7CordRepEmm, symObjAddr: 0x1488, symBinAddr: 0x204E0, symSize: 0x94 }
  - { offsetInCU: 0xBDFE, offset: 0xE84A5, size: 0x8, addend: 0x0, symName: __ZN4absl12lts_2021110213cord_internal11CordRepRing7PrependEPS2_PNS1_7CordRepE, symObjAddr: 0x151C, symBinAddr: 0x20574, symSize: 0x7C }
  - { offsetInCU: 0xBE09, offset: 0xE84B0, size: 0x8, addend: 0x0, symName: __ZN4absl12lts_2021110213cord_internal11CordRepRing11PrependLeafEPS2_PNS1_7CordRepEmm.cold.2, symObjAddr: 0x3B2C, symBinAddr: 0x53670, symSize: 0x24 }
  - { offsetInCU: 0xBE37, offset: 0xE84DE, size: 0x8, addend: 0x0, symName: __ZN4absl12lts_2021110213cord_internal11CordRepRing11PrependLeafEPS2_PNS1_7CordRepEmm.cold.1, symObjAddr: 0x3B08, symBinAddr: 0x5364C, symSize: 0x24 }
  - { offsetInCU: 0xBE9E, offset: 0xE8545, size: 0x8, addend: 0x0, symName: __ZN4absl12lts_2021110213cord_internal11CordRepRing7PrependEPS2_PNS1_7CordRepE, symObjAddr: 0x151C, symBinAddr: 0x20574, symSize: 0x7C }
  - { offsetInCU: 0xBF81, offset: 0xE8628, size: 0x8, addend: 0x0, symName: __ZN4absl12lts_2021110213cord_internal11CordRepRing7AddRingILNS2_7AddModeE1EEEPS2_S5_S5_mm, symObjAddr: 0x1598, symBinAddr: 0x205F0, symSize: 0x31C }
  - { offsetInCU: 0xC5F5, offset: 0xE8C9C, size: 0x8, addend: 0x0, symName: __ZNK4absl12lts_2021110213cord_internal11CordRepRing7ForEachIZNS2_7AddRingILNS2_7AddModeE1EEEPS2_S6_S6_mmEUljE_EEvjjOT_, symObjAddr: 0x3208, symBinAddr: 0x21DD4, symSize: 0x130 }
  - { offsetInCU: 0xC7A5, offset: 0xE8E4C, size: 0x8, addend: 0x0, symName: __ZNK4absl12lts_2021110213cord_internal11CordRepRing7ForEachIZNS2_7AddRingILNS2_7AddModeE1EEEPS2_S6_S6_mmEUljE0_EEvjjOT_, symObjAddr: 0x3338, symBinAddr: 0x21F04, symSize: 0x168 }
  - { offsetInCU: 0xCA5D, offset: 0xE9104, size: 0x8, addend: 0x0, symName: '__ZN4absl12lts_2021110219functional_internal12InvokeObjectIZNS0_13cord_internal11CordRepRing11PrependSlowEPS4_PNS3_7CordRepEE3$_2vJS7_mmEEET0_NS1_7VoidPtrEDpNS1_8ForwardTIT1_E4typeE', symObjAddr: 0x34A0, symBinAddr: 0x2206C, symSize: 0x58 }
  - { offsetInCU: 0xCA71, offset: 0xE9118, size: 0x8, addend: 0x0, symName: __ZN4absl12lts_2021110213cord_internal11CordRepRing7AddRingILNS2_7AddModeE1EEEPS2_S5_S5_mm.cold.2, symObjAddr: 0x3B74, symBinAddr: 0x536B8, symSize: 0x24 }
  - { offsetInCU: 0xCA9F, offset: 0xE9146, size: 0x8, addend: 0x0, symName: __ZN4absl12lts_2021110213cord_internal11CordRepRing7AddRingILNS2_7AddModeE1EEEPS2_S5_S5_mm.cold.1, symObjAddr: 0x3B50, symBinAddr: 0x53694, symSize: 0x24 }
  - { offsetInCU: 0xCACD, offset: 0xE9174, size: 0x8, addend: 0x0, symName: __ZN4absl12lts_2021110213cord_internal11CordRepRing7AddRingILNS2_7AddModeE1EEEPS2_S5_S5_mm.cold.9, symObjAddr: 0x3C74, symBinAddr: 0x537B8, symSize: 0x28 }
  - { offsetInCU: 0xCAE5, offset: 0xE918C, size: 0x8, addend: 0x0, symName: __ZN4absl12lts_2021110213cord_internal11CordRepRing7AddRingILNS2_7AddModeE1EEEPS2_S5_S5_mm.cold.3, symObjAddr: 0x3B98, symBinAddr: 0x536DC, symSize: 0x28 }
  - { offsetInCU: 0xCB13, offset: 0xE91BA, size: 0x8, addend: 0x0, symName: __ZN4absl12lts_2021110213cord_internal11CordRepRing7AddRingILNS2_7AddModeE1EEEPS2_S5_S5_mm.cold.6, symObjAddr: 0x3C08, symBinAddr: 0x5374C, symSize: 0x24 }
  - { offsetInCU: 0xCB6C, offset: 0xE9213, size: 0x8, addend: 0x0, symName: __ZN4absl12lts_2021110213cord_internal11CordRepRing7AddRingILNS2_7AddModeE1EEEPS2_S5_S5_mm.cold.5, symObjAddr: 0x3BE4, symBinAddr: 0x53728, symSize: 0x24 }
  - { offsetInCU: 0xCB9A, offset: 0xE9241, size: 0x8, addend: 0x0, symName: __ZN4absl12lts_2021110213cord_internal11CordRepRing7AddRingILNS2_7AddModeE1EEEPS2_S5_S5_mm.cold.4, symObjAddr: 0x3BC0, symBinAddr: 0x53704, symSize: 0x24 }
  - { offsetInCU: 0xCBF3, offset: 0xE929A, size: 0x8, addend: 0x0, symName: __ZN4absl12lts_2021110213cord_internal11CordRepRing7AddRingILNS2_7AddModeE1EEEPS2_S5_S5_mm.cold.7, symObjAddr: 0x3C2C, symBinAddr: 0x53770, symSize: 0x24 }
  - { offsetInCU: 0xCC21, offset: 0xE92C8, size: 0x8, addend: 0x0, symName: __ZN4absl12lts_2021110213cord_internal11CordRepRing7AddRingILNS2_7AddModeE1EEEPS2_S5_S5_mm.cold.8, symObjAddr: 0x3C50, symBinAddr: 0x53794, symSize: 0x24 }
  - { offsetInCU: 0xCCCA, offset: 0xE9371, size: 0x8, addend: 0x0, symName: __ZN4absl12lts_2021110213cord_internal11CordRepRing6AppendEPS2_NS0_11string_viewEm, symObjAddr: 0x18B4, symBinAddr: 0x2090C, symSize: 0x170 }
  - { offsetInCU: 0xCF76, offset: 0xE961D, size: 0x8, addend: 0x0, symName: __ZN4absl12lts_2021110213cord_internal12_GLOBAL__N_110CreateFlatEPKcmm, symObjAddr: 0x1A24, symBinAddr: 0x20A7C, symSize: 0x54 }
  - { offsetInCU: 0xD11A, offset: 0xE97C1, size: 0x8, addend: 0x0, symName: __ZNK4absl12lts_2021110213cord_internal11CordRepRing8FindSlowEjm, symObjAddr: 0x1D68, symBinAddr: 0x20D28, symSize: 0xD8 }
  - { offsetInCU: 0xD125, offset: 0xE97CC, size: 0x8, addend: 0x0, symName: __ZN4absl12lts_2021110213cord_internal11CordRepRing6Filler3AddEPNS1_7CordRepEmm, symObjAddr: 0x1A78, symBinAddr: 0x20AD0, symSize: 0x78 }
  - { offsetInCU: 0xD26D, offset: 0xE9914, size: 0x8, addend: 0x0, symName: __ZN4absl12lts_2021110213cord_internal11CordRepRing7PrependEPS2_NS0_11string_viewEm, symObjAddr: 0x1AF0, symBinAddr: 0x20B48, symSize: 0x1E0 }
  - { offsetInCU: 0xD278, offset: 0xE991F, size: 0x8, addend: 0x0, symName: __ZN4absl12lts_2021110213cord_internal11CordRepRing6AppendEPS2_NS0_11string_viewEm.cold.1, symObjAddr: 0x3C9C, symBinAddr: 0x537E0, symSize: 0x28 }
  - { offsetInCU: 0xD2BC, offset: 0xE9963, size: 0x8, addend: 0x0, symName: __ZN4absl12lts_2021110213cord_internal12_GLOBAL__N_110CreateFlatEPKcmm.cold.1, symObjAddr: 0x3CC4, symBinAddr: 0x53808, symSize: 0x28 }
  - { offsetInCU: 0xD2D4, offset: 0xE997B, size: 0x8, addend: 0x0, symName: __ZN4absl12lts_2021110213cord_internal11CordRepRing6Filler3AddEPNS1_7CordRepEmm.cold.3, symObjAddr: 0x3D34, symBinAddr: 0x53878, symSize: 0x24 }
  - { offsetInCU: 0xD317, offset: 0xE99BE, size: 0x8, addend: 0x0, symName: __ZN4absl12lts_2021110213cord_internal11CordRepRing6Filler3AddEPNS1_7CordRepEmm.cold.2, symObjAddr: 0x3D10, symBinAddr: 0x53854, symSize: 0x24 }
  - { offsetInCU: 0xD35A, offset: 0xE9A01, size: 0x8, addend: 0x0, symName: __ZN4absl12lts_2021110213cord_internal11CordRepRing6Filler3AddEPNS1_7CordRepEmm.cold.1, symObjAddr: 0x3CEC, symBinAddr: 0x53830, symSize: 0x24 }
  - { offsetInCU: 0xD3EC, offset: 0xE9A93, size: 0x8, addend: 0x0, symName: __ZN4absl12lts_2021110213cord_internal11CordRepRing7PrependEPS2_NS0_11string_viewEm, symObjAddr: 0x1AF0, symBinAddr: 0x20B48, symSize: 0x1E0 }
  - { offsetInCU: 0xD748, offset: 0xE9DEF, size: 0x8, addend: 0x0, symName: __ZN4absl12lts_2021110213cord_internal11CordRepRing7PrependEPS2_NS0_11string_viewEm.cold.3, symObjAddr: 0x3DA8, symBinAddr: 0x538EC, symSize: 0x28 }
  - { offsetInCU: 0xD760, offset: 0xE9E07, size: 0x8, addend: 0x0, symName: __ZN4absl12lts_2021110213cord_internal11CordRepRing7PrependEPS2_NS0_11string_viewEm.cold.1, symObjAddr: 0x3D58, symBinAddr: 0x5389C, symSize: 0x28 }
  - { offsetInCU: 0xD78E, offset: 0xE9E35, size: 0x8, addend: 0x0, symName: __ZN4absl12lts_2021110213cord_internal11CordRepRing7PrependEPS2_NS0_11string_viewEm.cold.2, symObjAddr: 0x3D80, symBinAddr: 0x538C4, symSize: 0x28 }
  - { offsetInCU: 0xD7D2, offset: 0xE9E79, size: 0x8, addend: 0x0, symName: __ZN4absl12lts_2021110213cord_internal11CordRepRing7PrependEPS2_NS0_11string_viewEm.cold.4, symObjAddr: 0x3DD0, symBinAddr: 0x53914, symSize: 0x28 }
  - { offsetInCU: 0xD867, offset: 0xE9F0E, size: 0x8, addend: 0x0, symName: __ZNK4absl12lts_2021110213cord_internal11CordRepRing10FindBinaryILb0EEEjjjm, symObjAddr: 0x1E40, symBinAddr: 0x20E00, symSize: 0xA8 }
  - { offsetInCU: 0xD98C, offset: 0xEA033, size: 0x8, addend: 0x0, symName: __ZNK4absl12lts_2021110213cord_internal11CordRepRing10FindBinaryILb1EEEjjjm, symObjAddr: 0x1EE8, symBinAddr: 0x20EA8, symSize: 0xF0 }
  - { offsetInCU: 0xD9A1, offset: 0xEA048, size: 0x8, addend: 0x0, symName: __ZNK4absl12lts_2021110213cord_internal11CordRepRing10FindBinaryILb1EEEjjjm, symObjAddr: 0x1EE8, symBinAddr: 0x20EA8, symSize: 0xF0 }
  - { offsetInCU: 0xDB29, offset: 0xEA1D0, size: 0x8, addend: 0x0, symName: __ZNK4absl12lts_2021110213cord_internal11CordRepRing12FindTailSlowEjm, symObjAddr: 0x1FD8, symBinAddr: 0x20F98, symSize: 0xE4 }
  - { offsetInCU: 0xDB3E, offset: 0xEA1E5, size: 0x8, addend: 0x0, symName: __ZNK4absl12lts_2021110213cord_internal11CordRepRing8FindSlowEjm.cold.1, symObjAddr: 0x3E20, symBinAddr: 0x5393C, symSize: 0x24 }
  - { offsetInCU: 0xDB8E, offset: 0xEA235, size: 0x8, addend: 0x0, symName: __ZNK4absl12lts_2021110213cord_internal11CordRepRing10FindBinaryILb0EEEjjjm.cold.2, symObjAddr: 0x3E6C, symBinAddr: 0x53988, symSize: 0x28 }
  - { offsetInCU: 0xDBA6, offset: 0xEA24D, size: 0x8, addend: 0x0, symName: __ZNK4absl12lts_2021110213cord_internal11CordRepRing10FindBinaryILb0EEEjjjm.cold.1, symObjAddr: 0x3E44, symBinAddr: 0x53960, symSize: 0x28 }
  - { offsetInCU: 0xDBBE, offset: 0xEA265, size: 0x8, addend: 0x0, symName: __ZNK4absl12lts_2021110213cord_internal11CordRepRing10FindBinaryILb1EEEjjjm.cold.4, symObjAddr: 0x3F04, symBinAddr: 0x53A20, symSize: 0x28 }
  - { offsetInCU: 0xDBD6, offset: 0xEA27D, size: 0x8, addend: 0x0, symName: __ZNK4absl12lts_2021110213cord_internal11CordRepRing10FindBinaryILb1EEEjjjm.cold.1, symObjAddr: 0x3E94, symBinAddr: 0x539B0, symSize: 0x24 }
  - { offsetInCU: 0xDC04, offset: 0xEA2AB, size: 0x8, addend: 0x0, symName: __ZNK4absl12lts_2021110213cord_internal11CordRepRing10FindBinaryILb1EEEjjjm.cold.3, symObjAddr: 0x3EE0, symBinAddr: 0x539FC, symSize: 0x24 }
  - { offsetInCU: 0xDC32, offset: 0xEA2D9, size: 0x8, addend: 0x0, symName: __ZNK4absl12lts_2021110213cord_internal11CordRepRing10FindBinaryILb1EEEjjjm.cold.2, symObjAddr: 0x3EB8, symBinAddr: 0x539D4, symSize: 0x28 }
  - { offsetInCU: 0xDC4A, offset: 0xEA2F1, size: 0x8, addend: 0x0, symName: __ZNK4absl12lts_2021110213cord_internal11CordRepRing12FindTailSlowEjm.cold.2, symObjAddr: 0x3F50, symBinAddr: 0x53A6C, symSize: 0x24 }
  - { offsetInCU: 0xDC78, offset: 0xEA31F, size: 0x8, addend: 0x0, symName: __ZNK4absl12lts_2021110213cord_internal11CordRepRing12FindTailSlowEjm.cold.1, symObjAddr: 0x3F2C, symBinAddr: 0x53A48, symSize: 0x24 }
  - { offsetInCU: 0xDD18, offset: 0xEA3BF, size: 0x8, addend: 0x0, symName: __ZNK4absl12lts_2021110213cord_internal11CordRepRing12GetCharacterEm, symObjAddr: 0x20BC, symBinAddr: 0x2107C, symSize: 0x100 }
  - { offsetInCU: 0xDEBC, offset: 0xEA563, size: 0x8, addend: 0x0, symName: __ZN4absl12lts_2021110213cord_internal11CordRepRing7SubRingEPS2_mmm, symObjAddr: 0x21BC, symBinAddr: 0x2117C, symSize: 0x27C }
  - { offsetInCU: 0xDEC7, offset: 0xEA56E, size: 0x8, addend: 0x0, symName: __ZNK4absl12lts_2021110213cord_internal11CordRepRing12GetCharacterEm.cold.4, symObjAddr: 0x3FEC, symBinAddr: 0x53B08, symSize: 0x28 }
  - { offsetInCU: 0xDEDF, offset: 0xEA586, size: 0x8, addend: 0x0, symName: __ZNK4absl12lts_2021110213cord_internal11CordRepRing12GetCharacterEm.cold.1, symObjAddr: 0x3F74, symBinAddr: 0x53A90, symSize: 0x28 }
  - { offsetInCU: 0xDF23, offset: 0xEA5CA, size: 0x8, addend: 0x0, symName: __ZNK4absl12lts_2021110213cord_internal11CordRepRing12GetCharacterEm.cold.2, symObjAddr: 0x3F9C, symBinAddr: 0x53AB8, symSize: 0x28 }
  - { offsetInCU: 0xDF67, offset: 0xEA60E, size: 0x8, addend: 0x0, symName: __ZNK4absl12lts_2021110213cord_internal11CordRepRing12GetCharacterEm.cold.3, symObjAddr: 0x3FC4, symBinAddr: 0x53AE0, symSize: 0x28 }
  - { offsetInCU: 0xDFC1, offset: 0xEA668, size: 0x8, addend: 0x0, symName: __ZN4absl12lts_2021110213cord_internal11CordRepRing7SubRingEPS2_mmm, symObjAddr: 0x21BC, symBinAddr: 0x2117C, symSize: 0x27C }
  - { offsetInCU: 0xE41A, offset: 0xEAAC1, size: 0x8, addend: 0x0, symName: __ZN4absl12lts_2021110213cord_internal11CordRepRing12RemovePrefixEPS2_mm, symObjAddr: 0x2438, symBinAddr: 0x213F8, symSize: 0x154 }
  - { offsetInCU: 0xE425, offset: 0xEAACC, size: 0x8, addend: 0x0, symName: __ZN4absl12lts_2021110213cord_internal11CordRepRing7SubRingEPS2_mmm.cold.5, symObjAddr: 0x40AC, symBinAddr: 0x53BC8, symSize: 0x24 }
  - { offsetInCU: 0xE453, offset: 0xEAAFA, size: 0x8, addend: 0x0, symName: __ZN4absl12lts_2021110213cord_internal11CordRepRing7SubRingEPS2_mmm.cold.4, symObjAddr: 0x4088, symBinAddr: 0x53BA4, symSize: 0x24 }
  - { offsetInCU: 0xE481, offset: 0xEAB28, size: 0x8, addend: 0x0, symName: __ZN4absl12lts_2021110213cord_internal11CordRepRing7SubRingEPS2_mmm.cold.1, symObjAddr: 0x4014, symBinAddr: 0x53B30, symSize: 0x28 }
  - { offsetInCU: 0xE499, offset: 0xEAB40, size: 0x8, addend: 0x0, symName: __ZN4absl12lts_2021110213cord_internal11CordRepRing7SubRingEPS2_mmm.cold.2, symObjAddr: 0x403C, symBinAddr: 0x53B58, symSize: 0x28 }
  - { offsetInCU: 0xE4B1, offset: 0xEAB58, size: 0x8, addend: 0x0, symName: __ZN4absl12lts_2021110213cord_internal11CordRepRing7SubRingEPS2_mmm.cold.9, symObjAddr: 0x413C, symBinAddr: 0x53C58, symSize: 0x28 }
  - { offsetInCU: 0xE4DF, offset: 0xEAB86, size: 0x8, addend: 0x0, symName: __ZN4absl12lts_2021110213cord_internal11CordRepRing7SubRingEPS2_mmm.cold.3, symObjAddr: 0x4064, symBinAddr: 0x53B80, symSize: 0x24 }
  - { offsetInCU: 0xE523, offset: 0xEABCA, size: 0x8, addend: 0x0, symName: __ZN4absl12lts_2021110213cord_internal11CordRepRing7SubRingEPS2_mmm.cold.8, symObjAddr: 0x4118, symBinAddr: 0x53C34, symSize: 0x24 }
  - { offsetInCU: 0xE57C, offset: 0xEAC23, size: 0x8, addend: 0x0, symName: __ZN4absl12lts_2021110213cord_internal11CordRepRing7SubRingEPS2_mmm.cold.7, symObjAddr: 0x40F4, symBinAddr: 0x53C10, symSize: 0x24 }
  - { offsetInCU: 0xE5AA, offset: 0xEAC51, size: 0x8, addend: 0x0, symName: __ZN4absl12lts_2021110213cord_internal11CordRepRing7SubRingEPS2_mmm.cold.6, symObjAddr: 0x40D0, symBinAddr: 0x53BEC, symSize: 0x24 }
  - { offsetInCU: 0xE603, offset: 0xEACAA, size: 0x8, addend: 0x0, symName: __ZN4absl12lts_2021110213cord_internal11CordRepRing12RemovePrefixEPS2_mm, symObjAddr: 0x2438, symBinAddr: 0x213F8, symSize: 0x154 }
  - { offsetInCU: 0xE864, offset: 0xEAF0B, size: 0x8, addend: 0x0, symName: __ZN4absl12lts_2021110213cord_internal11CordRepRing12RemoveSuffixEPS2_mm, symObjAddr: 0x258C, symBinAddr: 0x2154C, symSize: 0x148 }
  - { offsetInCU: 0xE86F, offset: 0xEAF16, size: 0x8, addend: 0x0, symName: __ZN4absl12lts_2021110213cord_internal11CordRepRing12RemovePrefixEPS2_mm.cold.1, symObjAddr: 0x4164, symBinAddr: 0x53C80, symSize: 0x28 }
  - { offsetInCU: 0xE887, offset: 0xEAF2E, size: 0x8, addend: 0x0, symName: __ZN4absl12lts_2021110213cord_internal11CordRepRing12RemovePrefixEPS2_mm.cold.2, symObjAddr: 0x418C, symBinAddr: 0x53CA8, symSize: 0x24 }
  - { offsetInCU: 0xE8CB, offset: 0xEAF72, size: 0x8, addend: 0x0, symName: __ZN4absl12lts_2021110213cord_internal11CordRepRing12RemovePrefixEPS2_mm.cold.4, symObjAddr: 0x41D4, symBinAddr: 0x53CF0, symSize: 0x28 }
  - { offsetInCU: 0xE8F9, offset: 0xEAFA0, size: 0x8, addend: 0x0, symName: __ZN4absl12lts_2021110213cord_internal11CordRepRing12RemovePrefixEPS2_mm.cold.3, symObjAddr: 0x41B0, symBinAddr: 0x53CCC, symSize: 0x24 }
  - { offsetInCU: 0xE976, offset: 0xEB01D, size: 0x8, addend: 0x0, symName: __ZN4absl12lts_2021110213cord_internal11CordRepRing12RemoveSuffixEPS2_mm, symObjAddr: 0x258C, symBinAddr: 0x2154C, symSize: 0x148 }
  - { offsetInCU: 0xEBD4, offset: 0xEB27B, size: 0x8, addend: 0x0, symName: '__ZZN4absl12lts_2021110213cord_internal12_GLOBAL__N_112UnrefEntriesEPKNS1_11CordRepRingEjjENK3$_3clEj', symObjAddr: 0x26D4, symBinAddr: 0x21694, symSize: 0xA4 }
  - { offsetInCU: 0xEBDF, offset: 0xEB286, size: 0x8, addend: 0x0, symName: __ZN4absl12lts_2021110213cord_internal11CordRepRing12RemoveSuffixEPS2_mm.cold.1, symObjAddr: 0x41FC, symBinAddr: 0x53D18, symSize: 0x28 }
  - { offsetInCU: 0xEBF7, offset: 0xEB29E, size: 0x8, addend: 0x0, symName: __ZN4absl12lts_2021110213cord_internal11CordRepRing12RemoveSuffixEPS2_mm.cold.2, symObjAddr: 0x4224, symBinAddr: 0x53D40, symSize: 0x24 }
  - { offsetInCU: 0xEC3B, offset: 0xEB2E2, size: 0x8, addend: 0x0, symName: __ZN4absl12lts_2021110213cord_internal11CordRepRing12RemoveSuffixEPS2_mm.cold.4, symObjAddr: 0x426C, symBinAddr: 0x53D88, symSize: 0x24 }
  - { offsetInCU: 0xEC69, offset: 0xEB310, size: 0x8, addend: 0x0, symName: __ZN4absl12lts_2021110213cord_internal11CordRepRing12RemoveSuffixEPS2_mm.cold.3, symObjAddr: 0x4248, symBinAddr: 0x53D64, symSize: 0x24 }
  - { offsetInCU: 0xED49, offset: 0xEB3F0, size: 0x8, addend: 0x0, symName: '__ZZN4absl12lts_2021110213cord_internal12_GLOBAL__N_112UnrefEntriesEPKNS1_11CordRepRingEjjENK3$_3clEj.cold.1', symObjAddr: 0x4290, symBinAddr: 0x53DAC, symSize: 0x28 }
  - { offsetInCU: 0xED76, offset: 0xEB41D, size: 0x8, addend: 0x0, symName: '__ZZN4absl12lts_2021110213cord_internal12_GLOBAL__N_112UnrefEntriesEPKNS1_11CordRepRingEjjENK3$_3clEj.cold.2', symObjAddr: 0x42B8, symBinAddr: 0x53DD4, symSize: 0x24 }
  - { offsetInCU: 0xEDA3, offset: 0xEB44A, size: 0x8, addend: 0x0, symName: '__ZZN4absl12lts_2021110213cord_internal12_GLOBAL__N_112UnrefEntriesEPKNS1_11CordRepRingEjjENK3$_3clEj.cold.4', symObjAddr: 0x4304, symBinAddr: 0x53E20, symSize: 0x28 }
  - { offsetInCU: 0xEDD0, offset: 0xEB477, size: 0x8, addend: 0x0, symName: '__ZZN4absl12lts_2021110213cord_internal12_GLOBAL__N_112UnrefEntriesEPKNS1_11CordRepRingEjjENK3$_3clEj.cold.3', symObjAddr: 0x42DC, symBinAddr: 0x53DF8, symSize: 0x28 }
  - { offsetInCU: 0xF4EB, offset: 0xEBB92, size: 0x8, addend: 0x0, symName: __ZNK4absl12lts_2021110213cord_internal11CordRepRing7ForEachIZNS2_4FillILb1EEEvPKS2_jjEUljE_EEvjjOT_.cold.1, symObjAddr: 0x4354, symBinAddr: 0x53E48, symSize: 0x24 }
  - { offsetInCU: 0xF52F, offset: 0xEBBD6, size: 0x8, addend: 0x0, symName: __ZNK4absl12lts_2021110213cord_internal11CordRepRing7ForEachIZNS2_4FillILb1EEEvPKS2_jjEUljE_EEvjjOT_.cold.2, symObjAddr: 0x4378, symBinAddr: 0x53E6C, symSize: 0x24 }
  - { offsetInCU: 0xF62A, offset: 0xEBCD1, size: 0x8, addend: 0x0, symName: __ZNK4absl12lts_2021110213cord_internal11CordRepRing7ForEachIZNS2_7AddRingILNS2_7AddModeE0EEEPS2_S6_S6_mmEUljE0_EEvjjOT_.cold.1, symObjAddr: 0x439C, symBinAddr: 0x53E90, symSize: 0x24 }
  - { offsetInCU: 0xF66E, offset: 0xEBD15, size: 0x8, addend: 0x0, symName: __ZNK4absl12lts_2021110213cord_internal11CordRepRing7ForEachIZNS2_7AddRingILNS2_7AddModeE0EEEPS2_S6_S6_mmEUljE0_EEvjjOT_.cold.2, symObjAddr: 0x43C0, symBinAddr: 0x53EB4, symSize: 0x24 }
  - { offsetInCU: 0xF775, offset: 0xEBE1C, size: 0x8, addend: 0x0, symName: '__ZN4absl12lts_2021110219functional_internal12InvokeObjectIZNS0_13cord_internal11CordRepRing10CreateSlowEPNS3_7CordRepEmE3$_0vJS6_mmEEET0_NS1_7VoidPtrEDpNS1_8ForwardTIT1_E4typeE.cold.3', symObjAddr: 0x442C, symBinAddr: 0x53F20, symSize: 0x24 }
  - { offsetInCU: 0xF7E2, offset: 0xEBE89, size: 0x8, addend: 0x0, symName: '__ZN4absl12lts_2021110219functional_internal12InvokeObjectIZNS0_13cord_internal11CordRepRing10CreateSlowEPNS3_7CordRepEmE3$_0vJS6_mmEEET0_NS1_7VoidPtrEDpNS1_8ForwardTIT1_E4typeE.cold.2', symObjAddr: 0x4408, symBinAddr: 0x53EFC, symSize: 0x24 }
  - { offsetInCU: 0xF84F, offset: 0xEBEF6, size: 0x8, addend: 0x0, symName: '__ZN4absl12lts_2021110219functional_internal12InvokeObjectIZNS0_13cord_internal11CordRepRing10CreateSlowEPNS3_7CordRepEmE3$_0vJS6_mmEEET0_NS1_7VoidPtrEDpNS1_8ForwardTIT1_E4typeE.cold.1', symObjAddr: 0x43E4, symBinAddr: 0x53ED8, symSize: 0x24 }
  - { offsetInCU: 0xF9D0, offset: 0xEC077, size: 0x8, addend: 0x0, symName: __ZNK4absl12lts_2021110213cord_internal11CordRepRing7ForEachIZNS2_7AddRingILNS2_7AddModeE1EEEPS2_S6_S6_mmEUljE0_EEvjjOT_.cold.1, symObjAddr: 0x4450, symBinAddr: 0x53F44, symSize: 0x24 }
  - { offsetInCU: 0xFA14, offset: 0xEC0BB, size: 0x8, addend: 0x0, symName: __ZNK4absl12lts_2021110213cord_internal11CordRepRing7ForEachIZNS2_7AddRingILNS2_7AddModeE1EEEPS2_S6_S6_mmEUljE0_EEvjjOT_.cold.2, symObjAddr: 0x4474, symBinAddr: 0x53F68, symSize: 0x24 }
  - { offsetInCU: 0xFAF6, offset: 0xEC19D, size: 0x8, addend: 0x0, symName: '__ZN4absl12lts_2021110219functional_internal12InvokeObjectIZNS0_13cord_internal11CordRepRing11PrependSlowEPS4_PNS3_7CordRepEE3$_2vJS7_mmEEET0_NS1_7VoidPtrEDpNS1_8ForwardTIT1_E4typeE.cold.1', symObjAddr: 0x4498, symBinAddr: 0x53F8C, symSize: 0x24 }
  - { offsetInCU: 0xFB63, offset: 0xEC20A, size: 0x8, addend: 0x0, symName: _OUTLINED_FUNCTION_0, symObjAddr: 0x44BC, symBinAddr: 0x220C4, symSize: 0x8 }
  - { offsetInCU: 0xFB7B, offset: 0xEC222, size: 0x8, addend: 0x0, symName: _OUTLINED_FUNCTION_1, symObjAddr: 0x44C4, symBinAddr: 0x220CC, symSize: 0x8 }
  - { offsetInCU: 0xFB93, offset: 0xEC23A, size: 0x8, addend: 0x0, symName: _OUTLINED_FUNCTION_2, symObjAddr: 0x44CC, symBinAddr: 0x220D4, symSize: 0x8 }
  - { offsetInCU: 0xFBAB, offset: 0xEC252, size: 0x8, addend: 0x0, symName: _OUTLINED_FUNCTION_3, symObjAddr: 0x44D4, symBinAddr: 0x220DC, symSize: 0x8 }
  - { offsetInCU: 0xFBC3, offset: 0xEC26A, size: 0x8, addend: 0x0, symName: _OUTLINED_FUNCTION_4, symObjAddr: 0x44DC, symBinAddr: 0x220E4, symSize: 0x8 }
  - { offsetInCU: 0xFBDB, offset: 0xEC282, size: 0x8, addend: 0x0, symName: _OUTLINED_FUNCTION_5, symObjAddr: 0x44E4, symBinAddr: 0x220EC, symSize: 0x8 }
  - { offsetInCU: 0xFBF3, offset: 0xEC29A, size: 0x8, addend: 0x0, symName: _OUTLINED_FUNCTION_6, symObjAddr: 0x44EC, symBinAddr: 0x220F4, symSize: 0x8 }
  - { offsetInCU: 0xFC0B, offset: 0xEC2B2, size: 0x8, addend: 0x0, symName: _OUTLINED_FUNCTION_7, symObjAddr: 0x44F4, symBinAddr: 0x220FC, symSize: 0x8 }
  - { offsetInCU: 0xFC23, offset: 0xEC2CA, size: 0x8, addend: 0x0, symName: _OUTLINED_FUNCTION_8, symObjAddr: 0x44FC, symBinAddr: 0x22104, symSize: 0x8 }
  - { offsetInCU: 0xFC3B, offset: 0xEC2E2, size: 0x8, addend: 0x0, symName: _OUTLINED_FUNCTION_9, symObjAddr: 0x4504, symBinAddr: 0x2210C, symSize: 0x8 }
  - { offsetInCU: 0xFC53, offset: 0xEC2FA, size: 0x8, addend: 0x0, symName: _OUTLINED_FUNCTION_10, symObjAddr: 0x450C, symBinAddr: 0x22114, symSize: 0x8 }
  - { offsetInCU: 0x26, offset: 0xEC346, size: 0x8, addend: 0x0, symName: __ZN4absl12lts_2021110213cord_internal23get_cordz_mean_intervalEv, symObjAddr: 0x0, symBinAddr: 0x2211C, symSize: 0x10 }
  - { offsetInCU: 0x4F, offset: 0xEC36F, size: 0x8, addend: 0x0, symName: __ZN4absl12lts_2021110213cord_internal12_GLOBAL__N_121g_cordz_mean_intervalE.0, symObjAddr: 0x20, symBinAddr: 0x707C4, symSize: 0x0 }
  - { offsetInCU: 0x5E, offset: 0xEC37E, size: 0x8, addend: 0x0, symName: __ZN4absl12lts_2021110213cord_internal23get_cordz_mean_intervalEv, symObjAddr: 0x0, symBinAddr: 0x2211C, symSize: 0x10 }
  - { offsetInCU: 0x7F, offset: 0xEC39F, size: 0x8, addend: 0x0, symName: __ZN4absl12lts_2021110213cord_internal23get_cordz_mean_intervalEv, symObjAddr: 0x0, symBinAddr: 0x2211C, symSize: 0x10 }
  - { offsetInCU: 0x99, offset: 0xEC3B9, size: 0x8, addend: 0x0, symName: __ZN4absl12lts_2021110213cord_internal23get_cordz_mean_intervalEv, symObjAddr: 0x0, symBinAddr: 0x2211C, symSize: 0x10 }
  - { offsetInCU: 0xB3, offset: 0xEC3D3, size: 0x8, addend: 0x0, symName: __ZN4absl12lts_2021110213cord_internal23set_cordz_mean_intervalEi, symObjAddr: 0x10, symBinAddr: 0x2212C, symSize: 0x10 }
  - { offsetInCU: 0xDF, offset: 0xEC3FF, size: 0x8, addend: 0x0, symName: __ZN4absl12lts_2021110213cord_internal23set_cordz_mean_intervalEi, symObjAddr: 0x10, symBinAddr: 0x2212C, symSize: 0x10 }
  - { offsetInCU: 0x100, offset: 0xEC420, size: 0x8, addend: 0x0, symName: __ZN4absl12lts_2021110213cord_internal23set_cordz_mean_intervalEi, symObjAddr: 0x10, symBinAddr: 0x2212C, symSize: 0x10 }
  - { offsetInCU: 0x49, offset: 0xEEF05, size: 0x8, addend: 0x0, symName: __ZN4absl12lts_2021110213cord_internal11CordzHandle13global_queue_E, symObjAddr: 0xC70, symBinAddr: 0x707C8, symSize: 0x0 }
  - { offsetInCU: 0x4252, offset: 0xF310E, size: 0x8, addend: 0x0, symName: __ZNSt3__119__allocate_at_leastB7v160006INS_9allocatorIPN4absl12lts_2021110213cord_internal11CordzHandleEEEEENS_19__allocation_resultINS_16allocator_traitsIT_E7pointerEEERSA_m, symObjAddr: 0xAA8, symBinAddr: 0x22B64, symSize: 0x34 }
  - { offsetInCU: 0x45F2, offset: 0xF34AE, size: 0x8, addend: 0x0, symName: __ZNSt3__119__allocate_at_leastB7v160006INS_9allocatorIPKN4absl12lts_2021110213cord_internal11CordzHandleEEEEENS_19__allocation_resultINS_16allocator_traitsIT_E7pointerEEERSB_m, symObjAddr: 0xB18, symBinAddr: 0x22BAC, symSize: 0x34 }
  - { offsetInCU: 0x4690, offset: 0xF354C, size: 0x8, addend: 0x0, symName: __ZN4absl12lts_2021110213cord_internal11CordzHandle6DeleteEPS2_.cold.1, symObjAddr: 0xB4C, symBinAddr: 0x53FB0, symSize: 0x28 }
  - { offsetInCU: 0x6C19, offset: 0xF5AD5, size: 0x8, addend: 0x0, symName: __ZN4absl12lts_2021110213cord_internal11CordzHandleC2Eb, symObjAddr: 0x0, symBinAddr: 0x2213C, symSize: 0xD8 }
  - { offsetInCU: 0x6EAB, offset: 0xF5D67, size: 0x8, addend: 0x0, symName: __ZN4absl12lts_2021110213base_internal14SpinLockHolderD1Ev, symObjAddr: 0xD8, symBinAddr: 0x22214, symSize: 0x48 }
  - { offsetInCU: 0x6F92, offset: 0xF5E4E, size: 0x8, addend: 0x0, symName: __ZN4absl12lts_2021110213cord_internal11CordzHandleC1Eb, symObjAddr: 0x120, symBinAddr: 0x2225C, symSize: 0x4 }
  - { offsetInCU: 0x6FD3, offset: 0xF5E8F, size: 0x8, addend: 0x0, symName: __ZN4absl12lts_2021110213cord_internal11CordzHandleC1Eb, symObjAddr: 0x120, symBinAddr: 0x2225C, symSize: 0x4 }
  - { offsetInCU: 0x74AE, offset: 0xF636A, size: 0x8, addend: 0x0, symName: __ZN4absl12lts_2021110213cord_internal11CordzHandleD2Ev, symObjAddr: 0x124, symBinAddr: 0x22260, symSize: 0x254 }
  - { offsetInCU: 0x7DB8, offset: 0xF6C74, size: 0x8, addend: 0x0, symName: __ZNKSt3__16vectorIPN4absl12lts_2021110213cord_internal11CordzHandleENS_9allocatorIS5_EEE20__throw_length_errorB7v160006Ev, symObjAddr: 0xA20, symBinAddr: 0x22B50, symSize: 0x14 }
  - { offsetInCU: 0x7DEC, offset: 0xF6CA8, size: 0x8, addend: 0x0, symName: __ZN4absl12lts_2021110213cord_internal11CordzHandleD1Ev, symObjAddr: 0x384, symBinAddr: 0x224B4, symSize: 0x4 }
  - { offsetInCU: 0x7E0F, offset: 0xF6CCB, size: 0x8, addend: 0x0, symName: __ZN4absl12lts_2021110213cord_internal11CordzHandleD1Ev, symObjAddr: 0x384, symBinAddr: 0x224B4, symSize: 0x4 }
  - { offsetInCU: 0x7E3D, offset: 0xF6CF9, size: 0x8, addend: 0x0, symName: __ZN4absl12lts_2021110213cord_internal11CordzHandleD0Ev, symObjAddr: 0x388, symBinAddr: 0x224B8, symSize: 0x14 }
  - { offsetInCU: 0x7EB4, offset: 0xF6D70, size: 0x8, addend: 0x0, symName: __ZNK4absl12lts_2021110213cord_internal11CordzHandle12SafeToDeleteEv, symObjAddr: 0x39C, symBinAddr: 0x224CC, symSize: 0x28 }
  - { offsetInCU: 0x7F51, offset: 0xF6E0D, size: 0x8, addend: 0x0, symName: __ZN4absl12lts_2021110213cord_internal11CordzHandle6DeleteEPS2_, symObjAddr: 0x3C4, symBinAddr: 0x224F4, symSize: 0x14C }
  - { offsetInCU: 0x83E1, offset: 0xF729D, size: 0x8, addend: 0x0, symName: __ZN4absl12lts_2021110213cord_internal11CordzHandle6DeleteEPS2_.cold.1, symObjAddr: 0xB4C, symBinAddr: 0x53FB0, symSize: 0x28 }
  - { offsetInCU: 0x8850, offset: 0xF770C, size: 0x8, addend: 0x0, symName: __ZN4absl12lts_2021110213cord_internal11CordzHandle25DiagnosticsGetDeleteQueueEv, symObjAddr: 0x510, symBinAddr: 0x22640, symSize: 0x1AC }
  - { offsetInCU: 0x9077, offset: 0xF7F33, size: 0x8, addend: 0x0, symName: __ZNKSt3__16vectorIPKN4absl12lts_2021110213cord_internal11CordzHandleENS_9allocatorIS6_EEE20__throw_length_errorB7v160006Ev, symObjAddr: 0xB04, symBinAddr: 0x22B98, symSize: 0x14 }
  - { offsetInCU: 0x90A0, offset: 0xF7F5C, size: 0x8, addend: 0x0, symName: __ZNSt3__119__allocate_at_leastB7v160006INS_9allocatorIPKN4absl12lts_2021110213cord_internal11CordzHandleEEEEENS_19__allocation_resultINS_16allocator_traitsIT_E7pointerEEERSB_m, symObjAddr: 0xB18, symBinAddr: 0x22BAC, symSize: 0x34 }
  - { offsetInCU: 0x90C1, offset: 0xF7F7D, size: 0x8, addend: 0x0, symName: __ZNK4absl12lts_2021110213cord_internal11CordzHandle32DiagnosticsHandleIsSafeToInspectEPKS2_, symObjAddr: 0x6BC, symBinAddr: 0x227EC, symSize: 0x174 }
  - { offsetInCU: 0x9460, offset: 0xF831C, size: 0x8, addend: 0x0, symName: __ZN4absl12lts_2021110213cord_internal11CordzHandle41DiagnosticsGetSafeToInspectDeletedHandlesEv, symObjAddr: 0x830, symBinAddr: 0x22960, symSize: 0x1F0 }
  - { offsetInCU: 0x49, offset: 0xF8C53, size: 0x8, addend: 0x0, symName: __ZN4absl12lts_2021110213cord_internal9CordzInfo14kMaxStackDepthE, symObjAddr: 0x174C, symBinAddr: 0x5A9FC, symSize: 0x0 }
  - { offsetInCU: 0xD21, offset: 0xF992B, size: 0x8, addend: 0x0, symName: __ZN4absl12lts_2021110213cord_internal9CordzInfo12global_list_E, symObjAddr: 0x1780, symBinAddr: 0x707D8, symSize: 0x0 }
  - { offsetInCU: 0x5CFB, offset: 0xFE905, size: 0x8, addend: 0x0, symName: __ZN4absl12lts_2021110213cord_internal9CordzInfo4HeadERKNS1_13CordzSnapshotE, symObjAddr: 0x0, symBinAddr: 0x22BE0, symSize: 0x44 }
  - { offsetInCU: 0x5E04, offset: 0xFEA0E, size: 0x8, addend: 0x0, symName: __ZNK4absl12lts_2021110213cord_internal9CordzInfo4NextERKNS1_13CordzSnapshotE, symObjAddr: 0x44, symBinAddr: 0x22C24, symSize: 0x5C }
  - { offsetInCU: 0x5E60, offset: 0xFEA6A, size: 0x8, addend: 0x0, symName: __ZN4absl12lts_2021110213cord_internal9CordzInfo4HeadERKNS1_13CordzSnapshotE.cold.1, symObjAddr: 0x1228, symBinAddr: 0x53FD8, symSize: 0x28 }
  - { offsetInCU: 0x5E8E, offset: 0xFEA98, size: 0x8, addend: 0x0, symName: __ZN4absl12lts_2021110213cord_internal9CordzInfo4HeadERKNS1_13CordzSnapshotE.cold.2, symObjAddr: 0x1250, symBinAddr: 0x54000, symSize: 0x28 }
  - { offsetInCU: 0x5EBC, offset: 0xFEAC6, size: 0x8, addend: 0x0, symName: __ZNK4absl12lts_2021110213cord_internal9CordzInfo4NextERKNS1_13CordzSnapshotE, symObjAddr: 0x44, symBinAddr: 0x22C24, symSize: 0x5C }
  - { offsetInCU: 0x600D, offset: 0xFEC17, size: 0x8, addend: 0x0, symName: __ZN4absl12lts_2021110213cord_internal9CordzInfo9TrackCordERNS1_10InlineDataENS1_18CordzUpdateTracker16MethodIdentifierE, symObjAddr: 0xA0, symBinAddr: 0x22C80, symSize: 0x94 }
  - { offsetInCU: 0x6092, offset: 0xFEC9C, size: 0x8, addend: 0x0, symName: __ZNK4absl12lts_2021110213cord_internal9CordzInfo4NextERKNS1_13CordzSnapshotE.cold.1, symObjAddr: 0x1278, symBinAddr: 0x54028, symSize: 0x28 }
  - { offsetInCU: 0x60C0, offset: 0xFECCA, size: 0x8, addend: 0x0, symName: __ZNK4absl12lts_2021110213cord_internal9CordzInfo4NextERKNS1_13CordzSnapshotE.cold.3, symObjAddr: 0x12C8, symBinAddr: 0x54078, symSize: 0x28 }
  - { offsetInCU: 0x60EE, offset: 0xFECF8, size: 0x8, addend: 0x0, symName: __ZNK4absl12lts_2021110213cord_internal9CordzInfo4NextERKNS1_13CordzSnapshotE.cold.2, symObjAddr: 0x12A0, symBinAddr: 0x54050, symSize: 0x28 }
  - { offsetInCU: 0x61ED, offset: 0xFEDF7, size: 0x8, addend: 0x0, symName: __ZN4absl12lts_2021110213cord_internal9CordzInfo9TrackCordERNS1_10InlineDataENS1_18CordzUpdateTracker16MethodIdentifierE, symObjAddr: 0xA0, symBinAddr: 0x22C80, symSize: 0x94 }
  - { offsetInCU: 0x63CA, offset: 0xFEFD4, size: 0x8, addend: 0x0, symName: __ZN4absl12lts_2021110213cord_internal9CordzInfoC2EPNS1_7CordRepEPKS2_NS1_18CordzUpdateTracker16MethodIdentifierE, symObjAddr: 0x648, symBinAddr: 0x231F8, symSize: 0x164 }
  - { offsetInCU: 0x68ED, offset: 0xFF4F7, size: 0x8, addend: 0x0, symName: __ZN4absl12lts_2021110213cord_internal9CordzInfo5TrackEv, symObjAddr: 0x138, symBinAddr: 0x22D18, symSize: 0xAC }
  - { offsetInCU: 0x6C83, offset: 0xFF88D, size: 0x8, addend: 0x0, symName: __ZN4absl12lts_2021110213cord_internal9CordzInfo9TrackCordERNS1_10InlineDataENS1_18CordzUpdateTracker16MethodIdentifierE.cold.1, symObjAddr: 0x12F0, symBinAddr: 0x540A0, symSize: 0x28 }
  - { offsetInCU: 0x6C9B, offset: 0xFF8A5, size: 0x8, addend: 0x0, symName: __ZN4absl12lts_2021110213cord_internal9CordzInfo9TrackCordERNS1_10InlineDataENS1_18CordzUpdateTracker16MethodIdentifierE.cold.3, symObjAddr: 0x1340, symBinAddr: 0x540F0, symSize: 0x28 }
  - { offsetInCU: 0x6CB3, offset: 0xFF8BD, size: 0x8, addend: 0x0, symName: __ZN4absl12lts_2021110213cord_internal9CordzInfo9TrackCordERNS1_10InlineDataENS1_18CordzUpdateTracker16MethodIdentifierE.cold.2, symObjAddr: 0x1318, symBinAddr: 0x540C8, symSize: 0x28 }
  - { offsetInCU: 0x6CE1, offset: 0xFF8EB, size: 0x8, addend: 0x0, symName: __ZN4absl12lts_2021110213cord_internal9CordzInfoC1EPNS1_7CordRepEPKS2_NS1_18CordzUpdateTracker16MethodIdentifierE, symObjAddr: 0x134, symBinAddr: 0x22D14, symSize: 0x4 }
  - { offsetInCU: 0x6D19, offset: 0xFF923, size: 0x8, addend: 0x0, symName: __ZN4absl12lts_2021110213cord_internal9CordzInfoC1EPNS1_7CordRepEPKS2_NS1_18CordzUpdateTracker16MethodIdentifierE, symObjAddr: 0x134, symBinAddr: 0x22D14, symSize: 0x4 }
  - { offsetInCU: 0x6F3F, offset: 0xFFB49, size: 0x8, addend: 0x0, symName: __ZN4absl12lts_2021110213cord_internal9CordzInfo9TrackCordERNS1_10InlineDataERKS3_NS1_18CordzUpdateTracker16MethodIdentifierE, symObjAddr: 0x1E4, symBinAddr: 0x22DC4, symSize: 0xE0 }
  - { offsetInCU: 0x7227, offset: 0xFFE31, size: 0x8, addend: 0x0, symName: __ZN4absl12lts_2021110213cord_internal9CordzInfo7UntrackEv, symObjAddr: 0x2F4, symBinAddr: 0x22EA4, symSize: 0x244 }
  - { offsetInCU: 0x7231, offset: 0xFFE3B, size: 0x8, addend: 0x0, symName: __ZN4absl12lts_2021110213cord_internal9CordzInfo7UntrackEv, symObjAddr: 0x2F4, symBinAddr: 0x22EA4, symSize: 0x244 }
  - { offsetInCU: 0x78AA, offset: 0x1004B4, size: 0x8, addend: 0x0, symName: __ZN4absl12lts_2021110213cord_internal9CordzInfo9TrackCordERNS1_10InlineDataERKS3_NS1_18CordzUpdateTracker16MethodIdentifierE.cold.1, symObjAddr: 0x1368, symBinAddr: 0x54118, symSize: 0x28 }
  - { offsetInCU: 0x78C2, offset: 0x1004CC, size: 0x8, addend: 0x0, symName: __ZN4absl12lts_2021110213cord_internal9CordzInfo9TrackCordERNS1_10InlineDataERKS3_NS1_18CordzUpdateTracker16MethodIdentifierE.cold.2, symObjAddr: 0x1390, symBinAddr: 0x54140, symSize: 0x28 }
  - { offsetInCU: 0x78DA, offset: 0x1004E4, size: 0x8, addend: 0x0, symName: __ZN4absl12lts_2021110213cord_internal9CordzInfo9TrackCordERNS1_10InlineDataERKS3_NS1_18CordzUpdateTracker16MethodIdentifierE.cold.3, symObjAddr: 0x13B8, symBinAddr: 0x54168, symSize: 0x28 }
  - { offsetInCU: 0x7BA1, offset: 0x1007AB, size: 0x8, addend: 0x0, symName: __ZN4absl12lts_2021110213cord_internal9CordzInfo18MaybeTrackCordImplERNS1_10InlineDataERKS3_NS1_18CordzUpdateTracker16MethodIdentifierE, symObjAddr: 0x538, symBinAddr: 0x230E8, symSize: 0x84 }
  - { offsetInCU: 0x7D2E, offset: 0x100938, size: 0x8, addend: 0x0, symName: __ZN4absl12lts_2021110213cord_internal9CordzInfo15GetParentMethodEPKS2_, symObjAddr: 0x5BC, symBinAddr: 0x2316C, symSize: 0x1C }
  - { offsetInCU: 0x7D38, offset: 0x100942, size: 0x8, addend: 0x0, symName: __ZN4absl12lts_2021110213cord_internal9CordzInfo18MaybeTrackCordImplERNS1_10InlineDataERKS3_NS1_18CordzUpdateTracker16MethodIdentifierE.cold.1, symObjAddr: 0x1430, symBinAddr: 0x54190, symSize: 0x28 }
  - { offsetInCU: 0x7D66, offset: 0x100970, size: 0x8, addend: 0x0, symName: __ZN4absl12lts_2021110213cord_internal9CordzInfo18MaybeTrackCordImplERNS1_10InlineDataERKS3_NS1_18CordzUpdateTracker16MethodIdentifierE.cold.2, symObjAddr: 0x1458, symBinAddr: 0x541B8, symSize: 0x28 }
  - { offsetInCU: 0x7D94, offset: 0x10099E, size: 0x8, addend: 0x0, symName: __ZN4absl12lts_2021110213cord_internal9CordzInfo18MaybeTrackCordImplERNS1_10InlineDataERKS3_NS1_18CordzUpdateTracker16MethodIdentifierE.cold.3, symObjAddr: 0x1480, symBinAddr: 0x541E0, symSize: 0x28 }
  - { offsetInCU: 0x7DC2, offset: 0x1009CC, size: 0x8, addend: 0x0, symName: __ZN4absl12lts_2021110213cord_internal9CordzInfo15GetParentMethodEPKS2_, symObjAddr: 0x5BC, symBinAddr: 0x2316C, symSize: 0x1C }
  - { offsetInCU: 0x7DE0, offset: 0x1009EA, size: 0x8, addend: 0x0, symName: __ZN4absl12lts_2021110213cord_internal9CordzInfo15FillParentStackEPKS2_PPv, symObjAddr: 0x5D8, symBinAddr: 0x23188, symSize: 0x70 }
  - { offsetInCU: 0x7E09, offset: 0x100A13, size: 0x8, addend: 0x0, symName: __ZN4absl12lts_2021110213cord_internal9CordzInfoC2EPNS1_7CordRepEPKS2_NS1_18CordzUpdateTracker16MethodIdentifierE, symObjAddr: 0x648, symBinAddr: 0x231F8, symSize: 0x164 }
  - { offsetInCU: 0x7E13, offset: 0x100A1D, size: 0x8, addend: 0x0, symName: __ZN4absl12lts_2021110213cord_internal9CordzInfo15FillParentStackEPKS2_PPv.cold.1, symObjAddr: 0x14A8, symBinAddr: 0x54208, symSize: 0x28 }
  - { offsetInCU: 0x81E8, offset: 0x100DF2, size: 0x8, addend: 0x0, symName: __ZN4absl12lts_2021110213cord_internal9CordzInfoD2Ev, symObjAddr: 0x7AC, symBinAddr: 0x2335C, symSize: 0x48 }
  - { offsetInCU: 0x8307, offset: 0x100F11, size: 0x8, addend: 0x0, symName: __ZN4absl12lts_2021110213cord_internal9CordzInfoD1Ev, symObjAddr: 0x850, symBinAddr: 0x233A4, symSize: 0x4 }
  - { offsetInCU: 0x832A, offset: 0x100F34, size: 0x8, addend: 0x0, symName: __ZN4absl12lts_2021110213cord_internal9CordzInfoD1Ev, symObjAddr: 0x850, symBinAddr: 0x233A4, symSize: 0x4 }
  - { offsetInCU: 0x8359, offset: 0x100F63, size: 0x8, addend: 0x0, symName: __ZN4absl12lts_2021110213cord_internal9CordzInfoD0Ev, symObjAddr: 0x854, symBinAddr: 0x233A8, symSize: 0x14 }
  - { offsetInCU: 0x83B7, offset: 0x100FC1, size: 0x8, addend: 0x0, symName: __ZN4absl12lts_2021110213cord_internal9CordzInfo4LockENS1_18CordzUpdateTracker16MethodIdentifierE, symObjAddr: 0x8B0, symBinAddr: 0x233BC, symSize: 0x44 }
  - { offsetInCU: 0x84BE, offset: 0x1010C8, size: 0x8, addend: 0x0, symName: __ZN4absl12lts_2021110213cord_internal9CordzInfo6UnlockEv, symObjAddr: 0x8F4, symBinAddr: 0x23400, symSize: 0x3C }
  - { offsetInCU: 0x84C8, offset: 0x1010D2, size: 0x8, addend: 0x0, symName: __ZN4absl12lts_2021110213cord_internal9CordzInfo4LockENS1_18CordzUpdateTracker16MethodIdentifierE.cold.1, symObjAddr: 0x1520, symBinAddr: 0x54230, symSize: 0x28 }
  - { offsetInCU: 0x84E0, offset: 0x1010EA, size: 0x8, addend: 0x0, symName: __ZN4absl12lts_2021110213cord_internal9CordzInfo6UnlockEv, symObjAddr: 0x8F4, symBinAddr: 0x23400, symSize: 0x3C }
  - { offsetInCU: 0x852A, offset: 0x101134, size: 0x8, addend: 0x0, symName: __ZNK4absl12lts_2021110213cord_internal9CordzInfo8GetStackEv, symObjAddr: 0x930, symBinAddr: 0x2343C, symSize: 0x10 }
  - { offsetInCU: 0x8554, offset: 0x10115E, size: 0x8, addend: 0x0, symName: __ZNK4absl12lts_2021110213cord_internal9CordzInfo14GetParentStackEv, symObjAddr: 0x940, symBinAddr: 0x2344C, symSize: 0x10 }
  - { offsetInCU: 0x8F1E, offset: 0x101B28, size: 0x8, addend: 0x0, symName: __ZNK4absl12lts_2021110213cord_internal9CordzInfo18GetCordzStatisticsEv, symObjAddr: 0x950, symBinAddr: 0x2345C, symSize: 0x4D8 }
  - { offsetInCU: 0x9E7F, offset: 0x102A89, size: 0x8, addend: 0x0, symName: __ZN4absl12lts_2021110213cord_internal12_GLOBAL__N_115CordRepAnalyzer15CountLinearRepsENS3_6RepRefERNS3_11MemoryUsageE, symObjAddr: 0xE28, symBinAddr: 0x23934, symSize: 0x1B4 }
  - { offsetInCU: 0xA051, offset: 0x102C5B, size: 0x8, addend: 0x0, symName: __ZN4absl12lts_2021110213cord_internal12_GLOBAL__N_115CordRepAnalyzer12AnalyzeBtreeENS3_6RepRefE, symObjAddr: 0xFDC, symBinAddr: 0x23AE8, symSize: 0x110 }
  - { offsetInCU: 0xA0B8, offset: 0x102CC2, size: 0x8, addend: 0x0, symName: __ZN4absl12lts_2021110223inlined_vector_internal7StorageINS0_13cord_internal12_GLOBAL__N_115CordRepAnalyzer6RepRefELm47ENSt3__19allocatorIS6_EEE15EmplaceBackSlowIJRKS6_EEERS6_DpOT_, symObjAddr: 0x1148, symBinAddr: 0x23BF8, symSize: 0xB8 }
  - { offsetInCU: 0xA0C2, offset: 0x102CCC, size: 0x8, addend: 0x0, symName: __ZN4absl12lts_2021110213cord_internal12_GLOBAL__N_115CordRepAnalyzer12AnalyzeBtreeENS3_6RepRefE, symObjAddr: 0xFDC, symBinAddr: 0x23AE8, symSize: 0x110 }
  - { offsetInCU: 0xA369, offset: 0x102F73, size: 0x8, addend: 0x0, symName: __ZN4absl12lts_2021110223inlined_vector_internal7StorageINS0_13cord_internal12_GLOBAL__N_115CordRepAnalyzer6RepRefELm47ENSt3__19allocatorIS6_EEE15EmplaceBackSlowIJRKS6_EEERS6_DpOT_, symObjAddr: 0x1148, symBinAddr: 0x23BF8, symSize: 0xB8 }
  - { offsetInCU: 0xA77C, offset: 0x103386, size: 0x8, addend: 0x0, symName: __ZNK4absl12lts_2021110213cord_internal9CordzInfo18GetCordzStatisticsEv.cold.1, symObjAddr: 0x1548, symBinAddr: 0x54258, symSize: 0x28 }
  - { offsetInCU: 0xA7C0, offset: 0x1033CA, size: 0x8, addend: 0x0, symName: __ZNK4absl12lts_2021110213cord_internal9CordzInfo18GetCordzStatisticsEv.cold.2, symObjAddr: 0x1570, symBinAddr: 0x54280, symSize: 0x28 }
  - { offsetInCU: 0xA83D, offset: 0x103447, size: 0x8, addend: 0x0, symName: __ZN4absl12lts_2021110213cord_internal12_GLOBAL__N_115CordRepAnalyzer15CountLinearRepsENS3_6RepRefERNS3_11MemoryUsageE.cold.1, symObjAddr: 0x1598, symBinAddr: 0x542A8, symSize: 0x28 }
  - { offsetInCU: 0xA8C7, offset: 0x1034D1, size: 0x8, addend: 0x0, symName: __ZN4absl12lts_2021110213cord_internal12_GLOBAL__N_115CordRepAnalyzer12AnalyzeBtreeENS3_6RepRefE.cold.1, symObjAddr: 0x15C0, symBinAddr: 0x542D0, symSize: 0x28 }
  - { offsetInCU: 0x26, offset: 0x1037A7, size: 0x8, addend: 0x0, symName: __ZN4absl12lts_2021110224synchronization_internal21ReclaimThreadIdentityEPv, symObjAddr: 0x0, symBinAddr: 0x23CB0, symSize: 0xC0 }
  - { offsetInCU: 0x4E, offset: 0x1037CF, size: 0x8, addend: 0x0, symName: __ZN4absl12lts_2021110224synchronization_internalL13freelist_lockE, symObjAddr: 0xF350, symBinAddr: 0x709C8, symSize: 0x0 }
  - { offsetInCU: 0x68, offset: 0x1037E9, size: 0x8, addend: 0x0, symName: __ZN4absl12lts_2021110224synchronization_internalL24thread_identity_freelistE, symObjAddr: 0xF348, symBinAddr: 0x709C0, symSize: 0x0 }
  - { offsetInCU: 0x76, offset: 0x1037F7, size: 0x8, addend: 0x0, symName: __ZN4absl12lts_2021110224synchronization_internal21ReclaimThreadIdentityEPv, symObjAddr: 0x0, symBinAddr: 0x23CB0, symSize: 0xC0 }
  - { offsetInCU: 0x2F1, offset: 0x103A72, size: 0x8, addend: 0x0, symName: __ZN4absl12lts_2021110224synchronization_internal20CreateThreadIdentityEv, symObjAddr: 0xC0, symBinAddr: 0x23D70, symSize: 0x114 }
  - { offsetInCU: 0x26, offset: 0x106E67, size: 0x8, addend: 0x0, symName: __ZN4absl12lts_2021110213base_internal10CycleClock3NowEv, symObjAddr: 0x0, symBinAddr: 0x23E84, symSize: 0x4 }
  - { offsetInCU: 0x2A52, offset: 0x109893, size: 0x8, addend: 0x0, symName: __ZN4absl12lts_2021110213base_internal10CycleClock3NowEv, symObjAddr: 0x0, symBinAddr: 0x23E84, symSize: 0x4 }
  - { offsetInCU: 0x2A68, offset: 0x1098A9, size: 0x8, addend: 0x0, symName: __ZN4absl12lts_2021110213base_internal10CycleClock9FrequencyEv, symObjAddr: 0x4, symBinAddr: 0x23E88, symSize: 0xC }
  - { offsetInCU: 0x26, offset: 0x1098E5, size: 0x8, addend: 0x0, symName: __ZN4absl12lts_2021110218debugging_internal8DemangleEPKcPci, symObjAddr: 0x0, symBinAddr: 0x23E94, symSize: 0x128 }
  - { offsetInCU: 0x61, offset: 0x109920, size: 0x8, addend: 0x0, symName: __ZN4absl12lts_2021110218debugging_internalL16kBuiltinTypeListE, symObjAddr: 0x33E0, symBinAddr: 0x6C600, symSize: 0x0 }
  - { offsetInCU: 0xB1, offset: 0x109970, size: 0x8, addend: 0x0, symName: __ZN4absl12lts_2021110218debugging_internalL13kOperatorListE, symObjAddr: 0x36E0, symBinAddr: 0x6C900, symSize: 0x0 }
  - { offsetInCU: 0xCB, offset: 0x10998A, size: 0x8, addend: 0x0, symName: __ZN4absl12lts_2021110218debugging_internalL17kSubstitutionListE, symObjAddr: 0x3B90, symBinAddr: 0x6CDB0, symSize: 0x0 }
  - { offsetInCU: 0x31D, offset: 0x109BDC, size: 0x8, addend: 0x0, symName: __ZN4absl12lts_2021110218debugging_internal8DemangleEPKcPci, symObjAddr: 0x0, symBinAddr: 0x23E94, symSize: 0x128 }
  - { offsetInCU: 0x4FE, offset: 0x109DBD, size: 0x8, addend: 0x0, symName: __ZN4absl12lts_2021110218debugging_internalL16ParseMangledNameEPNS1_5StateE, symObjAddr: 0x128, symBinAddr: 0x23FBC, symSize: 0x78 }
  - { offsetInCU: 0x608, offset: 0x109EC7, size: 0x8, addend: 0x0, symName: __ZN4absl12lts_2021110218debugging_internalL11MaybeAppendEPNS1_5StateEPKc, symObjAddr: 0x1A0, symBinAddr: 0x24034, symSize: 0x34 }
  - { offsetInCU: 0x6A7, offset: 0x109F66, size: 0x8, addend: 0x0, symName: __ZN4absl12lts_2021110218debugging_internalL17ParseTwoCharTokenEPNS1_5StateEPKc, symObjAddr: 0x1D4, symBinAddr: 0x24068, symSize: 0x70 }
  - { offsetInCU: 0x78B, offset: 0x10A04A, size: 0x8, addend: 0x0, symName: __ZN4absl12lts_2021110218debugging_internalL13ParseEncodingEPNS1_5StateE, symObjAddr: 0x244, symBinAddr: 0x240D8, symSize: 0x35C }
  - { offsetInCU: 0xC06, offset: 0x10A4C5, size: 0x8, addend: 0x0, symName: __ZN4absl12lts_2021110218debugging_internalL21MaybeAppendWithLengthEPNS1_5StateEPKci, symObjAddr: 0x1BD0, symBinAddr: 0x25A64, symSize: 0xD4 }
  - { offsetInCU: 0xD41, offset: 0x10A600, size: 0x8, addend: 0x0, symName: __ZN4absl12lts_2021110218debugging_internalL9ParseNameEPNS1_5StateE, symObjAddr: 0x5A0, symBinAddr: 0x24434, symSize: 0x27C }
  - { offsetInCU: 0x11D7, offset: 0x10AA96, size: 0x8, addend: 0x0, symName: __ZN4absl12lts_2021110218debugging_internalL21ParseBareFunctionTypeEPNS1_5StateE, symObjAddr: 0x81C, symBinAddr: 0x246B0, symSize: 0xE0 }
  - { offsetInCU: 0x135D, offset: 0x10AC1C, size: 0x8, addend: 0x0, symName: __ZN4absl12lts_2021110218debugging_internalL17ParseOneCharTokenEPNS1_5StateEc, symObjAddr: 0xC9C, symBinAddr: 0x24B30, symSize: 0x58 }
  - { offsetInCU: 0x1441, offset: 0x10AD00, size: 0x8, addend: 0x0, symName: __ZN4absl12lts_2021110218debugging_internalL14ParseCharClassEPNS1_5StateEPKc, symObjAddr: 0xEC8, symBinAddr: 0x24D5C, symSize: 0x70 }
  - { offsetInCU: 0x1535, offset: 0x10ADF4, size: 0x8, addend: 0x0, symName: __ZN4absl12lts_2021110218debugging_internalL9ParseTypeEPNS1_5StateE, symObjAddr: 0x134C, symBinAddr: 0x251E0, symSize: 0x4FC }
  - { offsetInCU: 0x1DCE, offset: 0x10B68D, size: 0x8, addend: 0x0, symName: __ZN4absl12lts_2021110218debugging_internalL15ParseCallOffsetEPNS1_5StateE, symObjAddr: 0x2C14, symBinAddr: 0x26AA8, symSize: 0x194 }
  - { offsetInCU: 0x20A2, offset: 0x10B961, size: 0x8, addend: 0x0, symName: __ZN4absl12lts_2021110218debugging_internalL11ParseNumberEPNS1_5StateEPi, symObjAddr: 0x11DC, symBinAddr: 0x25070, symSize: 0xD0 }
  - { offsetInCU: 0x22C9, offset: 0x10BB88, size: 0x8, addend: 0x0, symName: __ZN4absl12lts_2021110218debugging_internalL17ParseCVQualifiersEPNS1_5StateE, symObjAddr: 0xCF4, symBinAddr: 0x24B88, symSize: 0x90 }
  - { offsetInCU: 0x23DF, offset: 0x10BC9E, size: 0x8, addend: 0x0, symName: __ZN4absl12lts_2021110218debugging_internalL11ParsePrefixEPNS1_5StateE, symObjAddr: 0xD84, symBinAddr: 0x24C18, symSize: 0x144 }
  - { offsetInCU: 0x25DB, offset: 0x10BE9A, size: 0x8, addend: 0x0, symName: __ZN4absl12lts_2021110218debugging_internalL18ParseDiscriminatorEPNS1_5StateE, symObjAddr: 0x27E0, symBinAddr: 0x26674, symSize: 0x94 }
  - { offsetInCU: 0x2700, offset: 0x10BFBF, size: 0x8, addend: 0x0, symName: __ZN4absl12lts_2021110218debugging_internalL17ParseSubstitutionEPNS1_5StateEb, symObjAddr: 0x8FC, symBinAddr: 0x24790, symSize: 0x1DC }
  - { offsetInCU: 0x2968, offset: 0x10C227, size: 0x8, addend: 0x0, symName: __ZN4absl12lts_2021110218debugging_internalL17ParseTemplateArgsEPNS1_5StateE, symObjAddr: 0xAD8, symBinAddr: 0x2496C, symSize: 0x100 }
  - { offsetInCU: 0x2B22, offset: 0x10C3E1, size: 0x8, addend: 0x0, symName: __ZN4absl12lts_2021110218debugging_internalL17ParseUnscopedNameEPNS1_5StateE, symObjAddr: 0xBD8, symBinAddr: 0x24A6C, symSize: 0xC4 }
  - { offsetInCU: 0x2CCF, offset: 0x10C58E, size: 0x8, addend: 0x0, symName: __ZN4absl12lts_2021110218debugging_internalL16ParseTemplateArgEPNS1_5StateE, symObjAddr: 0x2874, symBinAddr: 0x26708, symSize: 0x140 }
  - { offsetInCU: 0x2EC9, offset: 0x10C788, size: 0x8, addend: 0x0, symName: __ZN4absl12lts_2021110218debugging_internalL20ParseUnqualifiedNameEPNS1_5StateE, symObjAddr: 0x2A5C, symBinAddr: 0x268F0, symSize: 0x1B8 }
  - { offsetInCU: 0x31E5, offset: 0x10CAA4, size: 0x8, addend: 0x0, symName: __ZN4absl12lts_2021110218debugging_internalL18ParseTemplateParamEPNS1_5StateE, symObjAddr: 0xF38, symBinAddr: 0x24DCC, symSize: 0xD8 }
  - { offsetInCU: 0x334B, offset: 0x10CC0A, size: 0x8, addend: 0x0, symName: __ZN4absl12lts_2021110218debugging_internalL20ParseUnnamedTypeNameEPNS1_5StateE, symObjAddr: 0x1010, symBinAddr: 0x24EA4, symSize: 0x1CC }
  - { offsetInCU: 0x35B3, offset: 0x10CE72, size: 0x8, addend: 0x0, symName: __ZN4absl12lts_2021110218debugging_internalL18MaybeAppendDecimalEPNS1_5StateEj, symObjAddr: 0x12AC, symBinAddr: 0x25140, symSize: 0xA0 }
  - { offsetInCU: 0x363C, offset: 0x10CEFB, size: 0x8, addend: 0x0, symName: __ZN4absl12lts_2021110218debugging_internalL6AppendEPNS1_5StateEPKci, symObjAddr: 0x1848, symBinAddr: 0x256DC, symSize: 0x60 }
  - { offsetInCU: 0x3685, offset: 0x10CF44, size: 0x8, addend: 0x0, symName: __ZN4absl12lts_2021110218debugging_internalL6AppendEPNS1_5StateEPKci, symObjAddr: 0x1848, symBinAddr: 0x256DC, symSize: 0x60 }
  - { offsetInCU: 0x37BE, offset: 0x10D07D, size: 0x8, addend: 0x0, symName: __ZN4absl12lts_2021110218debugging_internalL15ParseSourceNameEPNS1_5StateE, symObjAddr: 0x18A8, symBinAddr: 0x2573C, symSize: 0x184 }
  - { offsetInCU: 0x3A0A, offset: 0x10D2C9, size: 0x8, addend: 0x0, symName: __ZN4absl12lts_2021110218debugging_internalL15ParseExpressionEPNS1_5StateE, symObjAddr: 0x1CA4, symBinAddr: 0x25B38, symSize: 0x388 }
  - { offsetInCU: 0x3F35, offset: 0x10D7F4, size: 0x8, addend: 0x0, symName: __ZN4absl12lts_2021110218debugging_internalL18ParseClassEnumTypeEPNS1_5StateE, symObjAddr: 0x1A2C, symBinAddr: 0x258C0, symSize: 0x64 }
  - { offsetInCU: 0x402B, offset: 0x10D8EA, size: 0x8, addend: 0x0, symName: __ZN4absl12lts_2021110218debugging_internalL13ParseDecltypeEPNS1_5StateE, symObjAddr: 0x1A90, symBinAddr: 0x25924, symSize: 0xC4 }
  - { offsetInCU: 0x4178, offset: 0x10DA37, size: 0x8, addend: 0x0, symName: __ZN4absl12lts_2021110218debugging_internalL26ParseTemplateTemplateParamEPNS1_5StateE, symObjAddr: 0x1B54, symBinAddr: 0x259E8, symSize: 0x7C }
  - { offsetInCU: 0x43C0, offset: 0x10DC7F, size: 0x8, addend: 0x0, symName: __ZN4absl12lts_2021110218debugging_internalL16ParseExprPrimaryEPNS1_5StateE, symObjAddr: 0x202C, symBinAddr: 0x25EC0, symSize: 0x100 }
  - { offsetInCU: 0x4563, offset: 0x10DE22, size: 0x8, addend: 0x0, symName: __ZN4absl12lts_2021110218debugging_internalL17ParseOperatorNameEPNS1_5StateEPi, symObjAddr: 0x212C, symBinAddr: 0x25FC0, symSize: 0x24C }
  - { offsetInCU: 0x486E, offset: 0x10E12D, size: 0x8, addend: 0x0, symName: __ZN4absl12lts_2021110218debugging_internalL19ParseUnresolvedNameEPNS1_5StateE, symObjAddr: 0x2378, symBinAddr: 0x2620C, symSize: 0x220 }
  - { offsetInCU: 0x4C93, offset: 0x10E552, size: 0x8, addend: 0x0, symName: __ZN4absl12lts_2021110218debugging_internalL18ParseExprCastValueEPNS1_5StateE, symObjAddr: 0x2598, symBinAddr: 0x2642C, symSize: 0x12C }
  - { offsetInCU: 0x4F0F, offset: 0x10E7CE, size: 0x8, addend: 0x0, symName: __ZN4absl12lts_2021110218debugging_internalL23ParseBaseUnresolvedNameEPNS1_5StateE, symObjAddr: 0x26C4, symBinAddr: 0x26558, symSize: 0x11C }
  - { offsetInCU: 0x5159, offset: 0x10EA18, size: 0x8, addend: 0x0, symName: __ZN4absl12lts_2021110218debugging_internalL20ParseLocalSourceNameEPNS1_5StateE, symObjAddr: 0x29B4, symBinAddr: 0x26848, symSize: 0xA8 }
  - { offsetInCU: 0x26, offset: 0x10F586, size: 0x8, addend: 0x0, symName: __ZN4absl12lts_2021110215random_internal24InitDiscreteDistributionEPNSt3__16vectorIdNS2_9allocatorIdEEEE, symObjAddr: 0x0, symBinAddr: 0x26C3C, symSize: 0x610 }
  - { offsetInCU: 0x5433, offset: 0x114993, size: 0x8, addend: 0x0, symName: __ZNSt3__119__allocate_at_leastB7v160006INS_9allocatorINS_4pairIdmEEEEEENS_19__allocation_resultINS_16allocator_traitsIT_E7pointerEEERS7_m, symObjAddr: 0x738, symBinAddr: 0x27300, symSize: 0x34 }
  - { offsetInCU: 0x54E4, offset: 0x114A44, size: 0x8, addend: 0x0, symName: __ZNSt3__119__allocate_at_leastB7v160006INS_9allocatorImEEEENS_19__allocation_resultINS_16allocator_traitsIT_E7pointerEEERS5_m, symObjAddr: 0x7A8, symBinAddr: 0x27348, symSize: 0x34 }
  - { offsetInCU: 0x5582, offset: 0x114AE2, size: 0x8, addend: 0x0, symName: __ZN4absl12lts_2021110215random_internal24InitDiscreteDistributionEPNSt3__16vectorIdNS2_9allocatorIdEEEE.cold.1, symObjAddr: 0x7DC, symBinAddr: 0x542F8, symSize: 0x28 }
  - { offsetInCU: 0x7B35, offset: 0x117095, size: 0x8, addend: 0x0, symName: __ZN4absl12lts_2021110215random_internal24InitDiscreteDistributionEPNSt3__16vectorIdNS2_9allocatorIdEEEE, symObjAddr: 0x0, symBinAddr: 0x26C3C, symSize: 0x610 }
  - { offsetInCU: 0xA5BC, offset: 0x119B1C, size: 0x8, addend: 0x0, symName: __ZNSt3__16vectorINS_4pairIdmEENS_9allocatorIS2_EEE7reserveEm, symObjAddr: 0x610, symBinAddr: 0x2724C, symSize: 0xA0 }
  - { offsetInCU: 0xA8D9, offset: 0x119E39, size: 0x8, addend: 0x0, symName: __ZNKSt3__16vectorINS_4pairIdmEENS_9allocatorIS2_EEE20__throw_length_errorB7v160006Ev, symObjAddr: 0x6B0, symBinAddr: 0x272EC, symSize: 0x14 }
  - { offsetInCU: 0xA8EB, offset: 0x119E4B, size: 0x8, addend: 0x0, symName: __ZN4absl12lts_2021110215random_internal24InitDiscreteDistributionEPNSt3__16vectorIdNS2_9allocatorIdEEEE.cold.1, symObjAddr: 0x7DC, symBinAddr: 0x542F8, symSize: 0x28 }
  - { offsetInCU: 0xA903, offset: 0x119E63, size: 0x8, addend: 0x0, symName: __ZN4absl12lts_2021110215random_internal24InitDiscreteDistributionEPNSt3__16vectorIdNS2_9allocatorIdEEEE.cold.2, symObjAddr: 0x804, symBinAddr: 0x54320, symSize: 0x28 }
  - { offsetInCU: 0xA91B, offset: 0x119E7B, size: 0x8, addend: 0x0, symName: __ZNKSt3__16vectorINS_4pairIdmEENS_9allocatorIS2_EEE20__throw_length_errorB7v160006Ev, symObjAddr: 0x6B0, symBinAddr: 0x272EC, symSize: 0x14 }
  - { offsetInCU: 0xA94F, offset: 0x119EAF, size: 0x8, addend: 0x0, symName: __ZNKSt3__16vectorImNS_9allocatorImEEE20__throw_length_errorB7v160006Ev, symObjAddr: 0x794, symBinAddr: 0x27334, symSize: 0x14 }
  - { offsetInCU: 0xA978, offset: 0x119ED8, size: 0x8, addend: 0x0, symName: __ZNSt3__119__allocate_at_leastB7v160006INS_9allocatorImEEEENS_19__allocation_resultINS_16allocator_traitsIT_E7pointerEEERS5_m, symObjAddr: 0x7A8, symBinAddr: 0x27348, symSize: 0x34 }
  - { offsetInCU: 0x26, offset: 0x119FB3, size: 0x8, addend: 0x0, symName: __ZN4absl12lts_2021110213time_internal12IDivDurationEbNS0_8DurationES2_PS2_, symObjAddr: 0x0, symBinAddr: 0x2737C, symSize: 0x3A4 }
  - { offsetInCU: 0x76, offset: 0x11A003, size: 0x8, addend: 0x0, symName: __ZN4absl12lts_2021110212_GLOBAL__N_112kDisplayNanoE, symObjAddr: 0x20E0, symBinAddr: 0x6CE70, symSize: 0x0 }
  - { offsetInCU: 0xC3, offset: 0x11A050, size: 0x8, addend: 0x0, symName: __ZN4absl12lts_2021110212_GLOBAL__N_113kDisplayMicroE, symObjAddr: 0x2100, symBinAddr: 0x6CE90, symSize: 0x0 }
  - { offsetInCU: 0xDE, offset: 0x11A06B, size: 0x8, addend: 0x0, symName: __ZN4absl12lts_2021110212_GLOBAL__N_113kDisplayMilliE, symObjAddr: 0x2120, symBinAddr: 0x6CEB0, symSize: 0x0 }
  - { offsetInCU: 0xF9, offset: 0x11A086, size: 0x8, addend: 0x0, symName: __ZN4absl12lts_2021110212_GLOBAL__N_112kDisplayHourE, symObjAddr: 0x2140, symBinAddr: 0x6CED0, symSize: 0x0 }
  - { offsetInCU: 0x114, offset: 0x11A0A1, size: 0x8, addend: 0x0, symName: __ZN4absl12lts_2021110212_GLOBAL__N_111kDisplayMinE, symObjAddr: 0x2160, symBinAddr: 0x6CEF0, symSize: 0x0 }
  - { offsetInCU: 0x12F, offset: 0x11A0BC, size: 0x8, addend: 0x0, symName: __ZN4absl12lts_2021110212_GLOBAL__N_111kDisplaySecE, symObjAddr: 0x2180, symBinAddr: 0x6CF10, symSize: 0x0 }
  - { offsetInCU: 0x57B, offset: 0x11A508, size: 0x8, addend: 0x0, symName: __ZN4absl12lts_2021110212_GLOBAL__N_116AppendNumberUnitEPNSt3__112basic_stringIcNS2_11char_traitsIcEENS2_9allocatorIcEEEExNS1_11DisplayUnitE, symObjAddr: 0x19B8, symBinAddr: 0x28D34, symSize: 0x120 }
  - { offsetInCU: 0x644, offset: 0x11A5D1, size: 0x8, addend: 0x0, symName: __ZN4absl12lts_2021110212_GLOBAL__N_116AppendNumberUnitEPNSt3__112basic_stringIcNS2_11char_traitsIcEENS2_9allocatorIcEEEEdNS1_11DisplayUnitE, symObjAddr: 0x1798, symBinAddr: 0x28B14, symSize: 0x220 }
  - { offsetInCU: 0x9C9, offset: 0x11A956, size: 0x8, addend: 0x0, symName: __ZN4absl12lts_2021110213time_internal16ToChronoDurationINSt3__16chrono8durationIxNS3_5ratioILl1ELl1000000EEEEEEET_NS0_8DurationE, symObjAddr: 0x12E4, symBinAddr: 0x28660, symSize: 0x74 }
  - { offsetInCU: 0xA89, offset: 0x11AA16, size: 0x8, addend: 0x0, symName: __ZN4absl12lts_2021110213time_internal16ToChronoDurationINSt3__16chrono8durationIxNS3_5ratioILl1ELl1000EEEEEEET_NS0_8DurationE, symObjAddr: 0x135C, symBinAddr: 0x286D8, symSize: 0x74 }
  - { offsetInCU: 0xB60, offset: 0x11AAED, size: 0x8, addend: 0x0, symName: __ZN4absl12lts_2021110213time_internal12IDivDurationEbNS0_8DurationES2_PS2_, symObjAddr: 0x0, symBinAddr: 0x2737C, symSize: 0x3A4 }
  - { offsetInCU: 0x143E, offset: 0x11B3CB, size: 0x8, addend: 0x0, symName: __ZN4absl12lts_20211102ngENS0_8DurationE, symObjAddr: 0x3A4, symBinAddr: 0x27720, symSize: 0x4C }
  - { offsetInCU: 0x146D, offset: 0x11B3FA, size: 0x8, addend: 0x0, symName: __ZN4absl12lts_20211102ngENS0_8DurationE, symObjAddr: 0x3A4, symBinAddr: 0x27720, symSize: 0x4C }
  - { offsetInCU: 0x14FD, offset: 0x11B48A, size: 0x8, addend: 0x0, symName: __ZN4absl12lts_2021110212FDivDurationENS0_8DurationES1_, symObjAddr: 0xB90, symBinAddr: 0x27F0C, symSize: 0x68 }
  - { offsetInCU: 0x157E, offset: 0x11B50B, size: 0x8, addend: 0x0, symName: __ZN4absl12lts_202111025TruncENS0_8DurationES1_, symObjAddr: 0xBF8, symBinAddr: 0x27F74, symSize: 0x5C }
  - { offsetInCU: 0x1699, offset: 0x11B626, size: 0x8, addend: 0x0, symName: __ZN4absl12lts_202111025FloorENS0_8DurationES1_, symObjAddr: 0xC54, symBinAddr: 0x27FD0, symSize: 0xBC }
  - { offsetInCU: 0x1801, offset: 0x11B78E, size: 0x8, addend: 0x0, symName: __ZN4absl12lts_202111024CeilENS0_8DurationES1_, symObjAddr: 0xD10, symBinAddr: 0x2808C, symSize: 0xBC }
  - { offsetInCU: 0x1948, offset: 0x11B8D5, size: 0x8, addend: 0x0, symName: __ZN4absl12lts_2021110220DurationFromTimespecE8timespec, symObjAddr: 0xDCC, symBinAddr: 0x28148, symSize: 0x68 }
  - { offsetInCU: 0x1A52, offset: 0x11B9DF, size: 0x8, addend: 0x0, symName: __ZN4absl12lts_2021110219DurationFromTimevalE7timeval, symObjAddr: 0xE34, symBinAddr: 0x281B0, symSize: 0x78 }
  - { offsetInCU: 0x1B7A, offset: 0x11BB07, size: 0x8, addend: 0x0, symName: __ZN4absl12lts_2021110218ToInt64NanosecondsENS0_8DurationE, symObjAddr: 0xEAC, symBinAddr: 0x28228, symSize: 0x50 }
  - { offsetInCU: 0x1BE6, offset: 0x11BB73, size: 0x8, addend: 0x0, symName: __ZN4absl12lts_2021110219ToInt64MicrosecondsENS0_8DurationE, symObjAddr: 0xEFC, symBinAddr: 0x28278, symSize: 0x60 }
  - { offsetInCU: 0x1C43, offset: 0x11BBD0, size: 0x8, addend: 0x0, symName: __ZN4absl12lts_2021110219ToInt64MillisecondsENS0_8DurationE, symObjAddr: 0xF5C, symBinAddr: 0x282D8, symSize: 0x60 }
  - { offsetInCU: 0x1C99, offset: 0x11BC26, size: 0x8, addend: 0x0, symName: __ZN4absl12lts_2021110214ToInt64SecondsENS0_8DurationE, symObjAddr: 0xFBC, symBinAddr: 0x28338, symSize: 0x24 }
  - { offsetInCU: 0x1CEA, offset: 0x11BC77, size: 0x8, addend: 0x0, symName: __ZN4absl12lts_2021110214ToInt64MinutesENS0_8DurationE, symObjAddr: 0xFE0, symBinAddr: 0x2835C, symSize: 0x38 }
  - { offsetInCU: 0x1D11, offset: 0x11BC9E, size: 0x8, addend: 0x0, symName: __ZN4absl12lts_2021110214ToInt64MinutesENS0_8DurationE, symObjAddr: 0xFE0, symBinAddr: 0x2835C, symSize: 0x38 }
  - { offsetInCU: 0x1D23, offset: 0x11BCB0, size: 0x8, addend: 0x0, symName: __ZN4absl12lts_2021110212ToInt64HoursENS0_8DurationE, symObjAddr: 0x1018, symBinAddr: 0x28394, symSize: 0x3C }
  - { offsetInCU: 0x1D4A, offset: 0x11BCD7, size: 0x8, addend: 0x0, symName: __ZN4absl12lts_2021110212ToInt64HoursENS0_8DurationE, symObjAddr: 0x1018, symBinAddr: 0x28394, symSize: 0x3C }
  - { offsetInCU: 0x1D9E, offset: 0x11BD2B, size: 0x8, addend: 0x0, symName: __ZN4absl12lts_2021110219ToDoubleNanosecondsENS0_8DurationE, symObjAddr: 0x1054, symBinAddr: 0x283D0, symSize: 0x44 }
  - { offsetInCU: 0x1DEA, offset: 0x11BD77, size: 0x8, addend: 0x0, symName: __ZN4absl12lts_2021110220ToDoubleMicrosecondsENS0_8DurationE, symObjAddr: 0x1098, symBinAddr: 0x28414, symSize: 0x48 }
  - { offsetInCU: 0x1E36, offset: 0x11BDC3, size: 0x8, addend: 0x0, symName: __ZN4absl12lts_2021110220ToDoubleMillisecondsENS0_8DurationE, symObjAddr: 0x10E0, symBinAddr: 0x2845C, symSize: 0x48 }
  - { offsetInCU: 0x1E82, offset: 0x11BE0F, size: 0x8, addend: 0x0, symName: __ZN4absl12lts_2021110215ToDoubleSecondsENS0_8DurationE, symObjAddr: 0x1128, symBinAddr: 0x284A4, symSize: 0x40 }
  - { offsetInCU: 0x1ECE, offset: 0x11BE5B, size: 0x8, addend: 0x0, symName: __ZN4absl12lts_2021110215ToDoubleMinutesENS0_8DurationE, symObjAddr: 0x1168, symBinAddr: 0x284E4, symSize: 0x48 }
  - { offsetInCU: 0x1F1A, offset: 0x11BEA7, size: 0x8, addend: 0x0, symName: __ZN4absl12lts_2021110213ToDoubleHoursENS0_8DurationE, symObjAddr: 0x11B0, symBinAddr: 0x2852C, symSize: 0x48 }
  - { offsetInCU: 0x1F66, offset: 0x11BEF3, size: 0x8, addend: 0x0, symName: __ZN4absl12lts_2021110210ToTimespecENS0_8DurationE, symObjAddr: 0x11F8, symBinAddr: 0x28574, symSize: 0x6C }
  - { offsetInCU: 0x1FFA, offset: 0x11BF87, size: 0x8, addend: 0x0, symName: __ZN4absl12lts_202111029ToTimevalENS0_8DurationE, symObjAddr: 0x1264, symBinAddr: 0x285E0, symSize: 0x64 }
  - { offsetInCU: 0x2061, offset: 0x11BFEE, size: 0x8, addend: 0x0, symName: __ZN4absl12lts_2021110219ToChronoNanosecondsENS0_8DurationE, symObjAddr: 0x12C8, symBinAddr: 0x28644, symSize: 0x18 }
  - { offsetInCU: 0x20D2, offset: 0x11C05F, size: 0x8, addend: 0x0, symName: __ZN4absl12lts_2021110220ToChronoMicrosecondsENS0_8DurationE, symObjAddr: 0x12E0, symBinAddr: 0x2865C, symSize: 0x4 }
  - { offsetInCU: 0x2101, offset: 0x11C08E, size: 0x8, addend: 0x0, symName: __ZN4absl12lts_2021110220ToChronoMicrosecondsENS0_8DurationE, symObjAddr: 0x12E0, symBinAddr: 0x2865C, symSize: 0x4 }
  - { offsetInCU: 0x2138, offset: 0x11C0C5, size: 0x8, addend: 0x0, symName: __ZN4absl12lts_2021110220ToChronoMillisecondsENS0_8DurationE, symObjAddr: 0x1358, symBinAddr: 0x286D4, symSize: 0x4 }
  - { offsetInCU: 0x2167, offset: 0x11C0F4, size: 0x8, addend: 0x0, symName: __ZN4absl12lts_2021110220ToChronoMillisecondsENS0_8DurationE, symObjAddr: 0x1358, symBinAddr: 0x286D4, symSize: 0x4 }
  - { offsetInCU: 0x219E, offset: 0x11C12B, size: 0x8, addend: 0x0, symName: __ZN4absl12lts_2021110215ToChronoSecondsENS0_8DurationE, symObjAddr: 0x13D0, symBinAddr: 0x2874C, symSize: 0x30 }
  - { offsetInCU: 0x2209, offset: 0x11C196, size: 0x8, addend: 0x0, symName: __ZN4absl12lts_2021110215ToChronoMinutesENS0_8DurationE, symObjAddr: 0x1400, symBinAddr: 0x2877C, symSize: 0x40 }
  - { offsetInCU: 0x2238, offset: 0x11C1C5, size: 0x8, addend: 0x0, symName: __ZN4absl12lts_2021110215ToChronoMinutesENS0_8DurationE, symObjAddr: 0x1400, symBinAddr: 0x2877C, symSize: 0x40 }
  - { offsetInCU: 0x2256, offset: 0x11C1E3, size: 0x8, addend: 0x0, symName: __ZN4absl12lts_2021110215ToChronoMinutesENS0_8DurationE, symObjAddr: 0x1400, symBinAddr: 0x2877C, symSize: 0x40 }
  - { offsetInCU: 0x22DD, offset: 0x11C26A, size: 0x8, addend: 0x0, symName: __ZN4absl12lts_2021110213ToChronoHoursENS0_8DurationE, symObjAddr: 0x1440, symBinAddr: 0x287BC, symSize: 0x44 }
  - { offsetInCU: 0x230C, offset: 0x11C299, size: 0x8, addend: 0x0, symName: __ZN4absl12lts_2021110213ToChronoHoursENS0_8DurationE, symObjAddr: 0x1440, symBinAddr: 0x287BC, symSize: 0x44 }
  - { offsetInCU: 0x232A, offset: 0x11C2B7, size: 0x8, addend: 0x0, symName: __ZN4absl12lts_2021110213ToChronoHoursENS0_8DurationE, symObjAddr: 0x1440, symBinAddr: 0x287BC, symSize: 0x44 }
  - { offsetInCU: 0x23BD, offset: 0x11C34A, size: 0x8, addend: 0x0, symName: __ZN4absl12lts_2021110214FormatDurationENS0_8DurationE, symObjAddr: 0x1484, symBinAddr: 0x28800, symSize: 0x314 }
  - { offsetInCU: 0x29FC, offset: 0x11C989, size: 0x8, addend: 0x0, symName: __ZN4absl12lts_2021110213ParseDurationENS0_11string_viewEPNS0_8DurationE, symObjAddr: 0x1AD8, symBinAddr: 0x28E54, symSize: 0x354 }
  - { offsetInCU: 0x2CF7, offset: 0x11CC84, size: 0x8, addend: 0x0, symName: __ZN4absl12lts_2021110213AbslParseFlagENS0_11string_viewEPNS0_8DurationEPNSt3__112basic_stringIcNS4_11char_traitsIcEENS4_9allocatorIcEEEE, symObjAddr: 0x1E2C, symBinAddr: 0x291A8, symSize: 0x4 }
  - { offsetInCU: 0x2D40, offset: 0x11CCCD, size: 0x8, addend: 0x0, symName: __ZN4absl12lts_2021110213AbslParseFlagENS0_11string_viewEPNS0_8DurationEPNSt3__112basic_stringIcNS4_11char_traitsIcEENS4_9allocatorIcEEEE, symObjAddr: 0x1E2C, symBinAddr: 0x291A8, symSize: 0x4 }
  - { offsetInCU: 0x2D60, offset: 0x11CCED, size: 0x8, addend: 0x0, symName: __ZN4absl12lts_2021110215AbslUnparseFlagENS0_8DurationE, symObjAddr: 0x1E30, symBinAddr: 0x291AC, symSize: 0x4 }
  - { offsetInCU: 0x2D8F, offset: 0x11CD1C, size: 0x8, addend: 0x0, symName: __ZN4absl12lts_2021110215AbslUnparseFlagENS0_8DurationE, symObjAddr: 0x1E30, symBinAddr: 0x291AC, symSize: 0x4 }
  - { offsetInCU: 0x2DAF, offset: 0x11CD3C, size: 0x8, addend: 0x0, symName: __ZN4absl12lts_202111029ParseFlagERKNSt3__112basic_stringIcNS1_11char_traitsIcEENS1_9allocatorIcEEEEPNS0_8DurationEPS7_, symObjAddr: 0x1E34, symBinAddr: 0x291B0, symSize: 0x20 }
  - { offsetInCU: 0x2E8A, offset: 0x11CE17, size: 0x8, addend: 0x0, symName: __ZN4absl12lts_2021110211UnparseFlagENS0_8DurationE, symObjAddr: 0x1E54, symBinAddr: 0x291D0, symSize: 0x4 }
  - { offsetInCU: 0x2EB9, offset: 0x11CE46, size: 0x8, addend: 0x0, symName: __ZN4absl12lts_2021110211UnparseFlagENS0_8DurationE, symObjAddr: 0x1E54, symBinAddr: 0x291D0, symSize: 0x4 }
  - { offsetInCU: 0x8072, offset: 0x121FFF, size: 0x8, addend: 0x0, symName: __ZN4absl12lts_202111028DurationpLES1_, symObjAddr: 0x3F0, symBinAddr: 0x2776C, symSize: 0x8C }
  - { offsetInCU: 0x80E4, offset: 0x122071, size: 0x8, addend: 0x0, symName: __ZN4absl12lts_202111028DurationmIES1_, symObjAddr: 0x47C, symBinAddr: 0x277F8, symSize: 0x80 }
  - { offsetInCU: 0x8167, offset: 0x1220F4, size: 0x8, addend: 0x0, symName: __ZN4absl12lts_202111028DurationmLEx, symObjAddr: 0x4FC, symBinAddr: 0x27878, symSize: 0x200 }
  - { offsetInCU: 0x84A9, offset: 0x122436, size: 0x8, addend: 0x0, symName: __ZN4absl12lts_202111028DurationmLEd, symObjAddr: 0x6FC, symBinAddr: 0x27A78, symSize: 0x190 }
  - { offsetInCU: 0x84B3, offset: 0x122440, size: 0x8, addend: 0x0, symName: __ZN4absl12lts_202111028DurationmLEx.cold.1, symObjAddr: 0x1F7C, symBinAddr: 0x54348, symSize: 0x28 }
  - { offsetInCU: 0x8568, offset: 0x1224F5, size: 0x8, addend: 0x0, symName: __ZN4absl12lts_202111028DurationmLEd, symObjAddr: 0x6FC, symBinAddr: 0x27A78, symSize: 0x190 }
  - { offsetInCU: 0x8748, offset: 0x1226D5, size: 0x8, addend: 0x0, symName: __ZN4absl12lts_202111028DurationdVEx, symObjAddr: 0x88C, symBinAddr: 0x27C08, symSize: 0x14C }
  - { offsetInCU: 0x89E9, offset: 0x122976, size: 0x8, addend: 0x0, symName: __ZN4absl12lts_202111028DurationdVEd, symObjAddr: 0x9D8, symBinAddr: 0x27D54, symSize: 0x180 }
  - { offsetInCU: 0x8B89, offset: 0x122B16, size: 0x8, addend: 0x0, symName: __ZN4absl12lts_202111028DurationrMES1_, symObjAddr: 0xB58, symBinAddr: 0x27ED4, symSize: 0x38 }
  - { offsetInCU: 0x26, offset: 0x1233EE, size: 0x8, addend: 0x0, symName: __ZN4absl12lts_202111029CUnescapeENS0_11string_viewEPNSt3__112basic_stringIcNS2_11char_traitsIcEENS2_9allocatorIcEEEES9_, symObjAddr: 0x0, symBinAddr: 0x291D4, symSize: 0x838 }
  - { offsetInCU: 0x58, offset: 0x123420, size: 0x8, addend: 0x0, symName: __ZN4absl12lts_2021110212_GLOBAL__N_113c_escaped_lenE, symObjAddr: 0x1B0B, symBinAddr: 0x5ACDB, symSize: 0x0 }
  - { offsetInCU: 0x73, offset: 0x12343B, size: 0x8, addend: 0x0, symName: __ZN4absl12lts_2021110212_GLOBAL__N_19kUnBase64E, symObjAddr: 0x18CA, symBinAddr: 0x5AA9A, symSize: 0x0 }
  - { offsetInCU: 0x8E, offset: 0x123456, size: 0x8, addend: 0x0, symName: __ZN4absl12lts_2021110212_GLOBAL__N_116kUnWebSafeBase64E, symObjAddr: 0x19CA, symBinAddr: 0x5AB9A, symSize: 0x0 }
  - { offsetInCU: 0xA9, offset: 0x123471, size: 0x8, addend: 0x0, symName: __ZN4absl12lts_2021110212_GLOBAL__N_119kWebSafeBase64CharsE, symObjAddr: 0x1ACA, symBinAddr: 0x5AC9A, symSize: 0x0 }
  - { offsetInCU: 0xC4, offset: 0x12348C, size: 0x8, addend: 0x0, symName: __ZN4absl12lts_2021110212_GLOBAL__N_116kHexValueLenientE, symObjAddr: 0x1C0B, symBinAddr: 0x5ADDB, symSize: 0x0 }
  - { offsetInCU: 0x397, offset: 0x12375F, size: 0x8, addend: 0x0, symName: __ZN4absl12lts_2021110212_GLOBAL__N_115CEscapeInternalENS0_11string_viewEbb, symObjAddr: 0x9E0, symBinAddr: 0x29BB4, symSize: 0x21C }
  - { offsetInCU: 0x600, offset: 0x1239C8, size: 0x8, addend: 0x0, symName: __ZN4absl12lts_2021110212_GLOBAL__N_122Base64UnescapeInternalINSt3__112basic_stringIcNS3_11char_traitsIcEENS3_9allocatorIcEEEEEEbPKcmPT_PKa, symObjAddr: 0xC20, symBinAddr: 0x29DF4, symSize: 0x708 }
  - { offsetInCU: 0xA12, offset: 0x123DDA, size: 0x8, addend: 0x0, symName: __ZN4absl12lts_2021110221WebSafeBase64UnescapeENS0_11string_viewEPNSt3__112basic_stringIcNS2_11char_traitsIcEENS2_9allocatorIcEEEE, symObjAddr: 0x1328, symBinAddr: 0x2A4FC, symSize: 0xC }
  - { offsetInCU: 0xC66, offset: 0x12402E, size: 0x8, addend: 0x0, symName: __ZN4absl12lts_2021110216strings_internal20Base64EscapeInternalINSt3__112basic_stringIcNS3_11char_traitsIcEENS3_9allocatorIcEEEEEEvPKhmPT_bPKc, symObjAddr: 0x1344, symBinAddr: 0x2A518, symSize: 0x9C }
  - { offsetInCU: 0xDFA, offset: 0x1241C2, size: 0x8, addend: 0x0, symName: __ZN4absl12lts_2021110219WebSafeBase64EscapeENS0_11string_viewEPNSt3__112basic_stringIcNS2_11char_traitsIcEENS2_9allocatorIcEEEE, symObjAddr: 0x13E0, symBinAddr: 0x2A5B4, symSize: 0x10 }
  - { offsetInCU: 0xE72, offset: 0x12423A, size: 0x8, addend: 0x0, symName: __ZN4absl12lts_202111029CUnescapeENS0_11string_viewEPNSt3__112basic_stringIcNS2_11char_traitsIcEENS2_9allocatorIcEEEES9_, symObjAddr: 0x0, symBinAddr: 0x291D4, symSize: 0x838 }
  - { offsetInCU: 0x1E90, offset: 0x125258, size: 0x8, addend: 0x0, symName: __ZN4absl12lts_202111027CEscapeENS0_11string_viewE, symObjAddr: 0x838, symBinAddr: 0x29A0C, symSize: 0x19C }
  - { offsetInCU: 0x216F, offset: 0x125537, size: 0x8, addend: 0x0, symName: __ZN4absl12lts_2021110210CHexEscapeENS0_11string_viewE, symObjAddr: 0x9D4, symBinAddr: 0x29BA8, symSize: 0xC }
  - { offsetInCU: 0x21E4, offset: 0x1255AC, size: 0x8, addend: 0x0, symName: __ZN4absl12lts_2021110215Utf8SafeCEscapeENS0_11string_viewE, symObjAddr: 0xBFC, symBinAddr: 0x29DD0, symSize: 0xC }
  - { offsetInCU: 0x223D, offset: 0x125605, size: 0x8, addend: 0x0, symName: __ZN4absl12lts_2021110218Utf8SafeCHexEscapeENS0_11string_viewE, symObjAddr: 0xC08, symBinAddr: 0x29DDC, symSize: 0xC }
  - { offsetInCU: 0x2296, offset: 0x12565E, size: 0x8, addend: 0x0, symName: __ZN4absl12lts_2021110214Base64UnescapeENS0_11string_viewEPNSt3__112basic_stringIcNS2_11char_traitsIcEENS2_9allocatorIcEEEE, symObjAddr: 0xC14, symBinAddr: 0x29DE8, symSize: 0xC }
  - { offsetInCU: 0x233C, offset: 0x125704, size: 0x8, addend: 0x0, symName: __ZN4absl12lts_2021110221WebSafeBase64UnescapeENS0_11string_viewEPNSt3__112basic_stringIcNS2_11char_traitsIcEENS2_9allocatorIcEEEE, symObjAddr: 0x1328, symBinAddr: 0x2A4FC, symSize: 0xC }
  - { offsetInCU: 0x239E, offset: 0x125766, size: 0x8, addend: 0x0, symName: __ZN4absl12lts_2021110212Base64EscapeENS0_11string_viewEPNSt3__112basic_stringIcNS2_11char_traitsIcEENS2_9allocatorIcEEEE, symObjAddr: 0x1334, symBinAddr: 0x2A508, symSize: 0x10 }
  - { offsetInCU: 0x2401, offset: 0x1257C9, size: 0x8, addend: 0x0, symName: __ZN4absl12lts_2021110219WebSafeBase64EscapeENS0_11string_viewEPNSt3__112basic_stringIcNS2_11char_traitsIcEENS2_9allocatorIcEEEE, symObjAddr: 0x13E0, symBinAddr: 0x2A5B4, symSize: 0x10 }
  - { offsetInCU: 0x2464, offset: 0x12582C, size: 0x8, addend: 0x0, symName: __ZN4absl12lts_2021110212Base64EscapeENS0_11string_viewE, symObjAddr: 0x13F0, symBinAddr: 0x2A5C4, symSize: 0x54 }
  - { offsetInCU: 0x262C, offset: 0x1259F4, size: 0x8, addend: 0x0, symName: __ZN4absl12lts_2021110219WebSafeBase64EscapeENS0_11string_viewE, symObjAddr: 0x1444, symBinAddr: 0x2A618, symSize: 0x54 }
  - { offsetInCU: 0x27F4, offset: 0x125BBC, size: 0x8, addend: 0x0, symName: __ZN4absl12lts_2021110216HexStringToBytesENS0_11string_viewE, symObjAddr: 0x1498, symBinAddr: 0x2A66C, symSize: 0xAC }
  - { offsetInCU: 0x2A83, offset: 0x125E4B, size: 0x8, addend: 0x0, symName: __ZN4absl12lts_2021110216BytesToHexStringENS0_11string_viewE, symObjAddr: 0x1544, symBinAddr: 0x2A718, symSize: 0x8C }
  - { offsetInCU: 0x7D52, offset: 0x12B11A, size: 0x8, addend: 0x0, symName: __ZN4absl12lts_2021110212_GLOBAL__N_122Base64UnescapeInternalINSt3__112basic_stringIcNS3_11char_traitsIcEENS3_9allocatorIcEEEEEEbPKcmPT_PKa.cold.1, symObjAddr: 0x1860, symBinAddr: 0x54370, symSize: 0x28 }
  - { offsetInCU: 0x7D80, offset: 0x12B148, size: 0x8, addend: 0x0, symName: __ZN4absl12lts_2021110216strings_internal20Base64EscapeInternalINSt3__112basic_stringIcNS3_11char_traitsIcEENS3_9allocatorIcEEEEEEvPKhmPT_bPKc.cold.1, symObjAddr: 0x1888, symBinAddr: 0x54398, symSize: 0x28 }
  - { offsetInCU: 0x26, offset: 0x12B3ED, size: 0x8, addend: 0x0, symName: __ZN4absl12lts_2021110216strings_internal33CalculateBase64EscapedLenInternalEmb, symObjAddr: 0x0, symBinAddr: 0x2A7A4, symSize: 0x60 }
  - { offsetInCU: 0x4E, offset: 0x12B415, size: 0x8, addend: 0x0, symName: __ZN4absl12lts_2021110216strings_internal12kBase64CharsE, symObjAddr: 0x27C, symBinAddr: 0x5AEDF, symSize: 0x0 }
  - { offsetInCU: 0x5C, offset: 0x12B423, size: 0x8, addend: 0x0, symName: __ZN4absl12lts_2021110216strings_internal20Base64EscapeInternalEPKhmPcmPKcb, symObjAddr: 0x60, symBinAddr: 0x2A804, symSize: 0x1F0 }
  - { offsetInCU: 0x324, offset: 0x12B6EB, size: 0x8, addend: 0x0, symName: __ZN4absl12lts_2021110216strings_internal33CalculateBase64EscapedLenInternalEmb, symObjAddr: 0x0, symBinAddr: 0x2A7A4, symSize: 0x60 }
  - { offsetInCU: 0x377, offset: 0x12B73E, size: 0x8, addend: 0x0, symName: __ZN4absl12lts_2021110216strings_internal20Base64EscapeInternalEPKhmPcmPKcb, symObjAddr: 0x60, symBinAddr: 0x2A804, symSize: 0x1F0 }
  - { offsetInCU: 0x2E7E, offset: 0x12E245, size: 0x8, addend: 0x0, symName: __ZN4absl12lts_2021110216strings_internal33CalculateBase64EscapedLenInternalEmb.cold.1, symObjAddr: 0x250, symBinAddr: 0x543C0, symSize: 0x28 }
  - { offsetInCU: 0x26, offset: 0x12E29C, size: 0x8, addend: 0x0, symName: __ZN4absl12lts_2021110218profiling_internal17ExponentialBiased12GetSkipCountEx, symObjAddr: 0x0, symBinAddr: 0x2A9F4, symSize: 0xE8 }
  - { offsetInCU: 0x10B, offset: 0x12E381, size: 0x8, addend: 0x0, symName: __ZN4absl12lts_2021110218profiling_internal17ExponentialBiased10InitializeEv, symObjAddr: 0xE8, symBinAddr: 0x2AADC, symSize: 0x50 }
  - { offsetInCU: 0x12F, offset: 0x12E3A5, size: 0x8, addend: 0x0, symName: __ZZN4absl12lts_2021110218profiling_internal17ExponentialBiased10InitializeEvE11global_rand, symObjAddr: 0x8648, symBinAddr: 0x709CC, symSize: 0x0 }
  - { offsetInCU: 0x2C4B, offset: 0x130EC1, size: 0x8, addend: 0x0, symName: __ZN4absl12lts_2021110218profiling_internal17ExponentialBiased12GetSkipCountEx, symObjAddr: 0x0, symBinAddr: 0x2A9F4, symSize: 0xE8 }
  - { offsetInCU: 0x2DC4, offset: 0x13103A, size: 0x8, addend: 0x0, symName: __ZN4absl12lts_2021110218profiling_internal17ExponentialBiased9GetStrideEx, symObjAddr: 0x138, symBinAddr: 0x2AB2C, symSize: 0x1C }
  - { offsetInCU: 0x26, offset: 0x1310AD, size: 0x8, addend: 0x0, symName: __ZN4absl12lts_2021110219str_format_internal13FlagsToStringENS1_5FlagsE, symObjAddr: 0x0, symBinAddr: 0x2AB48, symSize: 0xCC }
  - { offsetInCU: 0x5B, offset: 0x1310E2, size: 0x8, addend: 0x0, symName: __ZN4absl12lts_2021110219str_format_internal28FormatConversionCharInternal1cE, symObjAddr: 0x378, symBinAddr: 0x5AF28, symSize: 0x0 }
  - { offsetInCU: 0x17D, offset: 0x131204, size: 0x8, addend: 0x0, symName: __ZN4absl12lts_2021110219str_format_internal28FormatConversionCharInternal1sE, symObjAddr: 0x379, symBinAddr: 0x5AF29, symSize: 0x0 }
  - { offsetInCU: 0x191, offset: 0x131218, size: 0x8, addend: 0x0, symName: __ZN4absl12lts_2021110219str_format_internal28FormatConversionCharInternal1dE, symObjAddr: 0x37A, symBinAddr: 0x5AF2A, symSize: 0x0 }
  - { offsetInCU: 0x1A5, offset: 0x13122C, size: 0x8, addend: 0x0, symName: __ZN4absl12lts_2021110219str_format_internal28FormatConversionCharInternal1iE, symObjAddr: 0x37B, symBinAddr: 0x5AF2B, symSize: 0x0 }
  - { offsetInCU: 0x1B9, offset: 0x131240, size: 0x8, addend: 0x0, symName: __ZN4absl12lts_2021110219str_format_internal28FormatConversionCharInternal1oE, symObjAddr: 0x37C, symBinAddr: 0x5AF2C, symSize: 0x0 }
  - { offsetInCU: 0x1CD, offset: 0x131254, size: 0x8, addend: 0x0, symName: __ZN4absl12lts_2021110219str_format_internal28FormatConversionCharInternal1uE, symObjAddr: 0x37D, symBinAddr: 0x5AF2D, symSize: 0x0 }
  - { offsetInCU: 0x1E1, offset: 0x131268, size: 0x8, addend: 0x0, symName: __ZN4absl12lts_2021110219str_format_internal28FormatConversionCharInternal1xE, symObjAddr: 0x37E, symBinAddr: 0x5AF2E, symSize: 0x0 }
  - { offsetInCU: 0x1F5, offset: 0x13127C, size: 0x8, addend: 0x0, symName: __ZN4absl12lts_2021110219str_format_internal28FormatConversionCharInternal1XE, symObjAddr: 0x37F, symBinAddr: 0x5AF2F, symSize: 0x0 }
  - { offsetInCU: 0x209, offset: 0x131290, size: 0x8, addend: 0x0, symName: __ZN4absl12lts_2021110219str_format_internal28FormatConversionCharInternal1fE, symObjAddr: 0x380, symBinAddr: 0x5AF30, symSize: 0x0 }
  - { offsetInCU: 0x21D, offset: 0x1312A4, size: 0x8, addend: 0x0, symName: __ZN4absl12lts_2021110219str_format_internal28FormatConversionCharInternal1FE, symObjAddr: 0x381, symBinAddr: 0x5AF31, symSize: 0x0 }
  - { offsetInCU: 0x231, offset: 0x1312B8, size: 0x8, addend: 0x0, symName: __ZN4absl12lts_2021110219str_format_internal28FormatConversionCharInternal1eE, symObjAddr: 0x382, symBinAddr: 0x5AF32, symSize: 0x0 }
  - { offsetInCU: 0x245, offset: 0x1312CC, size: 0x8, addend: 0x0, symName: __ZN4absl12lts_2021110219str_format_internal28FormatConversionCharInternal1EE, symObjAddr: 0x383, symBinAddr: 0x5AF33, symSize: 0x0 }
  - { offsetInCU: 0x259, offset: 0x1312E0, size: 0x8, addend: 0x0, symName: __ZN4absl12lts_2021110219str_format_internal28FormatConversionCharInternal1gE, symObjAddr: 0x384, symBinAddr: 0x5AF34, symSize: 0x0 }
  - { offsetInCU: 0x26D, offset: 0x1312F4, size: 0x8, addend: 0x0, symName: __ZN4absl12lts_2021110219str_format_internal28FormatConversionCharInternal1GE, symObjAddr: 0x385, symBinAddr: 0x5AF35, symSize: 0x0 }
  - { offsetInCU: 0x281, offset: 0x131308, size: 0x8, addend: 0x0, symName: __ZN4absl12lts_2021110219str_format_internal28FormatConversionCharInternal1aE, symObjAddr: 0x386, symBinAddr: 0x5AF36, symSize: 0x0 }
  - { offsetInCU: 0x295, offset: 0x13131C, size: 0x8, addend: 0x0, symName: __ZN4absl12lts_2021110219str_format_internal28FormatConversionCharInternal1AE, symObjAddr: 0x387, symBinAddr: 0x5AF37, symSize: 0x0 }
  - { offsetInCU: 0x2A9, offset: 0x131330, size: 0x8, addend: 0x0, symName: __ZN4absl12lts_2021110219str_format_internal28FormatConversionCharInternal1nE, symObjAddr: 0x388, symBinAddr: 0x5AF38, symSize: 0x0 }
  - { offsetInCU: 0x2BD, offset: 0x131344, size: 0x8, addend: 0x0, symName: __ZN4absl12lts_2021110219str_format_internal28FormatConversionCharInternal1pE, symObjAddr: 0x389, symBinAddr: 0x5AF39, symSize: 0x0 }
  - { offsetInCU: 0x2D1, offset: 0x131358, size: 0x8, addend: 0x0, symName: __ZN4absl12lts_2021110219str_format_internal28FormatConversionCharInternal5kNoneE, symObjAddr: 0x38A, symBinAddr: 0x5AF3A, symSize: 0x0 }
  - { offsetInCU: 0x2E5, offset: 0x13136C, size: 0x8, addend: 0x0, symName: __ZN4absl12lts_2021110219str_format_internal31FormatConversionCharSetInternal1cE, symObjAddr: 0x390, symBinAddr: 0x5AF40, symSize: 0x0 }
  - { offsetInCU: 0x460, offset: 0x1314E7, size: 0x8, addend: 0x0, symName: __ZN4absl12lts_2021110219str_format_internal31FormatConversionCharSetInternal1sE, symObjAddr: 0x398, symBinAddr: 0x5AF48, symSize: 0x0 }
  - { offsetInCU: 0x474, offset: 0x1314FB, size: 0x8, addend: 0x0, symName: __ZN4absl12lts_2021110219str_format_internal31FormatConversionCharSetInternal1dE, symObjAddr: 0x3A0, symBinAddr: 0x5AF50, symSize: 0x0 }
  - { offsetInCU: 0x488, offset: 0x13150F, size: 0x8, addend: 0x0, symName: __ZN4absl12lts_2021110219str_format_internal31FormatConversionCharSetInternal1iE, symObjAddr: 0x3A8, symBinAddr: 0x5AF58, symSize: 0x0 }
  - { offsetInCU: 0x49C, offset: 0x131523, size: 0x8, addend: 0x0, symName: __ZN4absl12lts_2021110219str_format_internal31FormatConversionCharSetInternal1oE, symObjAddr: 0x3B0, symBinAddr: 0x5AF60, symSize: 0x0 }
  - { offsetInCU: 0x4B0, offset: 0x131537, size: 0x8, addend: 0x0, symName: __ZN4absl12lts_2021110219str_format_internal31FormatConversionCharSetInternal1uE, symObjAddr: 0x3B8, symBinAddr: 0x5AF68, symSize: 0x0 }
  - { offsetInCU: 0x4C4, offset: 0x13154B, size: 0x8, addend: 0x0, symName: __ZN4absl12lts_2021110219str_format_internal31FormatConversionCharSetInternal1xE, symObjAddr: 0x3C0, symBinAddr: 0x5AF70, symSize: 0x0 }
  - { offsetInCU: 0x4D8, offset: 0x13155F, size: 0x8, addend: 0x0, symName: __ZN4absl12lts_2021110219str_format_internal31FormatConversionCharSetInternal1XE, symObjAddr: 0x3C8, symBinAddr: 0x5AF78, symSize: 0x0 }
  - { offsetInCU: 0x4EC, offset: 0x131573, size: 0x8, addend: 0x0, symName: __ZN4absl12lts_2021110219str_format_internal31FormatConversionCharSetInternal1fE, symObjAddr: 0x3D0, symBinAddr: 0x5AF80, symSize: 0x0 }
  - { offsetInCU: 0x500, offset: 0x131587, size: 0x8, addend: 0x0, symName: __ZN4absl12lts_2021110219str_format_internal31FormatConversionCharSetInternal1FE, symObjAddr: 0x3D8, symBinAddr: 0x5AF88, symSize: 0x0 }
  - { offsetInCU: 0x514, offset: 0x13159B, size: 0x8, addend: 0x0, symName: __ZN4absl12lts_2021110219str_format_internal31FormatConversionCharSetInternal1eE, symObjAddr: 0x3E0, symBinAddr: 0x5AF90, symSize: 0x0 }
  - { offsetInCU: 0x528, offset: 0x1315AF, size: 0x8, addend: 0x0, symName: __ZN4absl12lts_2021110219str_format_internal31FormatConversionCharSetInternal1EE, symObjAddr: 0x3E8, symBinAddr: 0x5AF98, symSize: 0x0 }
  - { offsetInCU: 0x53C, offset: 0x1315C3, size: 0x8, addend: 0x0, symName: __ZN4absl12lts_2021110219str_format_internal31FormatConversionCharSetInternal1gE, symObjAddr: 0x3F0, symBinAddr: 0x5AFA0, symSize: 0x0 }
  - { offsetInCU: 0x550, offset: 0x1315D7, size: 0x8, addend: 0x0, symName: __ZN4absl12lts_2021110219str_format_internal31FormatConversionCharSetInternal1GE, symObjAddr: 0x3F8, symBinAddr: 0x5AFA8, symSize: 0x0 }
  - { offsetInCU: 0x564, offset: 0x1315EB, size: 0x8, addend: 0x0, symName: __ZN4absl12lts_2021110219str_format_internal31FormatConversionCharSetInternal1aE, symObjAddr: 0x400, symBinAddr: 0x5AFB0, symSize: 0x0 }
  - { offsetInCU: 0x578, offset: 0x1315FF, size: 0x8, addend: 0x0, symName: __ZN4absl12lts_2021110219str_format_internal31FormatConversionCharSetInternal1AE, symObjAddr: 0x408, symBinAddr: 0x5AFB8, symSize: 0x0 }
  - { offsetInCU: 0x58C, offset: 0x131613, size: 0x8, addend: 0x0, symName: __ZN4absl12lts_2021110219str_format_internal31FormatConversionCharSetInternal1nE, symObjAddr: 0x410, symBinAddr: 0x5AFC0, symSize: 0x0 }
  - { offsetInCU: 0x5A0, offset: 0x131627, size: 0x8, addend: 0x0, symName: __ZN4absl12lts_2021110219str_format_internal31FormatConversionCharSetInternal1pE, symObjAddr: 0x418, symBinAddr: 0x5AFC8, symSize: 0x0 }
  - { offsetInCU: 0x5B4, offset: 0x13163B, size: 0x8, addend: 0x0, symName: __ZN4absl12lts_2021110219str_format_internal31FormatConversionCharSetInternal5kStarE, symObjAddr: 0x420, symBinAddr: 0x5AFD0, symSize: 0x0 }
  - { offsetInCU: 0x5C8, offset: 0x13164F, size: 0x8, addend: 0x0, symName: __ZN4absl12lts_2021110219str_format_internal31FormatConversionCharSetInternal9kIntegralE, symObjAddr: 0x428, symBinAddr: 0x5AFD8, symSize: 0x0 }
  - { offsetInCU: 0x5DC, offset: 0x131663, size: 0x8, addend: 0x0, symName: __ZN4absl12lts_2021110219str_format_internal31FormatConversionCharSetInternal9kFloatingE, symObjAddr: 0x430, symBinAddr: 0x5AFE0, symSize: 0x0 }
  - { offsetInCU: 0x5F0, offset: 0x131677, size: 0x8, addend: 0x0, symName: __ZN4absl12lts_2021110219str_format_internal31FormatConversionCharSetInternal8kNumericE, symObjAddr: 0x438, symBinAddr: 0x5AFE8, symSize: 0x0 }
  - { offsetInCU: 0x604, offset: 0x13168B, size: 0x8, addend: 0x0, symName: __ZN4absl12lts_2021110219str_format_internal31FormatConversionCharSetInternal8kPointerE, symObjAddr: 0x440, symBinAddr: 0x5AFF0, symSize: 0x0 }
  - { offsetInCU: 0x612, offset: 0x131699, size: 0x8, addend: 0x0, symName: __ZN4absl12lts_2021110219str_format_internal13FlagsToStringENS1_5FlagsE, symObjAddr: 0x0, symBinAddr: 0x2AB48, symSize: 0xCC }
  - { offsetInCU: 0x4A84, offset: 0x135B0B, size: 0x8, addend: 0x0, symName: __ZN4absl12lts_2021110219str_format_internal14FormatSinkImpl15PutPaddedStringENS0_11string_viewEiib, symObjAddr: 0xCC, symBinAddr: 0x2AC14, symSize: 0x9C }
  - { offsetInCU: 0x4D28, offset: 0x135DAF, size: 0x8, addend: 0x0, symName: __ZN4absl12lts_2021110219str_format_internal14FormatSinkImpl15PutPaddedStringENS0_11string_viewEiib.cold.1, symObjAddr: 0x2D8, symBinAddr: 0x543E8, symSize: 0x28 }
  - { offsetInCU: 0x4E69, offset: 0x135EF0, size: 0x8, addend: 0x0, symName: __ZN4absl12lts_2021110219str_format_internal14FormatSinkImpl15PutPaddedStringENS0_11string_viewEiib.cold.1, symObjAddr: 0x2D8, symBinAddr: 0x543E8, symSize: 0x28 }
  - { offsetInCU: 0x1C7, offset: 0x13611A, size: 0x8, addend: 0x0, symName: __ZN4absl12lts_2021110219str_format_internal12_GLOBAL__N_122FormatFPositiveExpSlowENS0_7uint128EiRKNS2_11FormatStateE, symObjAddr: 0x18C0, symBinAddr: 0x2C564, symSize: 0xA4 }
  - { offsetInCU: 0x414, offset: 0x136367, size: 0x8, addend: 0x0, symName: __ZN4absl12lts_2021110219str_format_internal12_GLOBAL__N_122FormatFNegativeExpSlowENS0_7uint128EiRKNS2_11FormatStateE, symObjAddr: 0x1964, symBinAddr: 0x2C608, symSize: 0x194 }
  - { offsetInCU: 0xE64, offset: 0x136DB7, size: 0x8, addend: 0x0, symName: __ZN4absl12lts_2021110219str_format_internal12_GLOBAL__N_113FloatToBufferILNS2_11FormatStyleE1EeEEbNS2_10DecomposedIT0_EEiPNS2_6BufferEPi, symObjAddr: 0x111C, symBinAddr: 0x2BDCC, symSize: 0x358 }
  - { offsetInCU: 0x10D0, offset: 0x137023, size: 0x8, addend: 0x0, symName: __ZN4absl12lts_2021110219str_format_internal12_GLOBAL__N_118FallbackToSnprintfIeEEbT_RKNS1_24FormatConversionSpecImplEPNS1_14FormatSinkImplE, symObjAddr: 0x1474, symBinAddr: 0x2C124, symSize: 0x220 }
  - { offsetInCU: 0x10ED, offset: 0x137040, size: 0x8, addend: 0x0, symName: __ZN4absl12lts_2021110219str_format_internal12_GLOBAL__N_118FallbackToSnprintfIeEEbT_RKNS1_24FormatConversionSpecImplEPNS1_14FormatSinkImplE, symObjAddr: 0x1474, symBinAddr: 0x2C124, symSize: 0x220 }
  - { offsetInCU: 0x193B, offset: 0x13788E, size: 0x8, addend: 0x0, symName: __ZN4absl12lts_2021110219str_format_internal12_GLOBAL__N_132PrintIntegralDigitsFromRightFastENS0_7uint128EPc, symObjAddr: 0x27C0, symBinAddr: 0x2D2F4, symSize: 0xA0 }
  - { offsetInCU: 0x1A9B, offset: 0x1379EE, size: 0x8, addend: 0x0, symName: __ZN4absl12lts_2021110219str_format_internal12_GLOBAL__N_125PrintFractionalDigitsFastENS0_7uint128EPcii, symObjAddr: 0x2860, symBinAddr: 0x2D394, symSize: 0x17C }
  - { offsetInCU: 0x1CCD, offset: 0x137C20, size: 0x8, addend: 0x0, symName: __ZN4absl12lts_2021110219str_format_internal12_GLOBAL__N_110FinalPrintERKNS2_11FormatStateENS0_11string_viewEiiS6_, symObjAddr: 0x29DC, symBinAddr: 0x2D510, symSize: 0x1B0 }
  - { offsetInCU: 0x1CD7, offset: 0x137C2A, size: 0x8, addend: 0x0, symName: __ZN4absl12lts_2021110219str_format_internal12_GLOBAL__N_110FinalPrintERKNS2_11FormatStateENS0_11string_viewEiiS6_, symObjAddr: 0x29DC, symBinAddr: 0x2D510, symSize: 0x1B0 }
  - { offsetInCU: 0x1EC3, offset: 0x137E16, size: 0x8, addend: 0x0, symName: __ZN4absl12lts_2021110219str_format_internal12_GLOBAL__N_113PrintExponentEicPNS2_6BufferE, symObjAddr: 0x1694, symBinAddr: 0x2C344, symSize: 0x158 }
  - { offsetInCU: 0x2051, offset: 0x137FA4, size: 0x8, addend: 0x0, symName: __ZN4absl12lts_2021110219str_format_internal12_GLOBAL__N_117WriteBufferToSinkEcNS0_11string_viewERKNS1_24FormatConversionSpecImplEPNS1_14FormatSinkImplE, symObjAddr: 0x17EC, symBinAddr: 0x2C49C, symSize: 0xC8 }
  - { offsetInCU: 0x205B, offset: 0x137FAE, size: 0x8, addend: 0x0, symName: __ZN4absl12lts_2021110219str_format_internal12_GLOBAL__N_117WriteBufferToSinkEcNS0_11string_viewERKNS1_24FormatConversionSpecImplEPNS1_14FormatSinkImplE, symObjAddr: 0x17EC, symBinAddr: 0x2C49C, symSize: 0xC8 }
  - { offsetInCU: 0x21C1, offset: 0x138114, size: 0x8, addend: 0x0, symName: __ZN4absl12lts_2021110219str_format_internal12_GLOBAL__N_111FloatToSinkIdEEbT_RKNS1_24FormatConversionSpecImplEPNS1_14FormatSinkImplE, symObjAddr: 0x8C4, symBinAddr: 0x2B574, symSize: 0x854 }
  - { offsetInCU: 0x34BE, offset: 0x139411, size: 0x8, addend: 0x0, symName: __ZN4absl12lts_2021110219str_format_internal12_GLOBAL__N_113FloatToBufferILNS2_11FormatStyleE1EdEEbNS2_10DecomposedIT0_EEiPNS2_6BufferEPi, symObjAddr: 0x2DF8, symBinAddr: 0x2D8E8, symSize: 0x4EC }
  - { offsetInCU: 0x38B7, offset: 0x13980A, size: 0x8, addend: 0x0, symName: __ZN4absl12lts_2021110219str_format_internal12_GLOBAL__N_118FallbackToSnprintfIdEEbT_RKNS1_24FormatConversionSpecImplEPNS1_14FormatSinkImplE, symObjAddr: 0x32E4, symBinAddr: 0x2DDD4, symSize: 0x20C }
  - { offsetInCU: 0x38D4, offset: 0x139827, size: 0x8, addend: 0x0, symName: __ZN4absl12lts_2021110219str_format_internal12_GLOBAL__N_118FallbackToSnprintfIdEEbT_RKNS1_24FormatConversionSpecImplEPNS1_14FormatSinkImplE, symObjAddr: 0x32E4, symBinAddr: 0x2DDD4, symSize: 0x20C }
  - { offsetInCU: 0x4235, offset: 0x13A188, size: 0x8, addend: 0x0, symName: __ZN4absl12lts_2021110219str_format_internal12_GLOBAL__N_119PrintIntegralDigitsILNS2_11FormatStyleE1EoEEiT0_PNS2_6BufferE, symObjAddr: 0x2BD0, symBinAddr: 0x2D6C0, symSize: 0xD4 }
  - { offsetInCU: 0x42EA, offset: 0x13A23D, size: 0x8, addend: 0x0, symName: __ZN4absl12lts_2021110219str_format_internal12_GLOBAL__N_120RemoveExtraPrecisionEibPNS2_6BufferEPi, symObjAddr: 0x2CA4, symBinAddr: 0x2D794, symSize: 0xAC }
  - { offsetInCU: 0x4307, offset: 0x13A25A, size: 0x8, addend: 0x0, symName: __ZN4absl12lts_2021110219str_format_internal12_GLOBAL__N_120RemoveExtraPrecisionEibPNS2_6BufferEPi, symObjAddr: 0x2CA4, symBinAddr: 0x2D794, symSize: 0xAC }
  - { offsetInCU: 0x4416, offset: 0x13A369, size: 0x8, addend: 0x0, symName: __ZN4absl12lts_2021110219str_format_internal12_GLOBAL__N_17RoundUpILNS2_11FormatStyleE1EEEvPNS2_6BufferEPi, symObjAddr: 0x2D50, symBinAddr: 0x2D840, symSize: 0xA8 }
  - { offsetInCU: 0x44CF, offset: 0x13A422, size: 0x8, addend: 0x0, symName: __ZN4absl12lts_2021110219str_format_internal12_GLOBAL__N_113FloatToBufferILNS2_11FormatStyleE1EdEEbNS2_10DecomposedIT0_EEiPNS2_6BufferEPi, symObjAddr: 0x2DF8, symBinAddr: 0x2D8E8, symSize: 0x4EC }
  - { offsetInCU: 0x450D, offset: 0x13A460, size: 0x8, addend: 0x0, symName: __ZN4absl12lts_2021110219str_format_internal12_GLOBAL__N_119ExtraWidthToPaddingEmRKNS2_11FormatStateE, symObjAddr: 0x22C8, symBinAddr: 0x2CF6C, symSize: 0x60 }
  - { offsetInCU: 0x482A, offset: 0x13A77D, size: 0x8, addend: 0x0, symName: __ZN4absl12lts_2021110219str_format_internal12_GLOBAL__N_119PrintIntegralDigitsILNS2_11FormatStyleE1EyEEiT0_PNS2_6BufferE, symObjAddr: 0x34F0, symBinAddr: 0x2DFE0, symSize: 0x8C }
  - { offsetInCU: 0x48DF, offset: 0x13A832, size: 0x8, addend: 0x0, symName: __ZN4absl12lts_2021110219str_format_internal16ConvertFloatImplEeRKNS1_24FormatConversionSpecImplEPNS1_14FormatSinkImplE.cold.1, symObjAddr: 0x357C, symBinAddr: 0x54410, symSize: 0x24 }
  - { offsetInCU: 0x4A4E, offset: 0x13A9A1, size: 0x8, addend: 0x0, symName: __ZN4absl12lts_2021110219str_format_internal16ConvertFloatImplEeRKNS1_24FormatConversionSpecImplEPNS1_14FormatSinkImplE, symObjAddr: 0x0, symBinAddr: 0x2ACB0, symSize: 0x8BC }
  - { offsetInCU: 0x596C, offset: 0x13B8BF, size: 0x8, addend: 0x0, symName: __ZN4absl12lts_2021110219str_format_internal16ConvertFloatImplEfRKNS1_24FormatConversionSpecImplEPNS1_14FormatSinkImplE, symObjAddr: 0x8BC, symBinAddr: 0x2B56C, symSize: 0x8 }
  - { offsetInCU: 0x59D6, offset: 0x13B929, size: 0x8, addend: 0x0, symName: __ZN4absl12lts_2021110219str_format_internal16ConvertFloatImplEdRKNS1_24FormatConversionSpecImplEPNS1_14FormatSinkImplE, symObjAddr: 0x1118, symBinAddr: 0x2BDC8, symSize: 0x4 }
  - { offsetInCU: 0x5A27, offset: 0x13B97A, size: 0x8, addend: 0x0, symName: __ZN4absl12lts_2021110219str_format_internal16ConvertFloatImplEdRKNS1_24FormatConversionSpecImplEPNS1_14FormatSinkImplE, symObjAddr: 0x1118, symBinAddr: 0x2BDC8, symSize: 0x4 }
  - { offsetInCU: 0x5E25, offset: 0x13BD78, size: 0x8, addend: 0x0, symName: __ZN4absl12lts_2021110219functional_internal12InvokeObjectIZNS0_19str_format_internal12_GLOBAL__N_115BinaryToDecimal13RunConversionENS0_7uint128EiNS0_11FunctionRefIFvS5_EEEEUlNS0_4SpanIjEEE_vJSB_EEET0_NS1_7VoidPtrEDpNS1_8ForwardTIT1_E4typeE, symObjAddr: 0x1E0C, symBinAddr: 0x2CAB0, symSize: 0x254 }
  - { offsetInCU: 0x619E, offset: 0x13C0F1, size: 0x8, addend: 0x0, symName: '__ZN4absl12lts_2021110219functional_internal12InvokeObjectIZNS0_19str_format_internal12_GLOBAL__N_122FormatFPositiveExpSlowENS0_7uint128EiRKNS4_11FormatStateEE3$_0vJNS4_15BinaryToDecimalEEEET0_NS1_7VoidPtrEDpNS1_8ForwardTIT1_E4typeE', symObjAddr: 0x20AC, symBinAddr: 0x2CD50, symSize: 0x21C }
  - { offsetInCU: 0x6436, offset: 0x13C389, size: 0x8, addend: 0x0, symName: __ZN4absl12lts_2021110219functional_internal12InvokeObjectIZNS0_19str_format_internal12_GLOBAL__N_124FractionalDigitGenerator13RunConversionENS0_7uint128EiNS0_11FunctionRefIFvS5_EEEEUlNS0_4SpanIjEEE_vJSB_EEET0_NS1_7VoidPtrEDpNS1_8ForwardTIT1_E4typeE, symObjAddr: 0x2498, symBinAddr: 0x2CFCC, symSize: 0xF8 }
  - { offsetInCU: 0x6708, offset: 0x13C65B, size: 0x8, addend: 0x0, symName: '__ZN4absl12lts_2021110219functional_internal12InvokeObjectIZNS0_19str_format_internal12_GLOBAL__N_122FormatFNegativeExpSlowENS0_7uint128EiRKNS4_11FormatStateEE3$_1vJNS4_24FractionalDigitGeneratorEEEET0_NS1_7VoidPtrEDpNS1_8ForwardTIT1_E4typeE', symObjAddr: 0x2624, symBinAddr: 0x2D158, symSize: 0x19C }
  - { offsetInCU: 0xB9EC, offset: 0x14193F, size: 0x8, addend: 0x0, symName: __ZN4absl12lts_2021110219str_format_internal16ConvertFloatImplEeRKNS1_24FormatConversionSpecImplEPNS1_14FormatSinkImplE.cold.4, symObjAddr: 0x35E8, symBinAddr: 0x5447C, symSize: 0x24 }
  - { offsetInCU: 0xBA30, offset: 0x141983, size: 0x8, addend: 0x0, symName: __ZN4absl12lts_2021110219str_format_internal16ConvertFloatImplEeRKNS1_24FormatConversionSpecImplEPNS1_14FormatSinkImplE.cold.8, symObjAddr: 0x3680, symBinAddr: 0x54514, symSize: 0x24 }
  - { offsetInCU: 0xBACA, offset: 0x141A1D, size: 0x8, addend: 0x0, symName: __ZN4absl12lts_2021110219str_format_internal16ConvertFloatImplEeRKNS1_24FormatConversionSpecImplEPNS1_14FormatSinkImplE.cold.1, symObjAddr: 0x357C, symBinAddr: 0x54410, symSize: 0x24 }
  - { offsetInCU: 0xBB7A, offset: 0x141ACD, size: 0x8, addend: 0x0, symName: __ZN4absl12lts_2021110219str_format_internal16ConvertFloatImplEeRKNS1_24FormatConversionSpecImplEPNS1_14FormatSinkImplE.cold.6, symObjAddr: 0x3634, symBinAddr: 0x544C8, symSize: 0x28 }
  - { offsetInCU: 0xBBBE, offset: 0x141B11, size: 0x8, addend: 0x0, symName: __ZN4absl12lts_2021110219str_format_internal16ConvertFloatImplEeRKNS1_24FormatConversionSpecImplEPNS1_14FormatSinkImplE.cold.7, symObjAddr: 0x365C, symBinAddr: 0x544F0, symSize: 0x24 }
  - { offsetInCU: 0xBC58, offset: 0x141BAB, size: 0x8, addend: 0x0, symName: __ZN4absl12lts_2021110219str_format_internal16ConvertFloatImplEeRKNS1_24FormatConversionSpecImplEPNS1_14FormatSinkImplE.cold.2, symObjAddr: 0x35A0, symBinAddr: 0x54434, symSize: 0x24 }
  - { offsetInCU: 0xBCDC, offset: 0x141C2F, size: 0x8, addend: 0x0, symName: __ZN4absl12lts_2021110219str_format_internal16ConvertFloatImplEeRKNS1_24FormatConversionSpecImplEPNS1_14FormatSinkImplE.cold.5, symObjAddr: 0x360C, symBinAddr: 0x544A0, symSize: 0x28 }
  - { offsetInCU: 0xBD4C, offset: 0x141C9F, size: 0x8, addend: 0x0, symName: __ZN4absl12lts_2021110219str_format_internal16ConvertFloatImplEeRKNS1_24FormatConversionSpecImplEPNS1_14FormatSinkImplE.cold.3, symObjAddr: 0x35C4, symBinAddr: 0x54458, symSize: 0x24 }
  - { offsetInCU: 0xBDE0, offset: 0x141D33, size: 0x8, addend: 0x0, symName: __ZN4absl12lts_2021110219str_format_internal12_GLOBAL__N_111FloatToSinkIdEEbT_RKNS1_24FormatConversionSpecImplEPNS1_14FormatSinkImplE.cold.5, symObjAddr: 0x3738, symBinAddr: 0x545CC, symSize: 0x24 }
  - { offsetInCU: 0xBE0E, offset: 0x141D61, size: 0x8, addend: 0x0, symName: __ZN4absl12lts_2021110219str_format_internal12_GLOBAL__N_111FloatToSinkIdEEbT_RKNS1_24FormatConversionSpecImplEPNS1_14FormatSinkImplE.cold.9, symObjAddr: 0x37D0, symBinAddr: 0x54664, symSize: 0x24 }
  - { offsetInCU: 0xBE92, offset: 0x141DE5, size: 0x8, addend: 0x0, symName: __ZN4absl12lts_2021110219str_format_internal12_GLOBAL__N_111FloatToSinkIdEEbT_RKNS1_24FormatConversionSpecImplEPNS1_14FormatSinkImplE.cold.7, symObjAddr: 0x3784, symBinAddr: 0x54618, symSize: 0x28 }
  - { offsetInCU: 0xBEC0, offset: 0x141E13, size: 0x8, addend: 0x0, symName: __ZN4absl12lts_2021110219str_format_internal12_GLOBAL__N_111FloatToSinkIdEEbT_RKNS1_24FormatConversionSpecImplEPNS1_14FormatSinkImplE.cold.8, symObjAddr: 0x37AC, symBinAddr: 0x54640, symSize: 0x24 }
  - { offsetInCU: 0xBF44, offset: 0x141E97, size: 0x8, addend: 0x0, symName: __ZN4absl12lts_2021110219str_format_internal12_GLOBAL__N_111FloatToSinkIdEEbT_RKNS1_24FormatConversionSpecImplEPNS1_14FormatSinkImplE.cold.1, symObjAddr: 0x36A4, symBinAddr: 0x54538, symSize: 0x24 }
  - { offsetInCU: 0xBFDE, offset: 0x141F31, size: 0x8, addend: 0x0, symName: __ZN4absl12lts_2021110219str_format_internal12_GLOBAL__N_111FloatToSinkIdEEbT_RKNS1_24FormatConversionSpecImplEPNS1_14FormatSinkImplE.cold.3, symObjAddr: 0x36F0, symBinAddr: 0x54584, symSize: 0x24 }
  - { offsetInCU: 0xC04C, offset: 0x141F9F, size: 0x8, addend: 0x0, symName: __ZN4absl12lts_2021110219str_format_internal12_GLOBAL__N_111FloatToSinkIdEEbT_RKNS1_24FormatConversionSpecImplEPNS1_14FormatSinkImplE.cold.6, symObjAddr: 0x375C, symBinAddr: 0x545F0, symSize: 0x28 }
  - { offsetInCU: 0xC0A6, offset: 0x141FF9, size: 0x8, addend: 0x0, symName: __ZN4absl12lts_2021110219str_format_internal12_GLOBAL__N_111FloatToSinkIdEEbT_RKNS1_24FormatConversionSpecImplEPNS1_14FormatSinkImplE.cold.4, symObjAddr: 0x3714, symBinAddr: 0x545A8, symSize: 0x24 }
  - { offsetInCU: 0xC0D4, offset: 0x142027, size: 0x8, addend: 0x0, symName: __ZN4absl12lts_2021110219str_format_internal12_GLOBAL__N_111FloatToSinkIdEEbT_RKNS1_24FormatConversionSpecImplEPNS1_14FormatSinkImplE.cold.2, symObjAddr: 0x36C8, symBinAddr: 0x5455C, symSize: 0x28 }
  - { offsetInCU: 0xC1E9, offset: 0x14213C, size: 0x8, addend: 0x0, symName: __ZN4absl12lts_2021110219str_format_internal12_GLOBAL__N_113FloatToBufferILNS2_11FormatStyleE1EeEEbNS2_10DecomposedIT0_EEiPNS2_6BufferEPi.cold.1, symObjAddr: 0x37F4, symBinAddr: 0x54688, symSize: 0x24 }
  - { offsetInCU: 0xC22D, offset: 0x142180, size: 0x8, addend: 0x0, symName: __ZN4absl12lts_2021110219str_format_internal12_GLOBAL__N_113FloatToBufferILNS2_11FormatStyleE1EeEEbNS2_10DecomposedIT0_EEiPNS2_6BufferEPi.cold.2, symObjAddr: 0x3818, symBinAddr: 0x546AC, symSize: 0x24 }
  - { offsetInCU: 0xC271, offset: 0x1421C4, size: 0x8, addend: 0x0, symName: __ZN4absl12lts_2021110219str_format_internal12_GLOBAL__N_113FloatToBufferILNS2_11FormatStyleE1EeEEbNS2_10DecomposedIT0_EEiPNS2_6BufferEPi.cold.4, symObjAddr: 0x3860, symBinAddr: 0x546F4, symSize: 0x24 }
  - { offsetInCU: 0xC2B5, offset: 0x142208, size: 0x8, addend: 0x0, symName: __ZN4absl12lts_2021110219str_format_internal12_GLOBAL__N_113FloatToBufferILNS2_11FormatStyleE1EeEEbNS2_10DecomposedIT0_EEiPNS2_6BufferEPi.cold.3, symObjAddr: 0x383C, symBinAddr: 0x546D0, symSize: 0x24 }
  - { offsetInCU: 0xC675, offset: 0x1425C8, size: 0x8, addend: 0x0, symName: __ZN4absl12lts_2021110219str_format_internal12_GLOBAL__N_118FallbackToSnprintfIeEEbT_RKNS1_24FormatConversionSpecImplEPNS1_14FormatSinkImplE.cold.1, symObjAddr: 0x3884, symBinAddr: 0x54718, symSize: 0x28 }
  - { offsetInCU: 0xC68D, offset: 0x1425E0, size: 0x8, addend: 0x0, symName: __ZN4absl12lts_2021110219str_format_internal12_GLOBAL__N_113PrintExponentEicPNS2_6BufferE.cold.8, symObjAddr: 0x39A8, symBinAddr: 0x5483C, symSize: 0x24 }
  - { offsetInCU: 0xC6BB, offset: 0x14260E, size: 0x8, addend: 0x0, symName: __ZN4absl12lts_2021110219str_format_internal12_GLOBAL__N_113PrintExponentEicPNS2_6BufferE.cold.7, symObjAddr: 0x3984, symBinAddr: 0x54818, symSize: 0x24 }
  - { offsetInCU: 0xC6E9, offset: 0x14263C, size: 0x8, addend: 0x0, symName: __ZN4absl12lts_2021110219str_format_internal12_GLOBAL__N_113PrintExponentEicPNS2_6BufferE.cold.3, symObjAddr: 0x38F4, symBinAddr: 0x54788, symSize: 0x24 }
  - { offsetInCU: 0xC717, offset: 0x14266A, size: 0x8, addend: 0x0, symName: __ZN4absl12lts_2021110219str_format_internal12_GLOBAL__N_113PrintExponentEicPNS2_6BufferE.cold.2, symObjAddr: 0x38D0, symBinAddr: 0x54764, symSize: 0x24 }
  - { offsetInCU: 0xC745, offset: 0x142698, size: 0x8, addend: 0x0, symName: __ZN4absl12lts_2021110219str_format_internal12_GLOBAL__N_113PrintExponentEicPNS2_6BufferE.cold.1, symObjAddr: 0x38AC, symBinAddr: 0x54740, symSize: 0x24 }
  - { offsetInCU: 0xC773, offset: 0x1426C6, size: 0x8, addend: 0x0, symName: __ZN4absl12lts_2021110219str_format_internal12_GLOBAL__N_113PrintExponentEicPNS2_6BufferE.cold.5, symObjAddr: 0x393C, symBinAddr: 0x547D0, symSize: 0x24 }
  - { offsetInCU: 0xC7A1, offset: 0x1426F4, size: 0x8, addend: 0x0, symName: __ZN4absl12lts_2021110219str_format_internal12_GLOBAL__N_113PrintExponentEicPNS2_6BufferE.cold.4, symObjAddr: 0x3918, symBinAddr: 0x547AC, symSize: 0x24 }
  - { offsetInCU: 0xC7CF, offset: 0x142722, size: 0x8, addend: 0x0, symName: __ZN4absl12lts_2021110219str_format_internal12_GLOBAL__N_113PrintExponentEicPNS2_6BufferE.cold.6, symObjAddr: 0x3960, symBinAddr: 0x547F4, symSize: 0x24 }
  - { offsetInCU: 0xC8E4, offset: 0x142837, size: 0x8, addend: 0x0, symName: __ZN4absl12lts_2021110219str_format_internal12_GLOBAL__N_110StackArray15RunWithCapacityEmNS0_11FunctionRefIFvNS0_4SpanIjEEEEE, symObjAddr: 0x1AF8, symBinAddr: 0x2C79C, symSize: 0x94 }
  - { offsetInCU: 0xC972, offset: 0x1428C5, size: 0x8, addend: 0x0, symName: __ZN4absl12lts_2021110219str_format_internal12_GLOBAL__N_110StackArray19RunWithCapacityImplILm1EEEvNS0_11FunctionRefIFvNS0_4SpanIjEEEEE, symObjAddr: 0x1B8C, symBinAddr: 0x2C830, symSize: 0xA0 }
  - { offsetInCU: 0xC97D, offset: 0x1428D0, size: 0x8, addend: 0x0, symName: __ZN4absl12lts_2021110219str_format_internal12_GLOBAL__N_122FormatFPositiveExpSlowENS0_7uint128EiRKNS2_11FormatStateE.cold.1, symObjAddr: 0x39CC, symBinAddr: 0x54860, symSize: 0x28 }
  - { offsetInCU: 0xC9AB, offset: 0x1428FE, size: 0x8, addend: 0x0, symName: __ZN4absl12lts_2021110219str_format_internal12_GLOBAL__N_122FormatFPositiveExpSlowENS0_7uint128EiRKNS2_11FormatStateE.cold.2, symObjAddr: 0x39F4, symBinAddr: 0x54888, symSize: 0x28 }
  - { offsetInCU: 0xCA02, offset: 0x142955, size: 0x8, addend: 0x0, symName: __ZN4absl12lts_2021110219str_format_internal12_GLOBAL__N_122FormatFNegativeExpSlowENS0_7uint128EiRKNS2_11FormatStateE.cold.1, symObjAddr: 0x3A1C, symBinAddr: 0x548B0, symSize: 0x28 }
  - { offsetInCU: 0xCA30, offset: 0x142983, size: 0x8, addend: 0x0, symName: __ZN4absl12lts_2021110219str_format_internal12_GLOBAL__N_110StackArray19RunWithCapacityImplILm1EEEvNS0_11FunctionRefIFvNS0_4SpanIjEEEEE, symObjAddr: 0x1B8C, symBinAddr: 0x2C830, symSize: 0xA0 }
  - { offsetInCU: 0xCAA2, offset: 0x1429F5, size: 0x8, addend: 0x0, symName: __ZN4absl12lts_2021110219str_format_internal12_GLOBAL__N_110StackArray19RunWithCapacityImplILm2EEEvNS0_11FunctionRefIFvNS0_4SpanIjEEEEE, symObjAddr: 0x1C2C, symBinAddr: 0x2C8D0, symSize: 0x78 }
  - { offsetInCU: 0xCB13, offset: 0x142A66, size: 0x8, addend: 0x0, symName: __ZN4absl12lts_2021110219str_format_internal12_GLOBAL__N_110StackArray19RunWithCapacityImplILm3EEEvNS0_11FunctionRefIFvNS0_4SpanIjEEEEE, symObjAddr: 0x1CA4, symBinAddr: 0x2C948, symSize: 0x78 }
  - { offsetInCU: 0xCB84, offset: 0x142AD7, size: 0x8, addend: 0x0, symName: __ZN4absl12lts_2021110219str_format_internal12_GLOBAL__N_110StackArray19RunWithCapacityImplILm4EEEvNS0_11FunctionRefIFvNS0_4SpanIjEEEEE, symObjAddr: 0x1D1C, symBinAddr: 0x2C9C0, symSize: 0x78 }
  - { offsetInCU: 0xCBF5, offset: 0x142B48, size: 0x8, addend: 0x0, symName: __ZN4absl12lts_2021110219str_format_internal12_GLOBAL__N_110StackArray19RunWithCapacityImplILm5EEEvNS0_11FunctionRefIFvNS0_4SpanIjEEEEE, symObjAddr: 0x1D94, symBinAddr: 0x2CA38, symSize: 0x78 }
  - { offsetInCU: 0xCC66, offset: 0x142BB9, size: 0x8, addend: 0x0, symName: __ZN4absl12lts_2021110219str_format_internal12_GLOBAL__N_110StackArray15RunWithCapacityEmNS0_11FunctionRefIFvNS0_4SpanIjEEEEE.cold.1, symObjAddr: 0x3A44, symBinAddr: 0x548D8, symSize: 0x28 }
  - { offsetInCU: 0xCC7E, offset: 0x142BD1, size: 0x8, addend: 0x0, symName: __ZN4absl12lts_2021110219str_format_internal12_GLOBAL__N_110StackArray15RunWithCapacityEmNS0_11FunctionRefIFvNS0_4SpanIjEEEEE.cold.2, symObjAddr: 0x3A6C, symBinAddr: 0x54900, symSize: 0x28 }
  - { offsetInCU: 0xCEB7, offset: 0x142E0A, size: 0x8, addend: 0x0, symName: __ZNK4absl12lts_202111024SpanIjEixEm, symObjAddr: 0x2060, symBinAddr: 0x2CD04, symSize: 0x4C }
  - { offsetInCU: 0xCF54, offset: 0x142EA7, size: 0x8, addend: 0x0, symName: __ZN4absl12lts_2021110219functional_internal12InvokeObjectIZNS0_19str_format_internal12_GLOBAL__N_115BinaryToDecimal13RunConversionENS0_7uint128EiNS0_11FunctionRefIFvS5_EEEEUlNS0_4SpanIjEEE_vJSB_EEET0_NS1_7VoidPtrEDpNS1_8ForwardTIT1_E4typeE.cold.1, symObjAddr: 0x3A94, symBinAddr: 0x54928, symSize: 0x28 }
  - { offsetInCU: 0xD102, offset: 0x143055, size: 0x8, addend: 0x0, symName: '__ZN4absl12lts_2021110219functional_internal12InvokeObjectIZNS0_19str_format_internal12_GLOBAL__N_122FormatFPositiveExpSlowENS0_7uint128EiRKNS4_11FormatStateEE3$_0vJNS4_15BinaryToDecimalEEEET0_NS1_7VoidPtrEDpNS1_8ForwardTIT1_E4typeE.cold.1', symObjAddr: 0x3ABC, symBinAddr: 0x54950, symSize: 0x24 }
  - { offsetInCU: 0xD2A7, offset: 0x1431FA, size: 0x8, addend: 0x0, symName: __ZN4absl12lts_2021110219functional_internal12InvokeObjectIZNS0_19str_format_internal12_GLOBAL__N_124FractionalDigitGenerator13RunConversionENS0_7uint128EiNS0_11FunctionRefIFvS5_EEEEUlNS0_4SpanIjEEE_vJSB_EEET0_NS1_7VoidPtrEDpNS1_8ForwardTIT1_E4typeE, symObjAddr: 0x2498, symBinAddr: 0x2CFCC, symSize: 0xF8 }
  - { offsetInCU: 0xD433, offset: 0x143386, size: 0x8, addend: 0x0, symName: __ZN4absl12lts_2021110219str_format_internal12_GLOBAL__N_124FractionalDigitGenerator11GetOneDigitEv, symObjAddr: 0x2590, symBinAddr: 0x2D0C4, symSize: 0x94 }
  - { offsetInCU: 0xD5B1, offset: 0x143504, size: 0x8, addend: 0x0, symName: __ZN4absl12lts_2021110219str_format_internal12_GLOBAL__N_125PrintFractionalDigitsFastENS0_7uint128EPcii.cold.1, symObjAddr: 0x3B04, symBinAddr: 0x54974, symSize: 0x28 }
  - { offsetInCU: 0xD663, offset: 0x1435B6, size: 0x8, addend: 0x0, symName: __ZN4absl12lts_2021110219str_format_internal12_GLOBAL__N_119PrintIntegralDigitsILNS2_11FormatStyleE1EoEEiT0_PNS2_6BufferE, symObjAddr: 0x2BD0, symBinAddr: 0x2D6C0, symSize: 0xD4 }
  - { offsetInCU: 0xD6D8, offset: 0x14362B, size: 0x8, addend: 0x0, symName: __ZN4absl12lts_2021110219str_format_internal12_GLOBAL__N_119PrintIntegralDigitsILNS2_11FormatStyleE1EoEEiT0_PNS2_6BufferE.cold.2, symObjAddr: 0x3B74, symBinAddr: 0x549C0, symSize: 0x24 }
  - { offsetInCU: 0xD706, offset: 0x143659, size: 0x8, addend: 0x0, symName: __ZN4absl12lts_2021110219str_format_internal12_GLOBAL__N_119PrintIntegralDigitsILNS2_11FormatStyleE1EoEEiT0_PNS2_6BufferE.cold.1, symObjAddr: 0x3B50, symBinAddr: 0x5499C, symSize: 0x24 }
  - { offsetInCU: 0xD771, offset: 0x1436C4, size: 0x8, addend: 0x0, symName: __ZN4absl12lts_2021110219str_format_internal12_GLOBAL__N_17RoundUpILNS2_11FormatStyleE1EEEvPNS2_6BufferEPi.cold.2, symObjAddr: 0x3BC0, symBinAddr: 0x54A0C, symSize: 0x24 }
  - { offsetInCU: 0xD79F, offset: 0x1436F2, size: 0x8, addend: 0x0, symName: __ZN4absl12lts_2021110219str_format_internal12_GLOBAL__N_17RoundUpILNS2_11FormatStyleE1EEEvPNS2_6BufferEPi.cold.1, symObjAddr: 0x3B98, symBinAddr: 0x549E4, symSize: 0x28 }
  - { offsetInCU: 0xD841, offset: 0x143794, size: 0x8, addend: 0x0, symName: __ZN4absl12lts_2021110219str_format_internal12_GLOBAL__N_113FloatToBufferILNS2_11FormatStyleE1EdEEbNS2_10DecomposedIT0_EEiPNS2_6BufferEPi.cold.2, symObjAddr: 0x3C08, symBinAddr: 0x54A54, symSize: 0x24 }
  - { offsetInCU: 0xD885, offset: 0x1437D8, size: 0x8, addend: 0x0, symName: __ZN4absl12lts_2021110219str_format_internal12_GLOBAL__N_113FloatToBufferILNS2_11FormatStyleE1EdEEbNS2_10DecomposedIT0_EEiPNS2_6BufferEPi.cold.6, symObjAddr: 0x3C98, symBinAddr: 0x54AE4, symSize: 0x24 }
  - { offsetInCU: 0xD8C9, offset: 0x14381C, size: 0x8, addend: 0x0, symName: __ZN4absl12lts_2021110219str_format_internal12_GLOBAL__N_113FloatToBufferILNS2_11FormatStyleE1EdEEbNS2_10DecomposedIT0_EEiPNS2_6BufferEPi.cold.1, symObjAddr: 0x3BE4, symBinAddr: 0x54A30, symSize: 0x24 }
  - { offsetInCU: 0xD90D, offset: 0x143860, size: 0x8, addend: 0x0, symName: __ZN4absl12lts_2021110219str_format_internal12_GLOBAL__N_113FloatToBufferILNS2_11FormatStyleE1EdEEbNS2_10DecomposedIT0_EEiPNS2_6BufferEPi.cold.3, symObjAddr: 0x3C2C, symBinAddr: 0x54A78, symSize: 0x24 }
  - { offsetInCU: 0xD951, offset: 0x1438A4, size: 0x8, addend: 0x0, symName: __ZN4absl12lts_2021110219str_format_internal12_GLOBAL__N_113FloatToBufferILNS2_11FormatStyleE1EdEEbNS2_10DecomposedIT0_EEiPNS2_6BufferEPi.cold.8, symObjAddr: 0x3CE0, symBinAddr: 0x54B2C, symSize: 0x24 }
  - { offsetInCU: 0xD995, offset: 0x1438E8, size: 0x8, addend: 0x0, symName: __ZN4absl12lts_2021110219str_format_internal12_GLOBAL__N_113FloatToBufferILNS2_11FormatStyleE1EdEEbNS2_10DecomposedIT0_EEiPNS2_6BufferEPi.cold.7, symObjAddr: 0x3CBC, symBinAddr: 0x54B08, symSize: 0x24 }
  - { offsetInCU: 0xD9D9, offset: 0x14392C, size: 0x8, addend: 0x0, symName: __ZN4absl12lts_2021110219str_format_internal12_GLOBAL__N_113FloatToBufferILNS2_11FormatStyleE1EdEEbNS2_10DecomposedIT0_EEiPNS2_6BufferEPi.cold.5, symObjAddr: 0x3C74, symBinAddr: 0x54AC0, symSize: 0x24 }
  - { offsetInCU: 0xDA1D, offset: 0x143970, size: 0x8, addend: 0x0, symName: __ZN4absl12lts_2021110219str_format_internal12_GLOBAL__N_113FloatToBufferILNS2_11FormatStyleE1EdEEbNS2_10DecomposedIT0_EEiPNS2_6BufferEPi.cold.4, symObjAddr: 0x3C50, symBinAddr: 0x54A9C, symSize: 0x24 }
  - { offsetInCU: 0xDA61, offset: 0x1439B4, size: 0x8, addend: 0x0, symName: __ZN4absl12lts_2021110219str_format_internal12_GLOBAL__N_118FallbackToSnprintfIdEEbT_RKNS1_24FormatConversionSpecImplEPNS1_14FormatSinkImplE.cold.1, symObjAddr: 0x3D04, symBinAddr: 0x54B50, symSize: 0x28 }
  - { offsetInCU: 0xDA79, offset: 0x1439CC, size: 0x8, addend: 0x0, symName: __ZN4absl12lts_2021110219str_format_internal12_GLOBAL__N_119PrintIntegralDigitsILNS2_11FormatStyleE1EyEEiT0_PNS2_6BufferE.cold.2, symObjAddr: 0x3D50, symBinAddr: 0x54B9C, symSize: 0x24 }
  - { offsetInCU: 0xDAA7, offset: 0x1439FA, size: 0x8, addend: 0x0, symName: __ZN4absl12lts_2021110219str_format_internal12_GLOBAL__N_119PrintIntegralDigitsILNS2_11FormatStyleE1EyEEiT0_PNS2_6BufferE.cold.1, symObjAddr: 0x3D2C, symBinAddr: 0x54B78, symSize: 0x24 }
  - { offsetInCU: 0xDAD5, offset: 0x143A28, size: 0x8, addend: 0x0, symName: _OUTLINED_FUNCTION_0, symObjAddr: 0x3D74, symBinAddr: 0x2E06C, symSize: 0x8 }
  - { offsetInCU: 0xDAED, offset: 0x143A40, size: 0x8, addend: 0x0, symName: _OUTLINED_FUNCTION_1, symObjAddr: 0x3D7C, symBinAddr: 0x2E074, symSize: 0x8 }
  - { offsetInCU: 0xDB05, offset: 0x143A58, size: 0x8, addend: 0x0, symName: _OUTLINED_FUNCTION_2, symObjAddr: 0x3D84, symBinAddr: 0x2E07C, symSize: 0x8 }
  - { offsetInCU: 0xDB1D, offset: 0x143A70, size: 0x8, addend: 0x0, symName: _OUTLINED_FUNCTION_3, symObjAddr: 0x3D8C, symBinAddr: 0x2E084, symSize: 0x8 }
  - { offsetInCU: 0x26, offset: 0x143B07, size: 0x8, addend: 0x0, symName: __ZN4absl12lts_2021110210FormatTimeENS0_11string_viewENS0_4TimeENS0_8TimeZoneE, symObjAddr: 0x0, symBinAddr: 0x2E08C, symSize: 0x150 }
  - { offsetInCU: 0x49, offset: 0x143B2A, size: 0x8, addend: 0x0, symName: __ZN4absl12lts_2021110212RFC3339_fullE, symObjAddr: 0x86C, symBinAddr: 0x5B040, symSize: 0x0 }
  - { offsetInCU: 0x63, offset: 0x143B44, size: 0x8, addend: 0x0, symName: __ZN4absl12lts_2021110211RFC3339_secE, symObjAddr: 0x885, symBinAddr: 0x5B059, symSize: 0x0 }
  - { offsetInCU: 0x7D, offset: 0x143B5E, size: 0x8, addend: 0x0, symName: __ZN4absl12lts_2021110212RFC1123_fullE, symObjAddr: 0x89C, symBinAddr: 0x5B070, symSize: 0x0 }
  - { offsetInCU: 0x97, offset: 0x143B78, size: 0x8, addend: 0x0, symName: __ZN4absl12lts_2021110215RFC1123_no_wdayE, symObjAddr: 0x8B7, symBinAddr: 0x5B08B, symSize: 0x0 }
  - { offsetInCU: 0xA5, offset: 0x143B86, size: 0x8, addend: 0x0, symName: __ZN4absl12lts_202111029ParseTimeENS0_11string_viewES1_NS0_8TimeZoneEPNS0_4TimeEPNSt3__112basic_stringIcNS5_11char_traitsIcEENS5_9allocatorIcEEEE, symObjAddr: 0x218, symBinAddr: 0x2E2A4, symSize: 0x2B0 }
  - { offsetInCU: 0xCF, offset: 0x143BB0, size: 0x8, addend: 0x0, symName: __ZZN4absl12lts_202111029ParseTimeENS0_11string_viewES1_NS0_8TimeZoneEPNS0_4TimeEPNSt3__112basic_stringIcNS5_11char_traitsIcEENS5_9allocatorIcEEEEE8literals, symObjAddr: 0x8F0, symBinAddr: 0x6CF30, symSize: 0x0 }
  - { offsetInCU: 0x12E7, offset: 0x144DC8, size: 0x8, addend: 0x0, symName: __ZN4absl12lts_2021110212_GLOBAL__N_118kInfiniteFutureStrE, symObjAddr: 0x8CE, symBinAddr: 0x5B0A2, symSize: 0x0 }
  - { offsetInCU: 0x1301, offset: 0x144DE2, size: 0x8, addend: 0x0, symName: __ZN4absl12lts_2021110212_GLOBAL__N_116kInfinitePastStrE, symObjAddr: 0x8DE, symBinAddr: 0x5B0B2, symSize: 0x0 }
  - { offsetInCU: 0x1433, offset: 0x144F14, size: 0x8, addend: 0x0, symName: __ZN4absl12lts_2021110210FormatTimeENS0_11string_viewENS0_4TimeENS0_8TimeZoneE, symObjAddr: 0x0, symBinAddr: 0x2E08C, symSize: 0x150 }
  - { offsetInCU: 0x18F1, offset: 0x1453D2, size: 0x8, addend: 0x0, symName: __ZN4absl12lts_2021110210FormatTimeENS0_4TimeENS0_8TimeZoneE, symObjAddr: 0x150, symBinAddr: 0x2E1DC, symSize: 0x1C }
  - { offsetInCU: 0x196A, offset: 0x14544B, size: 0x8, addend: 0x0, symName: __ZN4absl12lts_2021110210FormatTimeENS0_4TimeE, symObjAddr: 0x16C, symBinAddr: 0x2E1F8, symSize: 0x4C }
  - { offsetInCU: 0x19EC, offset: 0x1454CD, size: 0x8, addend: 0x0, symName: __ZN4absl12lts_202111029ParseTimeENS0_11string_viewES1_PNS0_4TimeEPNSt3__112basic_stringIcNS4_11char_traitsIcEENS4_9allocatorIcEEEE, symObjAddr: 0x1B8, symBinAddr: 0x2E244, symSize: 0x60 }
  - { offsetInCU: 0x1AB9, offset: 0x14559A, size: 0x8, addend: 0x0, symName: __ZN4absl12lts_2021110213AbslParseFlagENS0_11string_viewEPNS0_4TimeEPNSt3__112basic_stringIcNS4_11char_traitsIcEENS4_9allocatorIcEEEE, symObjAddr: 0x4C8, symBinAddr: 0x2E554, symSize: 0x54 }
  - { offsetInCU: 0x1B4D, offset: 0x14562E, size: 0x8, addend: 0x0, symName: __ZN4absl12lts_2021110215AbslUnparseFlagENS0_4TimeE, symObjAddr: 0x51C, symBinAddr: 0x2E5A8, symSize: 0x4C }
  - { offsetInCU: 0x1BBD, offset: 0x14569E, size: 0x8, addend: 0x0, symName: __ZN4absl12lts_202111029ParseFlagERKNSt3__112basic_stringIcNS1_11char_traitsIcEENS1_9allocatorIcEEEEPNS0_4TimeEPS7_, symObjAddr: 0x568, symBinAddr: 0x2E5F4, symSize: 0x64 }
  - { offsetInCU: 0x1CC7, offset: 0x1457A8, size: 0x8, addend: 0x0, symName: __ZN4absl12lts_2021110211UnparseFlagENS0_4TimeE, symObjAddr: 0x5CC, symBinAddr: 0x2E658, symSize: 0x4C }
  - { offsetInCU: 0x6AA7, offset: 0x14A588, size: 0x8, addend: 0x0, symName: __ZN4absl12lts_202111029ParseTimeENS0_11string_viewES1_NS0_8TimeZoneEPNS0_4TimeEPNSt3__112basic_stringIcNS5_11char_traitsIcEENS5_9allocatorIcEEEE.cold.1, symObjAddr: 0x7D0, symBinAddr: 0x54BC0, symSize: 0x28 }
  - { offsetInCU: 0x6F37, offset: 0x14AA18, size: 0x8, addend: 0x0, symName: __ZN4absl12lts_202111029ParseTimeENS0_11string_viewES1_NS0_8TimeZoneEPNS0_4TimeEPNSt3__112basic_stringIcNS5_11char_traitsIcEENS5_9allocatorIcEEEE.cold.2, symObjAddr: 0x7F8, symBinAddr: 0x54BE8, symSize: 0x28 }
  - { offsetInCU: 0x6FA4, offset: 0x14AA85, size: 0x8, addend: 0x0, symName: __ZN4absl12lts_202111029ParseTimeENS0_11string_viewES1_NS0_8TimeZoneEPNS0_4TimeEPNSt3__112basic_stringIcNS5_11char_traitsIcEENS5_9allocatorIcEEEE.cold.1, symObjAddr: 0x7D0, symBinAddr: 0x54BC0, symSize: 0x28 }
  - { offsetInCU: 0x3C, offset: 0x14ADA6, size: 0x8, addend: 0x0, symName: __ZN4absl12lts_2021110215random_internal26gaussian_distribution_base3zg_E, symObjAddr: 0x0, symBinAddr: 0x5B0C0, symSize: 0x0 }
  - { offsetInCU: 0x63, offset: 0x14D8C6, size: 0x8, addend: 0x0, symName: __ZN4absl12lts_2021110224synchronization_internal12_GLOBAL__N_18arena_muE, symObjAddr: 0x22808, symBinAddr: 0x709D8, symSize: 0x0 }
  - { offsetInCU: 0x7D, offset: 0x14D8E0, size: 0x8, addend: 0x0, symName: __ZN4absl12lts_2021110224synchronization_internal12_GLOBAL__N_15arenaE, symObjAddr: 0x22800, symBinAddr: 0x709D0, symSize: 0x0 }
  - { offsetInCU: 0xBDC, offset: 0x14E43F, size: 0x8, addend: 0x0, symName: __ZN4absl12lts_2021110224synchronization_internalL10MoveToListEPNS1_11GraphCycles3RepEPNS1_12_GLOBAL__N_13VecIiEES8_, symObjAddr: 0x1500, symBinAddr: 0x2FB98, symSize: 0x70 }
  - { offsetInCU: 0xE17, offset: 0x14E67A, size: 0x8, addend: 0x0, symName: __ZNSt3__111__introsortINS_17_ClassicAlgPolicyERZN4absl12lts_2021110224synchronization_internalL4SortERKNS4_12_GLOBAL__N_13VecIPNS5_4NodeEEEPNS6_IiEEE6ByRankPiEEvT1_SH_T0_NS_15iterator_traitsISH_E15difference_typeE, symObjAddr: 0x1570, symBinAddr: 0x2FC08, symSize: 0x690 }
  - { offsetInCU: 0x19CD, offset: 0x14F230, size: 0x8, addend: 0x0, symName: __ZNSt3__127__insertion_sort_incompleteIRZN4absl12lts_2021110224synchronization_internalL4SortERKNS3_12_GLOBAL__N_13VecIPNS4_4NodeEEEPNS5_IiEEE6ByRankPiEEbT0_SG_T_, symObjAddr: 0x1DD0, symBinAddr: 0x30468, symSize: 0x1AC }
  - { offsetInCU: 0x3AE4, offset: 0x151347, size: 0x8, addend: 0x0, symName: __ZNSt3__119__sort5_wrap_policyB7v160006INS_17_ClassicAlgPolicyERZN4absl12lts_2021110224synchronization_internalL4SortERKNS4_12_GLOBAL__N_13VecIPNS5_4NodeEEEPNS6_IiEEE6ByRankPiEEjT1_SH_SH_SH_SH_T0_, symObjAddr: 0x1C00, symBinAddr: 0x30298, symSize: 0x10C }
  - { offsetInCU: 0x3DF2, offset: 0x151655, size: 0x8, addend: 0x0, symName: __ZNSt3__17__sort3B7v160006INS_17_ClassicAlgPolicyERZN4absl12lts_2021110224synchronization_internalL4SortERKNS4_12_GLOBAL__N_13VecIPNS5_4NodeEEEPNS6_IiEEE6ByRankPiEEjT1_SH_SH_T0_, symObjAddr: 0x1D0C, symBinAddr: 0x303A4, symSize: 0xC4 }
  - { offsetInCU: 0x40CF, offset: 0x151932, size: 0x8, addend: 0x0, symName: __ZNSt3__17__sort4B7v160006INS_17_ClassicAlgPolicyERZN4absl12lts_2021110224synchronization_internalL4SortERKNS4_12_GLOBAL__N_13VecIPNS5_4NodeEEEPNS6_IiEEE6ByRankPiEEjT1_SH_SH_SH_T0_, symObjAddr: 0x1F7C, symBinAddr: 0x30614, symSize: 0xD8 }
  - { offsetInCU: 0x64CF, offset: 0x153D32, size: 0x8, addend: 0x0, symName: __ZN4absl12lts_2021110224synchronization_internal11GraphCyclesC2Ev, symObjAddr: 0x0, symBinAddr: 0x2E6A4, symSize: 0xC8 }
  - { offsetInCU: 0x669A, offset: 0x153EFD, size: 0x8, addend: 0x0, symName: __ZN4absl12lts_2021110224synchronization_internal11GraphCycles3RepC2Ev, symObjAddr: 0x12E4, symBinAddr: 0x2F97C, symSize: 0xB0 }
  - { offsetInCU: 0x69E3, offset: 0x154246, size: 0x8, addend: 0x0, symName: __ZN4absl12lts_2021110224synchronization_internal11GraphCyclesC1Ev, symObjAddr: 0xC8, symBinAddr: 0x2E76C, symSize: 0x4 }
  - { offsetInCU: 0x6A11, offset: 0x154274, size: 0x8, addend: 0x0, symName: __ZN4absl12lts_2021110224synchronization_internal11GraphCyclesC1Ev, symObjAddr: 0xC8, symBinAddr: 0x2E76C, symSize: 0x4 }
  - { offsetInCU: 0x6B3A, offset: 0x15439D, size: 0x8, addend: 0x0, symName: __ZN4absl12lts_2021110224synchronization_internal11GraphCyclesD2Ev, symObjAddr: 0xCC, symBinAddr: 0x2E770, symSize: 0xD0 }
  - { offsetInCU: 0x6D78, offset: 0x1545DB, size: 0x8, addend: 0x0, symName: __ZN4absl12lts_2021110224synchronization_internal12_GLOBAL__N_13VecIiED1Ev, symObjAddr: 0x1394, symBinAddr: 0x2FA2C, symSize: 0x38 }
  - { offsetInCU: 0x6DD5, offset: 0x154638, size: 0x8, addend: 0x0, symName: __ZN4absl12lts_2021110224synchronization_internal11GraphCyclesD1Ev, symObjAddr: 0x1A8, symBinAddr: 0x2E840, symSize: 0x4 }
  - { offsetInCU: 0x6E03, offset: 0x154666, size: 0x8, addend: 0x0, symName: __ZN4absl12lts_2021110224synchronization_internal11GraphCyclesD1Ev, symObjAddr: 0x1A8, symBinAddr: 0x2E840, symSize: 0x4 }
  - { offsetInCU: 0x6F0D, offset: 0x154770, size: 0x8, addend: 0x0, symName: __ZNK4absl12lts_2021110224synchronization_internal11GraphCycles15CheckInvariantsEv, symObjAddr: 0x1AC, symBinAddr: 0x2E844, symSize: 0x210 }
  - { offsetInCU: 0x72D4, offset: 0x154B37, size: 0x8, addend: 0x0, symName: __ZN4absl12lts_2021110224synchronization_internal12_GLOBAL__N_17NodeSetC1Ev, symObjAddr: 0x3BC, symBinAddr: 0x2EA54, symSize: 0x4C }
  - { offsetInCU: 0x7392, offset: 0x154BF5, size: 0x8, addend: 0x0, symName: __ZN4absl12lts_2021110224synchronization_internal12_GLOBAL__N_17NodeSet6insertEi, symObjAddr: 0x408, symBinAddr: 0x2EAA0, symSize: 0x19C }
  - { offsetInCU: 0x7793, offset: 0x154FF6, size: 0x8, addend: 0x0, symName: __ZN4absl12lts_2021110224synchronization_internal12_GLOBAL__N_17NodeSet4InitEv, symObjAddr: 0x13CC, symBinAddr: 0x2FA64, symSize: 0x5C }
  - { offsetInCU: 0x79EC, offset: 0x15524F, size: 0x8, addend: 0x0, symName: __ZNK4absl12lts_2021110224synchronization_internal12_GLOBAL__N_17NodeSet9FindIndexEi, symObjAddr: 0x149C, symBinAddr: 0x2FB34, symSize: 0x64 }
  - { offsetInCU: 0x7A50, offset: 0x1552B3, size: 0x8, addend: 0x0, symName: __ZNK4absl12lts_2021110224synchronization_internal12_GLOBAL__N_17NodeSet9FindIndexEi, symObjAddr: 0x149C, symBinAddr: 0x2FB34, symSize: 0x64 }
  - { offsetInCU: 0x7A9C, offset: 0x1552FF, size: 0x8, addend: 0x0, symName: __ZN4absl12lts_2021110224synchronization_internal12_GLOBAL__N_13VecIiE4GrowEj, symObjAddr: 0x1428, symBinAddr: 0x2FAC0, symSize: 0x74 }
  - { offsetInCU: 0x7DEC, offset: 0x15564F, size: 0x8, addend: 0x0, symName: __ZN4absl12lts_2021110224synchronization_internal11GraphCycles5GetIdEPv, symObjAddr: 0x5A4, symBinAddr: 0x2EC3C, symSize: 0x208 }
  - { offsetInCU: 0x83A6, offset: 0x155C09, size: 0x8, addend: 0x0, symName: __ZN4absl12lts_2021110224synchronization_internal11GraphCycles10RemoveNodeEPv, symObjAddr: 0x7AC, symBinAddr: 0x2EE44, symSize: 0x1EC }
  - { offsetInCU: 0x86A9, offset: 0x155F0C, size: 0x8, addend: 0x0, symName: __ZN4absl12lts_2021110224synchronization_internal12_GLOBAL__N_13VecIiE9push_backERKi, symObjAddr: 0x998, symBinAddr: 0x2F030, symSize: 0x54 }
  - { offsetInCU: 0x86F3, offset: 0x155F56, size: 0x8, addend: 0x0, symName: __ZN4absl12lts_2021110224synchronization_internal11GraphCycles3PtrENS1_7GraphIdE, symObjAddr: 0x9EC, symBinAddr: 0x2F084, symSize: 0x44 }
  - { offsetInCU: 0x87C5, offset: 0x156028, size: 0x8, addend: 0x0, symName: __ZN4absl12lts_2021110224synchronization_internal11GraphCycles7HasNodeENS1_7GraphIdE, symObjAddr: 0xA30, symBinAddr: 0x2F0C8, symSize: 0x24 }
  - { offsetInCU: 0x88B5, offset: 0x156118, size: 0x8, addend: 0x0, symName: __ZNK4absl12lts_2021110224synchronization_internal11GraphCycles7HasEdgeENS1_7GraphIdES3_, symObjAddr: 0xA54, symBinAddr: 0x2F0EC, symSize: 0x78 }
  - { offsetInCU: 0x8A1B, offset: 0x15627E, size: 0x8, addend: 0x0, symName: __ZN4absl12lts_2021110224synchronization_internal11GraphCycles10RemoveEdgeENS1_7GraphIdES3_, symObjAddr: 0xACC, symBinAddr: 0x2F164, symSize: 0xB4 }
  - { offsetInCU: 0x8C8F, offset: 0x1564F2, size: 0x8, addend: 0x0, symName: __ZN4absl12lts_2021110224synchronization_internal11GraphCycles10InsertEdgeENS1_7GraphIdES3_, symObjAddr: 0xB80, symBinAddr: 0x2F218, symSize: 0x4D8 }
  - { offsetInCU: 0x9B55, offset: 0x1573B8, size: 0x8, addend: 0x0, symName: __ZNK4absl12lts_2021110224synchronization_internal11GraphCycles8FindPathENS1_7GraphIdES3_iPS3_, symObjAddr: 0x1058, symBinAddr: 0x2F6F0, symSize: 0x1D4 }
  - { offsetInCU: 0x9F75, offset: 0x1577D8, size: 0x8, addend: 0x0, symName: __ZNK4absl12lts_2021110224synchronization_internal11GraphCycles11IsReachableENS1_7GraphIdES3_, symObjAddr: 0x122C, symBinAddr: 0x2F8C4, symSize: 0x24 }
  - { offsetInCU: 0x9FEC, offset: 0x15784F, size: 0x8, addend: 0x0, symName: __ZN4absl12lts_2021110224synchronization_internal11GraphCycles16UpdateStackTraceENS1_7GraphIdEiPFiPPviE, symObjAddr: 0x1250, symBinAddr: 0x2F8E8, symSize: 0x58 }
  - { offsetInCU: 0xA0DC, offset: 0x15793F, size: 0x8, addend: 0x0, symName: __ZN4absl12lts_2021110224synchronization_internal11GraphCycles13GetStackTraceENS1_7GraphIdEPPPv, symObjAddr: 0x12A8, symBinAddr: 0x2F940, symSize: 0x3C }
  - { offsetInCU: 0x26, offset: 0x157B9B, size: 0x8, addend: 0x0, symName: __ZN4absl12lts_2021110213hash_internal15MixingHashState28CombineLargeContiguousImpl32EyPKhm, symObjAddr: 0x0, symBinAddr: 0x306EC, symSize: 0xF8 }
  - { offsetInCU: 0x48, offset: 0x157BBD, size: 0x8, addend: 0x0, symName: __ZN4absl12lts_2021110213hash_internal15MixingHashState5kSeedE, symObjAddr: 0x260, symBinAddr: 0x6CF70, symSize: 0x0 }
  - { offsetInCU: 0x28E, offset: 0x157E03, size: 0x8, addend: 0x0, symName: __ZN4absl12lts_2021110213hash_internalL9kHashSaltE, symObjAddr: 0x268, symBinAddr: 0x5B8E8, symSize: 0x0 }
  - { offsetInCU: 0x2F36, offset: 0x15AAAB, size: 0x8, addend: 0x0, symName: __ZN4absl12lts_2021110213hash_internal15MixingHashState28CombineLargeContiguousImpl32EyPKhm, symObjAddr: 0x0, symBinAddr: 0x306EC, symSize: 0xF8 }
  - { offsetInCU: 0x319C, offset: 0x15AD11, size: 0x8, addend: 0x0, symName: __ZN4absl12lts_2021110213hash_internal15MixingHashState28CombineLargeContiguousImpl64EyPKhm, symObjAddr: 0xF8, symBinAddr: 0x307E4, symSize: 0x154 }
  - { offsetInCU: 0x3491, offset: 0x15B006, size: 0x8, addend: 0x0, symName: __ZN4absl12lts_2021110213hash_internal15MixingHashState16LowLevelHashImplEPKhm, symObjAddr: 0x24C, symBinAddr: 0x30938, symSize: 0x14 }
  - { offsetInCU: 0x49, offset: 0x15B08E, size: 0x8, addend: 0x0, symName: __ZN4absl12lts_2021110218container_internal14HashtablezInfo14kMaxStackDepthE, symObjAddr: 0x664, symBinAddr: 0x5B910, symSize: 0x0 }
  - { offsetInCU: 0x178, offset: 0x15B1BD, size: 0x8, addend: 0x0, symName: __ZN4absl12lts_2021110218container_internal23GlobalHashtablezSamplerEv, symObjAddr: 0x0, symBinAddr: 0x3094C, symSize: 0x8C }
  - { offsetInCU: 0x1A2, offset: 0x15B1E7, size: 0x8, addend: 0x0, symName: __ZZN4absl12lts_2021110218container_internal23GlobalHashtablezSamplerEvE7sampler, symObjAddr: 0x289D8, symBinAddr: 0x709E0, symSize: 0x0 }
  - { offsetInCU: 0x1EF, offset: 0x15B234, size: 0x8, addend: 0x0, symName: __ZZN4absl12lts_2021110218container_internalL19ShouldForceSamplingEvE12global_state.0, symObjAddr: 0x718, symBinAddr: 0x707E8, symSize: 0x0 }
  - { offsetInCU: 0x236, offset: 0x15B27B, size: 0x8, addend: 0x0, symName: __ZN4absl12lts_2021110218container_internal10SampleSlowEPxm, symObjAddr: 0x144, symBinAddr: 0x30A90, symSize: 0x70 }
  - { offsetInCU: 0x349, offset: 0x15B38E, size: 0x8, addend: 0x0, symName: __ZN4absl12lts_2021110218container_internal12UnsampleSlowEPNS1_14HashtablezInfoE, symObjAddr: 0x2B4, symBinAddr: 0x30C00, symSize: 0x40 }
  - { offsetInCU: 0x408, offset: 0x15B44D, size: 0x8, addend: 0x0, symName: __ZN4absl12lts_2021110218container_internal16RecordInsertSlowEPNS1_14HashtablezInfoEmm, symObjAddr: 0x2F4, symBinAddr: 0x30C40, symSize: 0x7C }
  - { offsetInCU: 0x68B, offset: 0x15B6D0, size: 0x8, addend: 0x0, symName: __ZN4absl12lts_2021110218container_internal20SetHashtablezEnabledEb, symObjAddr: 0x370, symBinAddr: 0x30CBC, symSize: 0x4 }
  - { offsetInCU: 0x6B9, offset: 0x15B6FE, size: 0x8, addend: 0x0, symName: __ZN4absl12lts_2021110218container_internal28SetHashtablezSampleParameterEi, symObjAddr: 0x374, symBinAddr: 0x30CC0, symSize: 0x48 }
  - { offsetInCU: 0x716, offset: 0x15B75B, size: 0x8, addend: 0x0, symName: __ZN4absl12lts_2021110218container_internal23SetHashtablezMaxSamplesEi, symObjAddr: 0x3BC, symBinAddr: 0x30D08, symSize: 0x60 }
  - { offsetInCU: 0x517D, offset: 0x1601C2, size: 0x8, addend: 0x0, symName: __ZN4absl12lts_2021110218profiling_internal14SampleRecorderINS0_18container_internal14HashtablezInfoEEC2Ev, symObjAddr: 0x41C, symBinAddr: 0x30D68, symSize: 0x68 }
  - { offsetInCU: 0x5724, offset: 0x160769, size: 0x8, addend: 0x0, symName: __ZN4absl12lts_2021110218container_internal14HashtablezInfoC2Ev, symObjAddr: 0x8C, symBinAddr: 0x309D8, symSize: 0x48 }
  - { offsetInCU: 0x581C, offset: 0x160861, size: 0x8, addend: 0x0, symName: __ZN4absl12lts_2021110218container_internal14HashtablezInfo18PrepareForSamplingEv, symObjAddr: 0xD4, symBinAddr: 0x30A20, symSize: 0x64 }
  - { offsetInCU: 0x5C1D, offset: 0x160C62, size: 0x8, addend: 0x0, symName: __ZN4absl12lts_2021110218container_internal14HashtablezInfoC1Ev, symObjAddr: 0x138, symBinAddr: 0x30A84, symSize: 0x4 }
  - { offsetInCU: 0x5C40, offset: 0x160C85, size: 0x8, addend: 0x0, symName: __ZN4absl12lts_2021110218container_internal14HashtablezInfoC1Ev, symObjAddr: 0x138, symBinAddr: 0x30A84, symSize: 0x4 }
  - { offsetInCU: 0x5C52, offset: 0x160C97, size: 0x8, addend: 0x0, symName: __ZN4absl12lts_2021110218container_internal14HashtablezInfoD2Ev, symObjAddr: 0x13C, symBinAddr: 0x30A88, symSize: 0x4 }
  - { offsetInCU: 0x5C74, offset: 0x160CB9, size: 0x8, addend: 0x0, symName: __ZN4absl12lts_2021110218container_internal14HashtablezInfoD2Ev, symObjAddr: 0x13C, symBinAddr: 0x30A88, symSize: 0x4 }
  - { offsetInCU: 0x5CAA, offset: 0x160CEF, size: 0x8, addend: 0x0, symName: __ZN4absl12lts_2021110218container_internal14HashtablezInfoD1Ev, symObjAddr: 0x140, symBinAddr: 0x30A8C, symSize: 0x4 }
  - { offsetInCU: 0x5CCC, offset: 0x160D11, size: 0x8, addend: 0x0, symName: __ZN4absl12lts_2021110218container_internal14HashtablezInfoD1Ev, symObjAddr: 0x140, symBinAddr: 0x30A8C, symSize: 0x4 }
  - { offsetInCU: 0x5CE7, offset: 0x160D2C, size: 0x8, addend: 0x0, symName: __ZN4absl12lts_2021110218container_internal14HashtablezInfoD1Ev, symObjAddr: 0x140, symBinAddr: 0x30A8C, symSize: 0x4 }
  - { offsetInCU: 0x5D78, offset: 0x160DBD, size: 0x8, addend: 0x0, symName: __ZN4absl12lts_2021110218profiling_internal14SampleRecorderINS0_18container_internal14HashtablezInfoEE8RegisterEv, symObjAddr: 0x1B4, symBinAddr: 0x30B00, symSize: 0x100 }
  - { offsetInCU: 0x6118, offset: 0x16115D, size: 0x8, addend: 0x0, symName: __ZN4absl12lts_2021110218profiling_internal14SampleRecorderINS0_18container_internal14HashtablezInfoEE7PopDeadEv, symObjAddr: 0x490, symBinAddr: 0x30DD0, symSize: 0xA8 }
  - { offsetInCU: 0x629F, offset: 0x1612E4, size: 0x8, addend: 0x0, symName: __ZN4absl12lts_2021110218profiling_internal14SampleRecorderINS0_18container_internal14HashtablezInfoEE8PushDeadEPS4_, symObjAddr: 0x538, symBinAddr: 0x30E78, symSize: 0x88 }
  - { offsetInCU: 0x26, offset: 0x161AA8, size: 0x8, addend: 0x0, symName: _AbslContainerInternalSampleEverything_lts_20211102, symObjAddr: 0x0, symBinAddr: 0x30F00, symSize: 0x8 }
  - { offsetInCU: 0x2AA5, offset: 0x164527, size: 0x8, addend: 0x0, symName: _AbslContainerInternalSampleEverything_lts_20211102, symObjAddr: 0x0, symBinAddr: 0x30F00, symSize: 0x8 }
  - { offsetInCU: 0x4A, offset: 0x16458B, size: 0x8, addend: 0x0, symName: __ZN4absl12lts_2021110211kuint128maxE, symObjAddr: 0x1B90, symBinAddr: 0x5B920, symSize: 0x0 }
  - { offsetInCU: 0x59, offset: 0x16459A, size: 0x8, addend: 0x0, symName: __ZN4absl12lts_2021110212_GLOBAL__N_120MakeUint128FromFloatIfEENS0_7uint128ET_, symObjAddr: 0x28, symBinAddr: 0x30F30, symSize: 0x94 }
  - { offsetInCU: 0x132, offset: 0x164673, size: 0x8, addend: 0x0, symName: __ZN4absl12lts_2021110212_GLOBAL__N_120MakeUint128FromFloatIdEENS0_7uint128ET_, symObjAddr: 0x10C, symBinAddr: 0x31014, symSize: 0xAC }
  - { offsetInCU: 0x18B, offset: 0x1646CC, size: 0x8, addend: 0x0, symName: __ZN4absl12lts_202111027uint128C1Ed, symObjAddr: 0x1B8, symBinAddr: 0x310C0, symSize: 0x28 }
  - { offsetInCU: 0x19E, offset: 0x1646DF, size: 0x8, addend: 0x0, symName: __ZN4absl12lts_2021110212_GLOBAL__N_120MakeUint128FromFloatEe, symObjAddr: 0x208, symBinAddr: 0x31110, symSize: 0xB4 }
  - { offsetInCU: 0x320, offset: 0x164861, size: 0x8, addend: 0x0, symName: __ZN4absl12lts_202111027uint128C1Ee, symObjAddr: 0x2BC, symBinAddr: 0x311C4, symSize: 0x28 }
  - { offsetInCU: 0x32A, offset: 0x16486B, size: 0x8, addend: 0x0, symName: __ZN4absl12lts_2021110212_GLOBAL__N_124Uint128ToFormattedStringENS0_7uint128Ej, symObjAddr: 0x540, symBinAddr: 0x31448, symSize: 0x424 }
  - { offsetInCU: 0xCDF, offset: 0x165220, size: 0x8, addend: 0x0, symName: __ZN4absl12lts_20211102lsERNSt3__113basic_ostreamIcNS1_11char_traitsIcEEEENS0_7uint128E, symObjAddr: 0x2E4, symBinAddr: 0x311EC, symSize: 0x25C }
  - { offsetInCU: 0x1351, offset: 0x165892, size: 0x8, addend: 0x0, symName: __ZN4absl12lts_20211102lsERNSt3__113basic_ostreamIcNS1_11char_traitsIcEEEENS0_6int128E, symObjAddr: 0x964, symBinAddr: 0x3186C, symSize: 0x404 }
  - { offsetInCU: 0x1E6E, offset: 0x1663AF, size: 0x8, addend: 0x0, symName: __ZNSt3__114numeric_limitsIN4absl12lts_202111027uint128EE14is_specializedE, symObjAddr: 0x1BA0, symBinAddr: 0x5B930, symSize: 0x0 }
  - { offsetInCU: 0x596C, offset: 0x169EAD, size: 0x8, addend: 0x0, symName: __ZNSt3__114numeric_limitsIN4absl12lts_202111027uint128EE9is_signedE, symObjAddr: 0x1BA1, symBinAddr: 0x5B931, symSize: 0x0 }
  - { offsetInCU: 0x5980, offset: 0x169EC1, size: 0x8, addend: 0x0, symName: __ZNSt3__114numeric_limitsIN4absl12lts_202111027uint128EE10is_integerE, symObjAddr: 0x1BA2, symBinAddr: 0x5B932, symSize: 0x0 }
  - { offsetInCU: 0x5994, offset: 0x169ED5, size: 0x8, addend: 0x0, symName: __ZNSt3__114numeric_limitsIN4absl12lts_202111027uint128EE8is_exactE, symObjAddr: 0x1BA3, symBinAddr: 0x5B933, symSize: 0x0 }
  - { offsetInCU: 0x59A8, offset: 0x169EE9, size: 0x8, addend: 0x0, symName: __ZNSt3__114numeric_limitsIN4absl12lts_202111027uint128EE12has_infinityE, symObjAddr: 0x1BA4, symBinAddr: 0x5B934, symSize: 0x0 }
  - { offsetInCU: 0x59BC, offset: 0x169EFD, size: 0x8, addend: 0x0, symName: __ZNSt3__114numeric_limitsIN4absl12lts_202111027uint128EE13has_quiet_NaNE, symObjAddr: 0x1BA5, symBinAddr: 0x5B935, symSize: 0x0 }
  - { offsetInCU: 0x59D0, offset: 0x169F11, size: 0x8, addend: 0x0, symName: __ZNSt3__114numeric_limitsIN4absl12lts_202111027uint128EE17has_signaling_NaNE, symObjAddr: 0x1BA6, symBinAddr: 0x5B936, symSize: 0x0 }
  - { offsetInCU: 0x59E4, offset: 0x169F25, size: 0x8, addend: 0x0, symName: __ZNSt3__114numeric_limitsIN4absl12lts_202111027uint128EE10has_denormE, symObjAddr: 0x1BA8, symBinAddr: 0x5B938, symSize: 0x0 }
  - { offsetInCU: 0x59F8, offset: 0x169F39, size: 0x8, addend: 0x0, symName: __ZNSt3__114numeric_limitsIN4absl12lts_202111027uint128EE15has_denorm_lossE, symObjAddr: 0x1BAC, symBinAddr: 0x5B93C, symSize: 0x0 }
  - { offsetInCU: 0x5A0C, offset: 0x169F4D, size: 0x8, addend: 0x0, symName: __ZNSt3__114numeric_limitsIN4absl12lts_202111027uint128EE11round_styleE, symObjAddr: 0x1BB0, symBinAddr: 0x5B940, symSize: 0x0 }
  - { offsetInCU: 0x5A20, offset: 0x169F61, size: 0x8, addend: 0x0, symName: __ZNSt3__114numeric_limitsIN4absl12lts_202111027uint128EE9is_iec559E, symObjAddr: 0x1BB4, symBinAddr: 0x5B944, symSize: 0x0 }
  - { offsetInCU: 0x5A34, offset: 0x169F75, size: 0x8, addend: 0x0, symName: __ZNSt3__114numeric_limitsIN4absl12lts_202111027uint128EE10is_boundedE, symObjAddr: 0x1BB5, symBinAddr: 0x5B945, symSize: 0x0 }
  - { offsetInCU: 0x5A48, offset: 0x169F89, size: 0x8, addend: 0x0, symName: __ZNSt3__114numeric_limitsIN4absl12lts_202111027uint128EE9is_moduloE, symObjAddr: 0x1BB6, symBinAddr: 0x5B946, symSize: 0x0 }
  - { offsetInCU: 0x5A5C, offset: 0x169F9D, size: 0x8, addend: 0x0, symName: __ZNSt3__114numeric_limitsIN4absl12lts_202111027uint128EE6digitsE, symObjAddr: 0x1BB8, symBinAddr: 0x5B948, symSize: 0x0 }
  - { offsetInCU: 0x5A70, offset: 0x169FB1, size: 0x8, addend: 0x0, symName: __ZNSt3__114numeric_limitsIN4absl12lts_202111027uint128EE8digits10E, symObjAddr: 0x1BBC, symBinAddr: 0x5B94C, symSize: 0x0 }
  - { offsetInCU: 0x5A84, offset: 0x169FC5, size: 0x8, addend: 0x0, symName: __ZNSt3__114numeric_limitsIN4absl12lts_202111027uint128EE12max_digits10E, symObjAddr: 0x1BC0, symBinAddr: 0x5B950, symSize: 0x0 }
  - { offsetInCU: 0x5A98, offset: 0x169FD9, size: 0x8, addend: 0x0, symName: __ZNSt3__114numeric_limitsIN4absl12lts_202111027uint128EE5radixE, symObjAddr: 0x1BC4, symBinAddr: 0x5B954, symSize: 0x0 }
  - { offsetInCU: 0x5AAC, offset: 0x169FED, size: 0x8, addend: 0x0, symName: __ZNSt3__114numeric_limitsIN4absl12lts_202111027uint128EE12min_exponentE, symObjAddr: 0x1BC8, symBinAddr: 0x5B958, symSize: 0x0 }
  - { offsetInCU: 0x5AC0, offset: 0x16A001, size: 0x8, addend: 0x0, symName: __ZNSt3__114numeric_limitsIN4absl12lts_202111027uint128EE14min_exponent10E, symObjAddr: 0x1BCC, symBinAddr: 0x5B95C, symSize: 0x0 }
  - { offsetInCU: 0x5AD4, offset: 0x16A015, size: 0x8, addend: 0x0, symName: __ZNSt3__114numeric_limitsIN4absl12lts_202111027uint128EE12max_exponentE, symObjAddr: 0x1BD0, symBinAddr: 0x5B960, symSize: 0x0 }
  - { offsetInCU: 0x5AE8, offset: 0x16A029, size: 0x8, addend: 0x0, symName: __ZNSt3__114numeric_limitsIN4absl12lts_202111027uint128EE14max_exponent10E, symObjAddr: 0x1BD4, symBinAddr: 0x5B964, symSize: 0x0 }
  - { offsetInCU: 0x5AFC, offset: 0x16A03D, size: 0x8, addend: 0x0, symName: __ZNSt3__114numeric_limitsIN4absl12lts_202111027uint128EE5trapsE, symObjAddr: 0x1BD8, symBinAddr: 0x5B968, symSize: 0x0 }
  - { offsetInCU: 0x5B10, offset: 0x16A051, size: 0x8, addend: 0x0, symName: __ZNSt3__114numeric_limitsIN4absl12lts_202111027uint128EE15tinyness_beforeE, symObjAddr: 0x1BD9, symBinAddr: 0x5B969, symSize: 0x0 }
  - { offsetInCU: 0x5B24, offset: 0x16A065, size: 0x8, addend: 0x0, symName: __ZNSt3__114numeric_limitsIN4absl12lts_202111026int128EE14is_specializedE, symObjAddr: 0x1BDA, symBinAddr: 0x5B96A, symSize: 0x0 }
  - { offsetInCU: 0x5B38, offset: 0x16A079, size: 0x8, addend: 0x0, symName: __ZNSt3__114numeric_limitsIN4absl12lts_202111026int128EE9is_signedE, symObjAddr: 0x1BDB, symBinAddr: 0x5B96B, symSize: 0x0 }
  - { offsetInCU: 0x5B4C, offset: 0x16A08D, size: 0x8, addend: 0x0, symName: __ZNSt3__114numeric_limitsIN4absl12lts_202111026int128EE10is_integerE, symObjAddr: 0x1BDC, symBinAddr: 0x5B96C, symSize: 0x0 }
  - { offsetInCU: 0x5B60, offset: 0x16A0A1, size: 0x8, addend: 0x0, symName: __ZNSt3__114numeric_limitsIN4absl12lts_202111026int128EE8is_exactE, symObjAddr: 0x1BDD, symBinAddr: 0x5B96D, symSize: 0x0 }
  - { offsetInCU: 0x5B74, offset: 0x16A0B5, size: 0x8, addend: 0x0, symName: __ZNSt3__114numeric_limitsIN4absl12lts_202111026int128EE12has_infinityE, symObjAddr: 0x1BDE, symBinAddr: 0x5B96E, symSize: 0x0 }
  - { offsetInCU: 0x5B88, offset: 0x16A0C9, size: 0x8, addend: 0x0, symName: __ZNSt3__114numeric_limitsIN4absl12lts_202111026int128EE13has_quiet_NaNE, symObjAddr: 0x1BDF, symBinAddr: 0x5B96F, symSize: 0x0 }
  - { offsetInCU: 0x5B9C, offset: 0x16A0DD, size: 0x8, addend: 0x0, symName: __ZNSt3__114numeric_limitsIN4absl12lts_202111026int128EE17has_signaling_NaNE, symObjAddr: 0x1BE0, symBinAddr: 0x5B970, symSize: 0x0 }
  - { offsetInCU: 0x5BB0, offset: 0x16A0F1, size: 0x8, addend: 0x0, symName: __ZNSt3__114numeric_limitsIN4absl12lts_202111026int128EE10has_denormE, symObjAddr: 0x1BE4, symBinAddr: 0x5B974, symSize: 0x0 }
  - { offsetInCU: 0x5BC4, offset: 0x16A105, size: 0x8, addend: 0x0, symName: __ZNSt3__114numeric_limitsIN4absl12lts_202111026int128EE15has_denorm_lossE, symObjAddr: 0x1BE8, symBinAddr: 0x5B978, symSize: 0x0 }
  - { offsetInCU: 0x5BD8, offset: 0x16A119, size: 0x8, addend: 0x0, symName: __ZNSt3__114numeric_limitsIN4absl12lts_202111026int128EE11round_styleE, symObjAddr: 0x1BEC, symBinAddr: 0x5B97C, symSize: 0x0 }
  - { offsetInCU: 0x5BEC, offset: 0x16A12D, size: 0x8, addend: 0x0, symName: __ZNSt3__114numeric_limitsIN4absl12lts_202111026int128EE9is_iec559E, symObjAddr: 0x1BF0, symBinAddr: 0x5B980, symSize: 0x0 }
  - { offsetInCU: 0x5C00, offset: 0x16A141, size: 0x8, addend: 0x0, symName: __ZNSt3__114numeric_limitsIN4absl12lts_202111026int128EE10is_boundedE, symObjAddr: 0x1BF1, symBinAddr: 0x5B981, symSize: 0x0 }
  - { offsetInCU: 0x5C14, offset: 0x16A155, size: 0x8, addend: 0x0, symName: __ZNSt3__114numeric_limitsIN4absl12lts_202111026int128EE9is_moduloE, symObjAddr: 0x1BF2, symBinAddr: 0x5B982, symSize: 0x0 }
  - { offsetInCU: 0x5C28, offset: 0x16A169, size: 0x8, addend: 0x0, symName: __ZNSt3__114numeric_limitsIN4absl12lts_202111026int128EE6digitsE, symObjAddr: 0x1BF4, symBinAddr: 0x5B984, symSize: 0x0 }
  - { offsetInCU: 0x5C3C, offset: 0x16A17D, size: 0x8, addend: 0x0, symName: __ZNSt3__114numeric_limitsIN4absl12lts_202111026int128EE8digits10E, symObjAddr: 0x1BF8, symBinAddr: 0x5B988, symSize: 0x0 }
  - { offsetInCU: 0x5C50, offset: 0x16A191, size: 0x8, addend: 0x0, symName: __ZNSt3__114numeric_limitsIN4absl12lts_202111026int128EE12max_digits10E, symObjAddr: 0x1BFC, symBinAddr: 0x5B98C, symSize: 0x0 }
  - { offsetInCU: 0x5C64, offset: 0x16A1A5, size: 0x8, addend: 0x0, symName: __ZNSt3__114numeric_limitsIN4absl12lts_202111026int128EE5radixE, symObjAddr: 0x1C00, symBinAddr: 0x5B990, symSize: 0x0 }
  - { offsetInCU: 0x5C78, offset: 0x16A1B9, size: 0x8, addend: 0x0, symName: __ZNSt3__114numeric_limitsIN4absl12lts_202111026int128EE12min_exponentE, symObjAddr: 0x1C04, symBinAddr: 0x5B994, symSize: 0x0 }
  - { offsetInCU: 0x5C8C, offset: 0x16A1CD, size: 0x8, addend: 0x0, symName: __ZNSt3__114numeric_limitsIN4absl12lts_202111026int128EE14min_exponent10E, symObjAddr: 0x1C08, symBinAddr: 0x5B998, symSize: 0x0 }
  - { offsetInCU: 0x5CA0, offset: 0x16A1E1, size: 0x8, addend: 0x0, symName: __ZNSt3__114numeric_limitsIN4absl12lts_202111026int128EE12max_exponentE, symObjAddr: 0x1C0C, symBinAddr: 0x5B99C, symSize: 0x0 }
  - { offsetInCU: 0x5CB4, offset: 0x16A1F5, size: 0x8, addend: 0x0, symName: __ZNSt3__114numeric_limitsIN4absl12lts_202111026int128EE14max_exponent10E, symObjAddr: 0x1C10, symBinAddr: 0x5B9A0, symSize: 0x0 }
  - { offsetInCU: 0x5CC8, offset: 0x16A209, size: 0x8, addend: 0x0, symName: __ZNSt3__114numeric_limitsIN4absl12lts_202111026int128EE5trapsE, symObjAddr: 0x1C14, symBinAddr: 0x5B9A4, symSize: 0x0 }
  - { offsetInCU: 0x5CDC, offset: 0x16A21D, size: 0x8, addend: 0x0, symName: __ZNSt3__114numeric_limitsIN4absl12lts_202111026int128EE15tinyness_beforeE, symObjAddr: 0x1C15, symBinAddr: 0x5B9A5, symSize: 0x0 }
  - { offsetInCU: 0x7CCF, offset: 0x16C210, size: 0x8, addend: 0x0, symName: __ZN4absl12lts_202111027uint128C2Ef, symObjAddr: 0x0, symBinAddr: 0x30F08, symSize: 0x28 }
  - { offsetInCU: 0x7D4C, offset: 0x16C28D, size: 0x8, addend: 0x0, symName: __ZN4absl12lts_2021110212_GLOBAL__N_120MakeUint128FromFloatIfEENS0_7uint128ET_.cold.1, symObjAddr: 0x1998, symBinAddr: 0x54C10, symSize: 0x28 }
  - { offsetInCU: 0x7D64, offset: 0x16C2A5, size: 0x8, addend: 0x0, symName: __ZN4absl12lts_202111027uint128C1Ef, symObjAddr: 0xBC, symBinAddr: 0x30FC4, symSize: 0x28 }
  - { offsetInCU: 0x7DB7, offset: 0x16C2F8, size: 0x8, addend: 0x0, symName: __ZN4absl12lts_202111027uint128C2Ed, symObjAddr: 0xE4, symBinAddr: 0x30FEC, symSize: 0x28 }
  - { offsetInCU: 0x7E0A, offset: 0x16C34B, size: 0x8, addend: 0x0, symName: __ZN4absl12lts_2021110212_GLOBAL__N_120MakeUint128FromFloatIdEENS0_7uint128ET_.cold.1, symObjAddr: 0x19C0, symBinAddr: 0x54C38, symSize: 0x28 }
  - { offsetInCU: 0x7E22, offset: 0x16C363, size: 0x8, addend: 0x0, symName: __ZN4absl12lts_202111027uint128C1Ed, symObjAddr: 0x1B8, symBinAddr: 0x310C0, symSize: 0x28 }
  - { offsetInCU: 0x7E75, offset: 0x16C3B6, size: 0x8, addend: 0x0, symName: __ZN4absl12lts_202111027uint128C2Ee, symObjAddr: 0x1E0, symBinAddr: 0x310E8, symSize: 0x28 }
  - { offsetInCU: 0x7F10, offset: 0x16C451, size: 0x8, addend: 0x0, symName: __ZN4absl12lts_2021110212_GLOBAL__N_120MakeUint128FromFloatEe.cold.1, symObjAddr: 0x19E8, symBinAddr: 0x54C60, symSize: 0x28 }
  - { offsetInCU: 0x7F28, offset: 0x16C469, size: 0x8, addend: 0x0, symName: __ZN4absl12lts_202111027uint128C1Ee, symObjAddr: 0x2BC, symBinAddr: 0x311C4, symSize: 0x28 }
  - { offsetInCU: 0x8D78, offset: 0x16D2B9, size: 0x8, addend: 0x0, symName: __ZN4absl12lts_2021110212_GLOBAL__N_120MakeUint128FromFloatIfEENS0_7uint128ET_.cold.1, symObjAddr: 0x1998, symBinAddr: 0x54C10, symSize: 0x28 }
  - { offsetInCU: 0x3363, offset: 0x1706B4, size: 0x8, addend: 0x0, symName: __ZN4absl12lts_20211102lsERNSt3__113basic_ostreamIcNS1_11char_traitsIcEEEENS0_11LogSeverityE, symObjAddr: 0x0, symBinAddr: 0x31C70, symSize: 0x84 }
  - { offsetInCU: 0x67, offset: 0x172D37, size: 0x8, addend: 0x0, symName: __ZN4absl12lts_2021110213base_internal12_GLOBAL__N_119create_globals_onceE, symObjAddr: 0x12678, symBinAddr: 0x70B38, symSize: 0x0 }
  - { offsetInCU: 0x82, offset: 0x172D52, size: 0x8, addend: 0x0, symName: __ZN4absl12lts_2021110213base_internal12_GLOBAL__N_122unhooked_arena_storageE, symObjAddr: 0x12680, symBinAddr: 0x70B40, symSize: 0x0 }
  - { offsetInCU: 0x9D, offset: 0x172D6D, size: 0x8, addend: 0x0, symName: __ZN4absl12lts_2021110213base_internal12_GLOBAL__N_137unhooked_async_sig_safe_arena_storageE, symObjAddr: 0x127C8, symBinAddr: 0x70C88, symSize: 0x0 }
  - { offsetInCU: 0xB8, offset: 0x172D88, size: 0x8, addend: 0x0, symName: __ZN4absl12lts_2021110213base_internal12_GLOBAL__N_121default_arena_storageE, symObjAddr: 0x12530, symBinAddr: 0x709F0, symSize: 0x0 }
  - { offsetInCU: 0x130, offset: 0x172E00, size: 0x8, addend: 0x0, symName: __ZN4absl12lts_2021110213base_internal12_GLOBAL__N_118CreateGlobalArenasEv, symObjAddr: 0x48, symBinAddr: 0x31D3C, symSize: 0x3C }
  - { offsetInCU: 0x2ED, offset: 0x172FBD, size: 0x8, addend: 0x0, symName: __ZN4absl12lts_2021110213base_internal12CallOnceImplIRFvvEJEEEvPNSt3__16atomicIjEENS1_14SchedulingModeEOT_DpOT0_, symObjAddr: 0x1150, symBinAddr: 0x32E38, symSize: 0x110 }
  - { offsetInCU: 0x313, offset: 0x172FE3, size: 0x8, addend: 0x0, symName: __ZZN4absl12lts_2021110213base_internal12CallOnceImplIRFvvEJEEEvPNSt3__16atomicIjEENS1_14SchedulingModeEOT_DpOT0_E5trans, symObjAddr: 0x1914, symBinAddr: 0x5B9C0, symSize: 0x0 }
  - { offsetInCU: 0x700, offset: 0x1733D0, size: 0x8, addend: 0x0, symName: __ZN4absl12lts_2021110213base_internalL16DoAllocWithArenaEmPNS1_13LowLevelAlloc5ArenaE, symObjAddr: 0x8BC, symBinAddr: 0x325B0, symSize: 0x500 }
  - { offsetInCU: 0xD7C, offset: 0x173A4C, size: 0x8, addend: 0x0, symName: __ZN4absl12lts_2021110213base_internalL13AddToFreelistEPvPNS1_13LowLevelAlloc5ArenaE, symObjAddr: 0x738, symBinAddr: 0x3242C, symSize: 0x12C }
  - { offsetInCU: 0xEEA, offset: 0x173BBA, size: 0x8, addend: 0x0, symName: __ZN4absl12lts_2021110213base_internalL18LLA_SkiplistLevelsEmmPj, symObjAddr: 0xDC8, symBinAddr: 0x32AB0, symSize: 0xD0 }
  - { offsetInCU: 0xFF8, offset: 0x173CC8, size: 0x8, addend: 0x0, symName: __ZN4absl12lts_2021110213base_internalL18LLA_SkiplistInsertEPNS1_12_GLOBAL__N_19AllocListES4_PS4_, symObjAddr: 0xE98, symBinAddr: 0x32B80, symSize: 0xB4 }
  - { offsetInCU: 0x10AC, offset: 0x173D7C, size: 0x8, addend: 0x0, symName: __ZN4absl12lts_2021110213base_internalL8CoalesceEPNS1_12_GLOBAL__N_19AllocListE, symObjAddr: 0xF4C, symBinAddr: 0x32C34, symSize: 0xC8 }
  - { offsetInCU: 0x1280, offset: 0x173F50, size: 0x8, addend: 0x0, symName: __ZN4absl12lts_2021110213base_internalL18LLA_SkiplistDeleteEPNS1_12_GLOBAL__N_19AllocListES4_PS4_, symObjAddr: 0x1014, symBinAddr: 0x32CFC, symSize: 0x13C }
  - { offsetInCU: 0x4101, offset: 0x176DD1, size: 0x8, addend: 0x0, symName: __ZN4absl12lts_2021110213base_internal13LowLevelAlloc12DefaultArenaEv, symObjAddr: 0x0, symBinAddr: 0x31CF4, symSize: 0x48 }
  - { offsetInCU: 0x41C2, offset: 0x176E92, size: 0x8, addend: 0x0, symName: __ZN4absl12lts_2021110213base_internal13LowLevelAlloc5ArenaC2Ej, symObjAddr: 0x84, symBinAddr: 0x31D78, symSize: 0x90 }
  - { offsetInCU: 0x426B, offset: 0x176F3B, size: 0x8, addend: 0x0, symName: __ZN4absl12lts_2021110213base_internal13LowLevelAlloc5ArenaC1Ej, symObjAddr: 0x114, symBinAddr: 0x31E08, symSize: 0x4 }
  - { offsetInCU: 0x4294, offset: 0x176F64, size: 0x8, addend: 0x0, symName: __ZN4absl12lts_2021110213base_internal13LowLevelAlloc5ArenaC1Ej, symObjAddr: 0x114, symBinAddr: 0x31E08, symSize: 0x4 }
  - { offsetInCU: 0x42FB, offset: 0x176FCB, size: 0x8, addend: 0x0, symName: __ZN4absl12lts_2021110213base_internal13LowLevelAlloc8NewArenaEi, symObjAddr: 0x118, symBinAddr: 0x31E0C, symSize: 0xB0 }
  - { offsetInCU: 0x457D, offset: 0x17724D, size: 0x8, addend: 0x0, symName: __ZN4absl12lts_2021110213base_internal13LowLevelAlloc14AllocWithArenaEmPNS2_5ArenaE, symObjAddr: 0x1C8, symBinAddr: 0x31EBC, symSize: 0x68 }
  - { offsetInCU: 0x45EF, offset: 0x1772BF, size: 0x8, addend: 0x0, symName: __ZN4absl12lts_2021110213base_internal13LowLevelAlloc11DeleteArenaEPNS2_5ArenaE, symObjAddr: 0x230, symBinAddr: 0x31F24, symSize: 0x2C0 }
  - { offsetInCU: 0x49CA, offset: 0x17769A, size: 0x8, addend: 0x0, symName: __ZN4absl12lts_2021110213base_internal12_GLOBAL__N_19ArenaLockC1EPNS1_13LowLevelAlloc5ArenaE, symObjAddr: 0x4F0, symBinAddr: 0x321E4, symSize: 0x98 }
  - { offsetInCU: 0x4B6A, offset: 0x17783A, size: 0x8, addend: 0x0, symName: __ZN4absl12lts_2021110213base_internal12_GLOBAL__N_19ArenaLock5LeaveEv, symObjAddr: 0x588, symBinAddr: 0x3227C, symSize: 0x90 }
  - { offsetInCU: 0x4CC5, offset: 0x177995, size: 0x8, addend: 0x0, symName: __ZN4absl12lts_2021110213base_internal13LowLevelAlloc4FreeEPv, symObjAddr: 0x618, symBinAddr: 0x3230C, symSize: 0xB8 }
  - { offsetInCU: 0x4DC7, offset: 0x177A97, size: 0x8, addend: 0x0, symName: __ZN4absl12lts_2021110213base_internal12_GLOBAL__N_19ArenaLockD1Ev, symObjAddr: 0x6D0, symBinAddr: 0x323C4, symSize: 0x68 }
  - { offsetInCU: 0x4FCC, offset: 0x177C9C, size: 0x8, addend: 0x0, symName: __ZN4absl12lts_2021110213base_internal13LowLevelAlloc5AllocEm, symObjAddr: 0x864, symBinAddr: 0x32558, symSize: 0x58 }
  - { offsetInCU: 0x26, offset: 0x177E57, size: 0x8, addend: 0x0, symName: __ZN4absl12lts_2021110213hash_internal12LowLevelHashEPKvmyPKy, symObjAddr: 0x0, symBinAddr: 0x32F48, symSize: 0x188 }
  - { offsetInCU: 0x16E4, offset: 0x179515, size: 0x8, addend: 0x0, symName: __ZN4absl12lts_2021110213hash_internal12LowLevelHashEPKvmyPKy, symObjAddr: 0x0, symBinAddr: 0x32F48, symSize: 0x188 }
  - { offsetInCU: 0x51, offset: 0x179990, size: 0x8, addend: 0x0, symName: __ZN4absl12lts_2021110216EqualsIgnoreCaseENS0_11string_viewES1_, symObjAddr: 0x0, symBinAddr: 0x330D0, symSize: 0x3C }
  - { offsetInCU: 0xC0, offset: 0x1799FF, size: 0x8, addend: 0x0, symName: __ZN4absl12lts_2021110220StartsWithIgnoreCaseENS0_11string_viewES1_, symObjAddr: 0x48, symBinAddr: 0x3310C, symSize: 0x5C }
  - { offsetInCU: 0x148, offset: 0x179A87, size: 0x8, addend: 0x0, symName: __ZN4absl12lts_2021110218EndsWithIgnoreCaseENS0_11string_viewES1_, symObjAddr: 0xE8, symBinAddr: 0x33168, symSize: 0x58 }
  - { offsetInCU: 0x2BD6, offset: 0x17C515, size: 0x8, addend: 0x0, symName: __ZN4absl12lts_2021110218EndsWithIgnoreCaseENS0_11string_viewES1_, symObjAddr: 0xE8, symBinAddr: 0x33168, symSize: 0x58 }
  - { offsetInCU: 0x26, offset: 0x17C65A, size: 0x8, addend: 0x0, symName: __ZN4absl12lts_2021110216strings_internal10memcasecmpEPKcS3_m, symObjAddr: 0x0, symBinAddr: 0x331C0, symSize: 0x40 }
  - { offsetInCU: 0x29FC, offset: 0x17F030, size: 0x8, addend: 0x0, symName: __ZN4absl12lts_2021110216strings_internal10memcasecmpEPKcS3_m, symObjAddr: 0x0, symBinAddr: 0x331C0, symSize: 0x40 }
  - { offsetInCU: 0x2A64, offset: 0x17F098, size: 0x8, addend: 0x0, symName: __ZN4absl12lts_2021110216strings_internal10memcasecmpEPKcS3_m, symObjAddr: 0x0, symBinAddr: 0x331C0, symSize: 0x40 }
  - { offsetInCU: 0x2AC7, offset: 0x17F0FB, size: 0x8, addend: 0x0, symName: __ZN4absl12lts_2021110216strings_internal6memdupEPKcm, symObjAddr: 0x40, symBinAddr: 0x33200, symSize: 0x4C }
  - { offsetInCU: 0x2B13, offset: 0x17F147, size: 0x8, addend: 0x0, symName: __ZN4absl12lts_2021110216strings_internal7memrchrEPKcim, symObjAddr: 0x8C, symBinAddr: 0x3324C, symSize: 0x2C }
  - { offsetInCU: 0x2B5B, offset: 0x17F18F, size: 0x8, addend: 0x0, symName: __ZN4absl12lts_2021110216strings_internal7memrchrEPKcim, symObjAddr: 0x8C, symBinAddr: 0x3324C, symSize: 0x2C }
  - { offsetInCU: 0x2B79, offset: 0x17F1AD, size: 0x8, addend: 0x0, symName: __ZN4absl12lts_2021110216strings_internal6memspnEPKcmS3_, symObjAddr: 0xB8, symBinAddr: 0x33278, symSize: 0x44 }
  - { offsetInCU: 0x2C0B, offset: 0x17F23F, size: 0x8, addend: 0x0, symName: __ZN4absl12lts_2021110216strings_internal7memcspnEPKcmS3_, symObjAddr: 0xFC, symBinAddr: 0x332BC, symSize: 0x48 }
  - { offsetInCU: 0x2C8D, offset: 0x17F2C1, size: 0x8, addend: 0x0, symName: __ZN4absl12lts_2021110216strings_internal7mempbrkEPKcmS3_, symObjAddr: 0x144, symBinAddr: 0x33304, symSize: 0x38 }
  - { offsetInCU: 0x2CF4, offset: 0x17F328, size: 0x8, addend: 0x0, symName: __ZN4absl12lts_2021110216strings_internal8memmatchEPKcmS3_m, symObjAddr: 0x17C, symBinAddr: 0x3333C, symSize: 0x90 }
  - { offsetInCU: 0x85B, offset: 0x17FC64, size: 0x8, addend: 0x0, symName: '__ZN4absl12lts_2021110213base_internal12CallOnceImplIZNS0_12_GLOBAL__N_115GetMutexGlobalsEvE3$_0JEEEvPNSt3__16atomicIjEENS1_14SchedulingModeEOT_DpOT0_', symObjAddr: 0x3DB0, symBinAddr: 0x365BC, symSize: 0x134 }
  - { offsetInCU: 0x882, offset: 0x17FC8B, size: 0x8, addend: 0x0, symName: '__ZZN4absl12lts_2021110213base_internal12CallOnceImplIZNS0_12_GLOBAL__N_115GetMutexGlobalsEvE3$_0JEEEvPNSt3__16atomicIjEENS1_14SchedulingModeEOT_DpOT0_E5trans', symObjAddr: 0x51F0, symBinAddr: 0x5BA88, symSize: 0x0 }
  - { offsetInCU: 0xDE9, offset: 0x1801F2, size: 0x8, addend: 0x0, symName: __ZN4absl12lts_2021110224synchronization_internal10MutexDelayEii, symObjAddr: 0x1B8, symBinAddr: 0x33584, symSize: 0xA0 }
  - { offsetInCU: 0x10CD, offset: 0x1804D6, size: 0x8, addend: 0x0, symName: __ZN4absl12lts_202111029Condition5kTrueE, symObjAddr: 0x51C8, symBinAddr: 0x5BA60, symSize: 0x0 }
  - { offsetInCU: 0x10E8, offset: 0x1804F1, size: 0x8, addend: 0x0, symName: __MergedGlobals, symObjAddr: 0x5240, symBinAddr: 0x70818, symSize: 0x0 }
  - { offsetInCU: 0x1102, offset: 0x18050B, size: 0x8, addend: 0x0, symName: __MergedGlobals, symObjAddr: 0x5240, symBinAddr: 0x70818, symSize: 0x0 }
  - { offsetInCU: 0x111E, offset: 0x180527, size: 0x8, addend: 0x0, symName: __ZN4absl12lts_2021110212_GLOBAL__N_115cond_var_tracerE, symObjAddr: 0x5218, symBinAddr: 0x707F0, symSize: 0x0 }
  - { offsetInCU: 0x1138, offset: 0x180541, size: 0x8, addend: 0x0, symName: __ZN4absl12lts_2021110212_GLOBAL__N_110symbolizerE, symObjAddr: 0x5228, symBinAddr: 0x70800, symSize: 0x0 }
  - { offsetInCU: 0x1154, offset: 0x18055D, size: 0x8, addend: 0x0, symName: __ZZN4absl12lts_2021110212_GLOBAL__N_115GetMutexGlobalsEvE4data, symObjAddr: 0x4F040, symBinAddr: 0x70E40, symSize: 0x0 }
  - { offsetInCU: 0x11B1, offset: 0x1805BA, size: 0x8, addend: 0x0, symName: __ZN4absl12lts_2021110212_GLOBAL__N_124synch_deadlock_detectionE.0, symObjAddr: 0x5238, symBinAddr: 0x70810, symSize: 0x0 }
  - { offsetInCU: 0x11CB, offset: 0x1805D4, size: 0x8, addend: 0x0, symName: __ZN4absl12lts_2021110212_GLOBAL__N_122synch_check_invariantsE.0, symObjAddr: 0x510BC, symBinAddr: 0x72EBC, symSize: 0x0 }
  - { offsetInCU: 0x1249, offset: 0x180652, size: 0x8, addend: 0x0, symName: __ZN4absl12lts_2021110212_GLOBAL__N_18GetStackEPPvi, symObjAddr: 0x3F20, symBinAddr: 0x3672C, symSize: 0x8 }
  - { offsetInCU: 0x12E9, offset: 0x1806F2, size: 0x8, addend: 0x0, symName: __ZN4absl12lts_20211102L14synch_event_muE, symObjAddr: 0x510B8, symBinAddr: 0x72EB8, symSize: 0x0 }
  - { offsetInCU: 0x1304, offset: 0x18070D, size: 0x8, addend: 0x0, symName: __ZN4absl12lts_20211102L11synch_eventE, symObjAddr: 0x4F080, symBinAddr: 0x70E80, symSize: 0x0 }
  - { offsetInCU: 0x1384, offset: 0x18078D, size: 0x8, addend: 0x0, symName: __ZN4absl12lts_20211102L17deadlock_graph_muE, symObjAddr: 0x510C0, symBinAddr: 0x72EC0, symSize: 0x0 }
  - { offsetInCU: 0x139E, offset: 0x1807A7, size: 0x8, addend: 0x0, symName: __ZN4absl12lts_20211102L14deadlock_graphE, symObjAddr: 0x4F000, symBinAddr: 0x70E00, symSize: 0x0 }
  - { offsetInCU: 0x13AC, offset: 0x1807B5, size: 0x8, addend: 0x0, symName: __ZN4absl12lts_20211102L11StackStringEPPviPcib, symObjAddr: 0x3F28, symBinAddr: 0x36734, symSize: 0x144 }
  - { offsetInCU: 0x152E, offset: 0x180937, size: 0x8, addend: 0x0, symName: __ZN4absl12lts_20211102L11kExclusiveSE, symObjAddr: 0x5158, symBinAddr: 0x5B9F0, symSize: 0x0 }
  - { offsetInCU: 0x1549, offset: 0x180952, size: 0x8, addend: 0x0, symName: __ZN4absl12lts_20211102L8kSharedSE, symObjAddr: 0x5180, symBinAddr: 0x5BA18, symSize: 0x0 }
  - { offsetInCU: 0x1564, offset: 0x18096D, size: 0x8, addend: 0x0, symName: __ZN4absl12lts_20211102L16event_propertiesE, symObjAddr: 0x5260, symBinAddr: 0x6CF90, symSize: 0x0 }
  - { offsetInCU: 0x15A1, offset: 0x1809AA, size: 0x8, addend: 0x0, symName: __ZN4absl12lts_20211102L15zap_desig_wakerE, symObjAddr: 0x51A8, symBinAddr: 0x5BA40, symSize: 0x0 }
  - { offsetInCU: 0x15BC, offset: 0x1809C5, size: 0x8, addend: 0x0, symName: __ZN4absl12lts_20211102L22ignore_waiting_writersE, symObjAddr: 0x51B8, symBinAddr: 0x5BA50, symSize: 0x0 }
  - { offsetInCU: 0x15F7, offset: 0x180A00, size: 0x8, addend: 0x0, symName: __ZN4absl12lts_2021110221RegisterMutexProfilerEPFvxE, symObjAddr: 0x18, symBinAddr: 0x333E4, symSize: 0x10 }
  - { offsetInCU: 0x1636, offset: 0x180A3F, size: 0x8, addend: 0x0, symName: __ZN4absl12lts_2021110219RegisterMutexTracerEPFvPKcPKvxE, symObjAddr: 0x80, symBinAddr: 0x3344C, symSize: 0x10 }
  - { offsetInCU: 0x1675, offset: 0x180A7E, size: 0x8, addend: 0x0, symName: __ZN4absl12lts_2021110221RegisterCondVarTracerEPFvPKcPKvE, symObjAddr: 0xE8, symBinAddr: 0x334B4, symSize: 0x10 }
  - { offsetInCU: 0x16B4, offset: 0x180ABD, size: 0x8, addend: 0x0, symName: __ZN4absl12lts_2021110218RegisterSymbolizerEPFbPKvPciE, symObjAddr: 0x150, symBinAddr: 0x3351C, symSize: 0x10 }
  - { offsetInCU: 0x1751, offset: 0x180B5A, size: 0x8, addend: 0x0, symName: __ZN4absl12lts_20211102L16ForgetSynchEventEPNSt3__16atomicIlEEll, symObjAddr: 0x384, symBinAddr: 0x33744, symSize: 0x220 }
  - { offsetInCU: 0x1BD6, offset: 0x180FDF, size: 0x8, addend: 0x0, symName: __ZN4absl12lts_20211102L16EnsureSynchEventEPNSt3__16atomicIlEEPKcll, symObjAddr: 0x690, symBinAddr: 0x33A50, symSize: 0x1B4 }
  - { offsetInCU: 0x1E8C, offset: 0x181295, size: 0x8, addend: 0x0, symName: __ZN4absl12lts_20211102L15UnrefSynchEventEPNS0_10SynchEventE, symObjAddr: 0x844, symBinAddr: 0x33C04, symSize: 0xC0 }
  - { offsetInCU: 0x208B, offset: 0x181494, size: 0x8, addend: 0x0, symName: __ZN4absl12lts_2021110229EnableMutexInvariantDebuggingEb, symObjAddr: 0x904, symBinAddr: 0x33CC4, symSize: 0x10 }
  - { offsetInCU: 0x20BD, offset: 0x1814C6, size: 0x8, addend: 0x0, symName: __ZN4absl12lts_2021110229EnableMutexInvariantDebuggingEb, symObjAddr: 0x904, symBinAddr: 0x33CC4, symSize: 0x10 }
  - { offsetInCU: 0x20E4, offset: 0x1814ED, size: 0x8, addend: 0x0, symName: __ZN4absl12lts_2021110229EnableMutexInvariantDebuggingEb, symObjAddr: 0x904, symBinAddr: 0x33CC4, symSize: 0x10 }
  - { offsetInCU: 0x2106, offset: 0x18150F, size: 0x8, addend: 0x0, symName: __ZN4absl12lts_2021110229SetMutexDeadlockDetectionModeENS0_15OnDeadlockCycleE, symObjAddr: 0x968, symBinAddr: 0x33D28, symSize: 0x10 }
  - { offsetInCU: 0x2133, offset: 0x18153C, size: 0x8, addend: 0x0, symName: __ZN4absl12lts_2021110229SetMutexDeadlockDetectionModeENS0_15OnDeadlockCycleE, symObjAddr: 0x968, symBinAddr: 0x33D28, symSize: 0x10 }
  - { offsetInCU: 0x2155, offset: 0x18155E, size: 0x8, addend: 0x0, symName: __ZN4absl12lts_2021110229SetMutexDeadlockDetectionModeENS0_15OnDeadlockCycleE, symObjAddr: 0x968, symBinAddr: 0x33D28, symSize: 0x10 }
  - { offsetInCU: 0x21FD, offset: 0x181606, size: 0x8, addend: 0x0, symName: __ZN4absl12lts_20211102L18MuEquivalentWaiterEPNS0_13base_internal14PerThreadSynchES3_, symObjAddr: 0xAD8, symBinAddr: 0x33E98, symSize: 0x3C }
  - { offsetInCU: 0x224A, offset: 0x181653, size: 0x8, addend: 0x0, symName: __ZN4absl12lts_20211102L7DequeueEPNS0_13base_internal14PerThreadSynchES3_, symObjAddr: 0xB14, symBinAddr: 0x33ED4, symSize: 0x78 }
  - { offsetInCU: 0x22B4, offset: 0x1816BD, size: 0x8, addend: 0x0, symName: __ZN4absl12lts_20211102L10GetGraphIdEPNS0_5MutexE, symObjAddr: 0xDA4, symBinAddr: 0x34164, symSize: 0xA8 }
  - { offsetInCU: 0x246F, offset: 0x181878, size: 0x8, addend: 0x0, symName: __ZN4absl12lts_20211102L17Synch_GetAllLocksEv, symObjAddr: 0xE4C, symBinAddr: 0x3420C, symSize: 0x4C }
  - { offsetInCU: 0x24FD, offset: 0x181906, size: 0x8, addend: 0x0, symName: __ZN4absl12lts_20211102L13GetSynchEventEPKv, symObjAddr: 0xE98, symBinAddr: 0x34258, symSize: 0x108 }
  - { offsetInCU: 0x26B4, offset: 0x181ABD, size: 0x8, addend: 0x0, symName: __ZN4absl12lts_20211102L16GetGraphIdLockedEPNS0_5MutexE, symObjAddr: 0x3EE4, symBinAddr: 0x366F0, symSize: 0x3C }
  - { offsetInCU: 0x2762, offset: 0x181B6B, size: 0x8, addend: 0x0, symName: __ZN4absl12lts_20211102L22DebugOnlyDeadlockCheckEPNS0_5MutexE, symObjAddr: 0x1090, symBinAddr: 0x34450, symSize: 0x460 }
  - { offsetInCU: 0x2DC1, offset: 0x1821CA, size: 0x8, addend: 0x0, symName: __ZN4absl12lts_20211102L9LockEnterEPNS0_5MutexENS0_24synchronization_internal7GraphIdEPNS0_14SynchLocksHeldE, symObjAddr: 0x406C, symBinAddr: 0x36878, symSize: 0x78 }
  - { offsetInCU: 0x2FFF, offset: 0x182408, size: 0x8, addend: 0x0, symName: __ZN4absl12lts_20211102L19DeadlineFromTimeoutENS0_8DurationE, symObjAddr: 0x1728, symBinAddr: 0x34A38, symSize: 0x54 }
  - { offsetInCU: 0x3216, offset: 0x18261F, size: 0x8, addend: 0x0, symName: __ZN4absl12lts_20211102L23CheckForMutexCorruptionElPKc, symObjAddr: 0x30CC, symBinAddr: 0x35AD8, symSize: 0x28 }
  - { offsetInCU: 0x3267, offset: 0x182670, size: 0x8, addend: 0x0, symName: __ZN4absl12lts_20211102L7EnqueueEPNS0_13base_internal14PerThreadSynchEPNS0_15SynchWaitParamsEli, symObjAddr: 0x30F4, symBinAddr: 0x35B00, symSize: 0x370 }
  - { offsetInCU: 0x3271, offset: 0x18267A, size: 0x8, addend: 0x0, symName: __ZN4absl12lts_20211102L14PostSynchEventEPvi, symObjAddr: 0x2B2C, symBinAddr: 0x35538, symSize: 0x168 }
  - { offsetInCU: 0x3483, offset: 0x18288C, size: 0x8, addend: 0x0, symName: __ZN4absl12lts_20211102L16ExactlyOneReaderEl, symObjAddr: 0x3094, symBinAddr: 0x35AA0, symSize: 0x38 }
  - { offsetInCU: 0x34D3, offset: 0x1828DC, size: 0x8, addend: 0x0, symName: __ZN4absl12lts_20211102L23CheckForMutexCorruptionElPKc, symObjAddr: 0x30CC, symBinAddr: 0x35AD8, symSize: 0x28 }
  - { offsetInCU: 0x34DD, offset: 0x1828E6, size: 0x8, addend: 0x0, symName: __ZN4absl12lts_20211102L7EnqueueEPNS0_13base_internal14PerThreadSynchEPNS0_15SynchWaitParamsEli, symObjAddr: 0x30F4, symBinAddr: 0x35B00, symSize: 0x370 }
  - { offsetInCU: 0x3927, offset: 0x182D30, size: 0x8, addend: 0x0, symName: __ZN4absl12lts_20211102L18DebugOnlyLockLeaveEPNS0_5MutexE, symObjAddr: 0x2ED8, symBinAddr: 0x358E4, symSize: 0x130 }
  - { offsetInCU: 0x3A53, offset: 0x182E5C, size: 0x8, addend: 0x0, symName: __ZN4absl12lts_202111025Mutex12ReaderUnlockEv, symObjAddr: 0x3008, symBinAddr: 0x35A14, symSize: 0x8C }
  - { offsetInCU: 0x3D81, offset: 0x18318A, size: 0x8, addend: 0x0, symName: __ZN4absl12lts_20211102L11DereferenceEPv, symObjAddr: 0x3D7C, symBinAddr: 0x36588, symSize: 0x8 }
  - { offsetInCU: 0x90D8, offset: 0x1884E1, size: 0x8, addend: 0x0, symName: _AbslInternalMutexYield_lts_20211102, symObjAddr: 0x0, symBinAddr: 0x333CC, symSize: 0x18 }
  - { offsetInCU: 0x912A, offset: 0x188533, size: 0x8, addend: 0x0, symName: __ZN4absl12lts_2021110213base_internal10AtomicHookIPFvxEE5StoreES4_, symObjAddr: 0x28, symBinAddr: 0x333F4, symSize: 0x58 }
  - { offsetInCU: 0x9201, offset: 0x18860A, size: 0x8, addend: 0x0, symName: __ZN4absl12lts_2021110219RegisterMutexTracerEPFvPKcPKvxE, symObjAddr: 0x80, symBinAddr: 0x3344C, symSize: 0x10 }
  - { offsetInCU: 0x92A8, offset: 0x1886B1, size: 0x8, addend: 0x0, symName: __ZN4absl12lts_2021110213base_internal10AtomicHookIPFvxEE5StoreES4_.cold.1, symObjAddr: 0x40E4, symBinAddr: 0x5583C, symSize: 0x24 }
  - { offsetInCU: 0x92D5, offset: 0x1886DE, size: 0x8, addend: 0x0, symName: __ZN4absl12lts_2021110213base_internal10AtomicHookIPFvxEE5StoreES4_.cold.2, symObjAddr: 0x4108, symBinAddr: 0x55860, symSize: 0x24 }
  - { offsetInCU: 0x92ED, offset: 0x1886F6, size: 0x8, addend: 0x0, symName: __ZN4absl12lts_2021110213base_internal10AtomicHookIPFvPKcPKvxEE5StoreES8_, symObjAddr: 0x90, symBinAddr: 0x3345C, symSize: 0x58 }
  - { offsetInCU: 0x93C4, offset: 0x1887CD, size: 0x8, addend: 0x0, symName: __ZN4absl12lts_2021110221RegisterCondVarTracerEPFvPKcPKvE, symObjAddr: 0xE8, symBinAddr: 0x334B4, symSize: 0x10 }
  - { offsetInCU: 0x946B, offset: 0x188874, size: 0x8, addend: 0x0, symName: __ZN4absl12lts_2021110213base_internal10AtomicHookIPFvPKcPKvxEE5StoreES8_.cold.1, symObjAddr: 0x412C, symBinAddr: 0x55884, symSize: 0x24 }
  - { offsetInCU: 0x9498, offset: 0x1888A1, size: 0x8, addend: 0x0, symName: __ZN4absl12lts_2021110213base_internal10AtomicHookIPFvPKcPKvxEE5StoreES8_.cold.2, symObjAddr: 0x4150, symBinAddr: 0x558A8, symSize: 0x24 }
  - { offsetInCU: 0x94B0, offset: 0x1888B9, size: 0x8, addend: 0x0, symName: __ZN4absl12lts_2021110213base_internal10AtomicHookIPFvPKcPKvEE5StoreES8_, symObjAddr: 0xF8, symBinAddr: 0x334C4, symSize: 0x58 }
  - { offsetInCU: 0x9587, offset: 0x188990, size: 0x8, addend: 0x0, symName: __ZN4absl12lts_2021110218RegisterSymbolizerEPFbPKvPciE, symObjAddr: 0x150, symBinAddr: 0x3351C, symSize: 0x10 }
  - { offsetInCU: 0x962E, offset: 0x188A37, size: 0x8, addend: 0x0, symName: __ZN4absl12lts_2021110213base_internal10AtomicHookIPFvPKcPKvEE5StoreES8_.cold.1, symObjAddr: 0x4174, symBinAddr: 0x558CC, symSize: 0x24 }
  - { offsetInCU: 0x965B, offset: 0x188A64, size: 0x8, addend: 0x0, symName: __ZN4absl12lts_2021110213base_internal10AtomicHookIPFvPKcPKvEE5StoreES8_.cold.2, symObjAddr: 0x4198, symBinAddr: 0x558F0, symSize: 0x24 }
  - { offsetInCU: 0x9673, offset: 0x188A7C, size: 0x8, addend: 0x0, symName: __ZN4absl12lts_2021110213base_internal10AtomicHookIPFbPKvPciEE5StoreES7_, symObjAddr: 0x160, symBinAddr: 0x3352C, symSize: 0x58 }
  - { offsetInCU: 0x974A, offset: 0x188B53, size: 0x8, addend: 0x0, symName: __ZN4absl12lts_2021110224synchronization_internal10MutexDelayEii, symObjAddr: 0x1B8, symBinAddr: 0x33584, symSize: 0xA0 }
  - { offsetInCU: 0x97F1, offset: 0x188BFA, size: 0x8, addend: 0x0, symName: __ZN4absl12lts_2021110213base_internal10AtomicHookIPFbPKvPciEE5StoreES7_.cold.1, symObjAddr: 0x41BC, symBinAddr: 0x55914, symSize: 0x24 }
  - { offsetInCU: 0x981E, offset: 0x188C27, size: 0x8, addend: 0x0, symName: __ZN4absl12lts_2021110213base_internal10AtomicHookIPFbPKvPciEE5StoreES7_.cold.2, symObjAddr: 0x41E0, symBinAddr: 0x55938, symSize: 0x24 }
  - { offsetInCU: 0x98CE, offset: 0x188CD7, size: 0x8, addend: 0x0, symName: __ZN4absl12lts_2021110213base_internal15SchedulingGuard12ScopedEnableD1Ev, symObjAddr: 0x258, symBinAddr: 0x33624, symSize: 0x68 }
  - { offsetInCU: 0x996B, offset: 0x188D74, size: 0x8, addend: 0x0, symName: __ZN4absl12lts_202111025Mutex17IncrementSynchSemEPS1_PNS0_13base_internal14PerThreadSynchE, symObjAddr: 0x2C0, symBinAddr: 0x3368C, symSize: 0x8 }
  - { offsetInCU: 0x99E5, offset: 0x188DEE, size: 0x8, addend: 0x0, symName: __ZN4absl12lts_202111025Mutex17DecrementSynchSemEPS1_PNS0_13base_internal14PerThreadSynchENS0_24synchronization_internal13KernelTimeoutE, symObjAddr: 0x2C8, symBinAddr: 0x33694, symSize: 0x40 }
  - { offsetInCU: 0x9AA9, offset: 0x188EB2, size: 0x8, addend: 0x0, symName: __ZN4absl12lts_202111025Mutex45InternalAttemptToUseMutexInFatalSignalHandlerEv, symObjAddr: 0x308, symBinAddr: 0x336D4, symSize: 0x2C }
  - { offsetInCU: 0x9AC6, offset: 0x188ECF, size: 0x8, addend: 0x0, symName: __ZN4absl12lts_202111025Mutex17DecrementSynchSemEPS1_PNS0_13base_internal14PerThreadSynchENS0_24synchronization_internal13KernelTimeoutE.cold.1, symObjAddr: 0x4204, symBinAddr: 0x5595C, symSize: 0x28 }
  - { offsetInCU: 0x9B16, offset: 0x188F1F, size: 0x8, addend: 0x0, symName: __ZN4absl12lts_202111025Mutex45InternalAttemptToUseMutexInFatalSignalHandlerEv, symObjAddr: 0x308, symBinAddr: 0x336D4, symSize: 0x2C }
  - { offsetInCU: 0x9BC0, offset: 0x188FC9, size: 0x8, addend: 0x0, symName: __ZN4absl12lts_202111025MutexD2Ev, symObjAddr: 0x334, symBinAddr: 0x33700, symSize: 0x44 }
  - { offsetInCU: 0x9C7E, offset: 0x189087, size: 0x8, addend: 0x0, symName: __ZN4absl12lts_202111025Mutex18ForgetDeadlockInfoEv, symObjAddr: 0x5A4, symBinAddr: 0x33964, symSize: 0xC4 }
  - { offsetInCU: 0x9FE5, offset: 0x1893EE, size: 0x8, addend: 0x0, symName: __ZN4absl12lts_202111025MutexD1Ev, symObjAddr: 0x668, symBinAddr: 0x33A28, symSize: 0x4 }
  - { offsetInCU: 0xA013, offset: 0x18941C, size: 0x8, addend: 0x0, symName: __ZN4absl12lts_202111025MutexD1Ev, symObjAddr: 0x668, symBinAddr: 0x33A28, symSize: 0x4 }
  - { offsetInCU: 0xA026, offset: 0x18942F, size: 0x8, addend: 0x0, symName: __ZN4absl12lts_202111025Mutex14EnableDebugLogEPKc, symObjAddr: 0x66C, symBinAddr: 0x33A2C, symSize: 0x24 }
  - { offsetInCU: 0xA10D, offset: 0x189516, size: 0x8, addend: 0x0, symName: __ZN4absl12lts_202111025Mutex24EnableInvariantDebuggingEPFvPvES2_, symObjAddr: 0x914, symBinAddr: 0x33CD4, symSize: 0x54 }
  - { offsetInCU: 0xA256, offset: 0x18965F, size: 0x8, addend: 0x0, symName: __ZN4absl12lts_202111025Mutex9TryRemoveEPNS0_13base_internal14PerThreadSynchE, symObjAddr: 0x978, symBinAddr: 0x33D38, symSize: 0x160 }
  - { offsetInCU: 0xA53D, offset: 0x189946, size: 0x8, addend: 0x0, symName: __ZN4absl12lts_202111029Condition15GuaranteedEqualEPKS1_S3_, symObjAddr: 0x1D48, symBinAddr: 0x34F34, symSize: 0x8C }
  - { offsetInCU: 0xA593, offset: 0x18999C, size: 0x8, addend: 0x0, symName: __ZN4absl12lts_202111025Mutex5BlockEPNS0_13base_internal14PerThreadSynchE, symObjAddr: 0xB8C, symBinAddr: 0x33F4C, symSize: 0x104 }
  - { offsetInCU: 0xA6FD, offset: 0x189B06, size: 0x8, addend: 0x0, symName: __ZN4absl12lts_202111025Mutex6WakeupEPNS0_13base_internal14PerThreadSynchE, symObjAddr: 0xC90, symBinAddr: 0x34050, symSize: 0x34 }
  - { offsetInCU: 0xA7F8, offset: 0x189C01, size: 0x8, addend: 0x0, symName: __ZNK4absl12lts_202111025Mutex13AssertNotHeldEv, symObjAddr: 0xCC4, symBinAddr: 0x34084, symSize: 0xE0 }
  - { offsetInCU: 0xA99E, offset: 0x189DA7, size: 0x8, addend: 0x0, symName: __ZN4absl12lts_202111025Mutex4LockEv, symObjAddr: 0xFA0, symBinAddr: 0x34360, symSize: 0xF0 }
  - { offsetInCU: 0xACA4, offset: 0x18A0AD, size: 0x8, addend: 0x0, symName: __ZN4absl12lts_202111025Mutex4LockEv.cold.1, symObjAddr: 0x422C, symBinAddr: 0x55984, symSize: 0xC }
  - { offsetInCU: 0xADBD, offset: 0x18A1C6, size: 0x8, addend: 0x0, symName: __ZN4absl12lts_202111025Mutex8LockSlowEPKNS0_6MuHowSEPKNS0_9ConditionEi, symObjAddr: 0x14F0, symBinAddr: 0x54C88, symSize: 0x5C }
  - { offsetInCU: 0xAE7A, offset: 0x18A283, size: 0x8, addend: 0x0, symName: __ZN4absl12lts_202111025Mutex20LockSlowWithDeadlineEPKNS0_6MuHowSEPKNS0_9ConditionENS0_24synchronization_internal13KernelTimeoutEi, symObjAddr: 0x177C, symBinAddr: 0x34A8C, symSize: 0x150 }
  - { offsetInCU: 0xB1AD, offset: 0x18A5B6, size: 0x8, addend: 0x0, symName: __ZN4absl12lts_202111025Mutex10ReaderLockEv, symObjAddr: 0x154C, symBinAddr: 0x348B0, symSize: 0x88 }
  - { offsetInCU: 0xB351, offset: 0x18A75A, size: 0x8, addend: 0x0, symName: __ZN4absl12lts_202111025Mutex10ReaderLockEv.cold.1, symObjAddr: 0x4238, symBinAddr: 0x55990, symSize: 0xC }
  - { offsetInCU: 0xB369, offset: 0x18A772, size: 0x8, addend: 0x0, symName: __ZN4absl12lts_202111025Mutex8LockWhenERKNS0_9ConditionE, symObjAddr: 0x15D4, symBinAddr: 0x54CE4, symSize: 0x54 }
  - { offsetInCU: 0xB450, offset: 0x18A859, size: 0x8, addend: 0x0, symName: _OUTLINED_FUNCTION_6, symObjAddr: 0x43CC, symBinAddr: 0x36938, symSize: 0xC }
  - { offsetInCU: 0xB468, offset: 0x18A871, size: 0x8, addend: 0x0, symName: _OUTLINED_FUNCTION_3, symObjAddr: 0x43AC, symBinAddr: 0x36918, symSize: 0x10 }
  - { offsetInCU: 0xB480, offset: 0x18A889, size: 0x8, addend: 0x0, symName: _OUTLINED_FUNCTION_2, symObjAddr: 0x43A0, symBinAddr: 0x3690C, symSize: 0xC }
  - { offsetInCU: 0xB498, offset: 0x18A8A1, size: 0x8, addend: 0x0, symName: _OUTLINED_FUNCTION_8, symObjAddr: 0x43EC, symBinAddr: 0x36958, symSize: 0xC }
  - { offsetInCU: 0xB4B0, offset: 0x18A8B9, size: 0x8, addend: 0x0, symName: __ZN4absl12lts_202111025Mutex19LockWhenWithTimeoutERKNS0_9ConditionENS0_8DurationE, symObjAddr: 0x1628, symBinAddr: 0x34938, symSize: 0x3C }
  - { offsetInCU: 0xB52C, offset: 0x18A935, size: 0x8, addend: 0x0, symName: __ZN4absl12lts_202111025Mutex20LockWhenWithDeadlineERKNS0_9ConditionENS0_4TimeE, symObjAddr: 0x1664, symBinAddr: 0x34974, symSize: 0xC4 }
  - { offsetInCU: 0xB83F, offset: 0x18AC48, size: 0x8, addend: 0x0, symName: __ZN4absl12lts_202111025Mutex12LockSlowLoopEPNS0_15SynchWaitParamsEi, symObjAddr: 0x25B4, symBinAddr: 0x34FC0, symSize: 0x468 }
  - { offsetInCU: 0xBE96, offset: 0x18B29F, size: 0x8, addend: 0x0, symName: __ZN4absl12lts_202111025Mutex10UnlockSlowEPNS0_15SynchWaitParamsE, symObjAddr: 0x1DD4, symBinAddr: 0x54E5C, symSize: 0x7E0 }
  - { offsetInCU: 0xC946, offset: 0x18BD4F, size: 0x8, addend: 0x0, symName: __ZN4absl12lts_202111025Mutex14ReaderLockWhenERKNS0_9ConditionE, symObjAddr: 0x18CC, symBinAddr: 0x54D38, symSize: 0x54 }
  - { offsetInCU: 0xCA2D, offset: 0x18BE36, size: 0x8, addend: 0x0, symName: __ZN4absl12lts_202111025Mutex25ReaderLockWhenWithTimeoutERKNS0_9ConditionENS0_8DurationE, symObjAddr: 0x1920, symBinAddr: 0x34BDC, symSize: 0x3C }
  - { offsetInCU: 0xCAA9, offset: 0x18BEB2, size: 0x8, addend: 0x0, symName: __ZN4absl12lts_202111025Mutex26ReaderLockWhenWithDeadlineERKNS0_9ConditionENS0_4TimeE, symObjAddr: 0x195C, symBinAddr: 0x34C18, symSize: 0xC4 }
  - { offsetInCU: 0xCC3E, offset: 0x18C047, size: 0x8, addend: 0x0, symName: __ZN4absl12lts_202111025Mutex5AwaitERKNS0_9ConditionE, symObjAddr: 0x1A20, symBinAddr: 0x34CDC, symSize: 0x98 }
  - { offsetInCU: 0xCD0A, offset: 0x18C113, size: 0x8, addend: 0x0, symName: __ZNK4absl12lts_202111025Mutex16AssertReaderHeldEv, symObjAddr: 0x1ACC, symBinAddr: 0x34D88, symSize: 0x6C }
  - { offsetInCU: 0xCDD9, offset: 0x18C1E2, size: 0x8, addend: 0x0, symName: __ZN4absl12lts_202111025Mutex11AwaitCommonERKNS0_9ConditionENS0_24synchronization_internal13KernelTimeoutE, symObjAddr: 0x1B38, symBinAddr: 0x54D8C, symSize: 0xD0 }
  - { offsetInCU: 0xD05D, offset: 0x18C466, size: 0x8, addend: 0x0, symName: __ZNK4absl12lts_202111029Condition4EvalEv, symObjAddr: 0x1AB8, symBinAddr: 0x34D74, symSize: 0x14 }
  - { offsetInCU: 0xD08B, offset: 0x18C494, size: 0x8, addend: 0x0, symName: __ZN4absl12lts_202111025Mutex16AwaitWithTimeoutERKNS0_9ConditionENS0_8DurationE, symObjAddr: 0x1C08, symBinAddr: 0x34DF4, symSize: 0x3C }
  - { offsetInCU: 0xD107, offset: 0x18C510, size: 0x8, addend: 0x0, symName: __ZN4absl12lts_202111025Mutex17AwaitWithDeadlineERKNS0_9ConditionENS0_4TimeE, symObjAddr: 0x1C44, symBinAddr: 0x34E30, symSize: 0x104 }
  - { offsetInCU: 0xD3FF, offset: 0x18C808, size: 0x8, addend: 0x0, symName: _OUTLINED_FUNCTION_0, symObjAddr: 0x4384, symBinAddr: 0x368F0, symSize: 0x10 }
  - { offsetInCU: 0xD417, offset: 0x18C820, size: 0x8, addend: 0x0, symName: __ZN4absl12lts_202111025Mutex7TryLockEv, symObjAddr: 0x2A1C, symBinAddr: 0x35428, symSize: 0x110 }
  - { offsetInCU: 0xD6FE, offset: 0x18CB07, size: 0x8, addend: 0x0, symName: __ZN4absl12lts_202111025Mutex13ReaderTryLockEv, symObjAddr: 0x2C94, symBinAddr: 0x356A0, symSize: 0x148 }
  - { offsetInCU: 0xDA2C, offset: 0x18CE35, size: 0x8, addend: 0x0, symName: __ZN4absl12lts_202111025Mutex6UnlockEv, symObjAddr: 0x2DDC, symBinAddr: 0x357E8, symSize: 0xFC }
  - { offsetInCU: 0xDBF7, offset: 0x18D000, size: 0x8, addend: 0x0, symName: __ZN4absl12lts_20211102L18DebugOnlyLockLeaveEPNS0_5MutexE.cold.1, symObjAddr: 0x4244, symBinAddr: 0x5599C, symSize: 0x28 }
  - { offsetInCU: 0xDC25, offset: 0x18D02E, size: 0x8, addend: 0x0, symName: __ZN4absl12lts_202111025Mutex12ReaderUnlockEv, symObjAddr: 0x3008, symBinAddr: 0x35A14, symSize: 0x8C }
  - { offsetInCU: 0xDD60, offset: 0x18D169, size: 0x8, addend: 0x0, symName: __ZN4absl12lts_20211102L16ExactlyOneReaderEl, symObjAddr: 0x3094, symBinAddr: 0x35AA0, symSize: 0x38 }
  - { offsetInCU: 0xDD6B, offset: 0x18D174, size: 0x8, addend: 0x0, symName: __ZN4absl12lts_202111025Mutex12ReaderUnlockEv.cold.1, symObjAddr: 0x426C, symBinAddr: 0x559C4, symSize: 0x28 }
  - { offsetInCU: 0xDD83, offset: 0x18D18C, size: 0x8, addend: 0x0, symName: __ZN4absl12lts_20211102L16ExactlyOneReaderEl.cold.2, symObjAddr: 0x42BC, symBinAddr: 0x55A14, symSize: 0x28 }
  - { offsetInCU: 0xDD9B, offset: 0x18D1A4, size: 0x8, addend: 0x0, symName: __ZN4absl12lts_20211102L16ExactlyOneReaderEl.cold.1, symObjAddr: 0x4294, symBinAddr: 0x559EC, symSize: 0x28 }
  - { offsetInCU: 0xDDB3, offset: 0x18D1BC, size: 0x8, addend: 0x0, symName: __ZN4absl12lts_20211102L23CheckForMutexCorruptionElPKc.cold.1, symObjAddr: 0x42E4, symBinAddr: 0x55A3C, symSize: 0xA0 }
  - { offsetInCU: 0xDE28, offset: 0x18D231, size: 0x8, addend: 0x0, symName: __ZN4absl12lts_202111025Mutex5TransEPKNS0_6MuHowSE, symObjAddr: 0x3464, symBinAddr: 0x5563C, symSize: 0xC }
  - { offsetInCU: 0xDECA, offset: 0x18D2D3, size: 0x8, addend: 0x0, symName: __ZN4absl12lts_202111025Mutex3FerEPNS0_13base_internal14PerThreadSynchE, symObjAddr: 0x3470, symBinAddr: 0x35E70, symSize: 0x2BC }
  - { offsetInCU: 0xE353, offset: 0x18D75C, size: 0x8, addend: 0x0, symName: __ZNK4absl12lts_202111025Mutex10AssertHeldEv, symObjAddr: 0x372C, symBinAddr: 0x3612C, symSize: 0x64 }
  - { offsetInCU: 0xE436, offset: 0x18D83F, size: 0x8, addend: 0x0, symName: __ZN4absl12lts_202111027CondVar14EnableDebugLogEPKc, symObjAddr: 0x3790, symBinAddr: 0x36190, symSize: 0x2C }
  - { offsetInCU: 0xE4B3, offset: 0x18D8BC, size: 0x8, addend: 0x0, symName: __ZN4absl12lts_202111027CondVarD2Ev, symObjAddr: 0x37BC, symBinAddr: 0x361BC, symSize: 0x3C }
  - { offsetInCU: 0xE545, offset: 0x18D94E, size: 0x8, addend: 0x0, symName: __ZN4absl12lts_202111027CondVarD1Ev, symObjAddr: 0x37F8, symBinAddr: 0x361F8, symSize: 0x4 }
  - { offsetInCU: 0xE573, offset: 0x18D97C, size: 0x8, addend: 0x0, symName: __ZN4absl12lts_202111027CondVarD1Ev, symObjAddr: 0x37F8, symBinAddr: 0x361F8, symSize: 0x4 }
  - { offsetInCU: 0xE586, offset: 0x18D98F, size: 0x8, addend: 0x0, symName: __ZN4absl12lts_202111027CondVar6RemoveEPNS0_13base_internal14PerThreadSynchE, symObjAddr: 0x37FC, symBinAddr: 0x361FC, symSize: 0xAC }
  - { offsetInCU: 0xE869, offset: 0x18DC72, size: 0x8, addend: 0x0, symName: __ZN4absl12lts_202111027CondVar10WaitCommonEPNS0_5MutexENS0_24synchronization_internal13KernelTimeoutE, symObjAddr: 0x38A8, symBinAddr: 0x55648, symSize: 0x180 }
  - { offsetInCU: 0xECBE, offset: 0x18E0C7, size: 0x8, addend: 0x0, symName: _OUTLINED_FUNCTION_7, symObjAddr: 0x43D8, symBinAddr: 0x36944, symSize: 0x14 }
  - { offsetInCU: 0xECD6, offset: 0x18E0DF, size: 0x8, addend: 0x0, symName: __ZN4absl12lts_202111027CondVar15WaitWithTimeoutEPNS0_5MutexENS0_8DurationE, symObjAddr: 0x3A28, symBinAddr: 0x362A8, symSize: 0x3C }
  - { offsetInCU: 0xED52, offset: 0x18E15B, size: 0x8, addend: 0x0, symName: __ZN4absl12lts_202111027CondVar16WaitWithDeadlineEPNS0_5MutexENS0_4TimeE, symObjAddr: 0x3A64, symBinAddr: 0x557C8, symSize: 0x6C }
  - { offsetInCU: 0xEE32, offset: 0x18E23B, size: 0x8, addend: 0x0, symName: __ZN4absl12lts_202111027CondVar4WaitEPNS0_5MutexE, symObjAddr: 0x3AD0, symBinAddr: 0x55834, symSize: 0x8 }
  - { offsetInCU: 0xEE8A, offset: 0x18E293, size: 0x8, addend: 0x0, symName: __ZN4absl12lts_202111027CondVar6WakeupEPNS0_13base_internal14PerThreadSynchE, symObjAddr: 0x3AD8, symBinAddr: 0x362E4, symSize: 0x2C }
  - { offsetInCU: 0xEFF3, offset: 0x18E3FC, size: 0x8, addend: 0x0, symName: __ZN4absl12lts_202111027CondVar6SignalEv, symObjAddr: 0x3B04, symBinAddr: 0x36310, symSize: 0xD8 }
  - { offsetInCU: 0xF2CE, offset: 0x18E6D7, size: 0x8, addend: 0x0, symName: __ZN4absl12lts_202111027CondVar9SignalAllEv, symObjAddr: 0x3BDC, symBinAddr: 0x363E8, symSize: 0xD0 }
  - { offsetInCU: 0xF545, offset: 0x18E94E, size: 0x8, addend: 0x0, symName: __ZN4absl12lts_2021110219ReleasableMutexLock7ReleaseEv, symObjAddr: 0x3CAC, symBinAddr: 0x364B8, symSize: 0x6C }
  - { offsetInCU: 0xF5B0, offset: 0x18E9B9, size: 0x8, addend: 0x0, symName: __ZN4absl12lts_202111029ConditionC2Ev, symObjAddr: 0x3D18, symBinAddr: 0x36524, symSize: 0x4 }
  - { offsetInCU: 0xF5DC, offset: 0x18E9E5, size: 0x8, addend: 0x0, symName: __ZN4absl12lts_202111029ConditionC1Ev, symObjAddr: 0x3D1C, symBinAddr: 0x36528, symSize: 0x4 }
  - { offsetInCU: 0xF608, offset: 0x18EA11, size: 0x8, addend: 0x0, symName: __ZN4absl12lts_202111029ConditionC2EPFbPvES2_, symObjAddr: 0x3D20, symBinAddr: 0x3652C, symSize: 0x18 }
  - { offsetInCU: 0xF636, offset: 0x18EA3F, size: 0x8, addend: 0x0, symName: __ZN4absl12lts_202111029Condition19CallVoidPtrFunctionEPKS1_, symObjAddr: 0x3D38, symBinAddr: 0x36544, symSize: 0xC }
  - { offsetInCU: 0xF6A4, offset: 0x18EAAD, size: 0x8, addend: 0x0, symName: __ZN4absl12lts_202111029ConditionC1EPFbPvES2_, symObjAddr: 0x3D44, symBinAddr: 0x36550, symSize: 0x18 }
  - { offsetInCU: 0xF6F0, offset: 0x18EAF9, size: 0x8, addend: 0x0, symName: __ZN4absl12lts_202111029ConditionC1EPFbPvES2_, symObjAddr: 0x3D44, symBinAddr: 0x36550, symSize: 0x18 }
  - { offsetInCU: 0xF719, offset: 0x18EB22, size: 0x8, addend: 0x0, symName: __ZN4absl12lts_202111029ConditionC2EPKb, symObjAddr: 0x3D5C, symBinAddr: 0x36568, symSize: 0x20 }
  - { offsetInCU: 0xF769, offset: 0x18EB72, size: 0x8, addend: 0x0, symName: __ZN4absl12lts_202111029ConditionC1EPKb, symObjAddr: 0x3D84, symBinAddr: 0x36590, symSize: 0x20 }
  - { offsetInCU: 0xF7A6, offset: 0x18EBAF, size: 0x8, addend: 0x0, symName: __ZN4absl12lts_202111029ConditionC1EPKb, symObjAddr: 0x3D84, symBinAddr: 0x36590, symSize: 0x20 }
  - { offsetInCU: 0xF7C8, offset: 0x18EBD1, size: 0x8, addend: 0x0, symName: __ZN4absl12lts_2021110213base_internal10AtomicHookIPFvxEE13DummyFunctionEx, symObjAddr: 0x3DA4, symBinAddr: 0x365B0, symSize: 0x4 }
  - { offsetInCU: 0xF7E7, offset: 0x18EBF0, size: 0x8, addend: 0x0, symName: __ZN4absl12lts_2021110213base_internal10AtomicHookIPFvPKcPKvxEE13DummyFunctionES4_S6_x, symObjAddr: 0x3DA8, symBinAddr: 0x365B4, symSize: 0x4 }
  - { offsetInCU: 0xF81A, offset: 0x18EC23, size: 0x8, addend: 0x0, symName: __ZN4absl12lts_2021110213base_internal10AtomicHookIPFvPKcPKvEE13DummyFunctionES4_S6_, symObjAddr: 0x3DAC, symBinAddr: 0x365B8, symSize: 0x4 }
  - { offsetInCU: 0xF9A1, offset: 0x18EDAA, size: 0x8, addend: 0x0, symName: _OUTLINED_FUNCTION_1, symObjAddr: 0x4394, symBinAddr: 0x36900, symSize: 0xC }
  - { offsetInCU: 0xF9B9, offset: 0x18EDC2, size: 0x8, addend: 0x0, symName: _OUTLINED_FUNCTION_4, symObjAddr: 0x43BC, symBinAddr: 0x36928, symSize: 0x8 }
  - { offsetInCU: 0xF9D1, offset: 0x18EDDA, size: 0x8, addend: 0x0, symName: _OUTLINED_FUNCTION_5, symObjAddr: 0x43C4, symBinAddr: 0x36930, symSize: 0x8 }
  - { offsetInCU: 0xF55, offset: 0x18FD8F, size: 0x8, addend: 0x0, symName: __ZN4absl12lts_202111029Condition19CastAndCallFunctionIKNSt3__16atomicIbEEEEbPKS1_, symObjAddr: 0x218, symBinAddr: 0x36B70, symSize: 0xC }
  - { offsetInCU: 0x2F2A, offset: 0x191D64, size: 0x8, addend: 0x0, symName: __ZN4absl12lts_2021110212Notification6NotifyEv, symObjAddr: 0x0, symBinAddr: 0x36964, symSize: 0x84 }
  - { offsetInCU: 0x30A1, offset: 0x191EDB, size: 0x8, addend: 0x0, symName: __ZN4absl12lts_2021110212NotificationD2Ev, symObjAddr: 0x84, symBinAddr: 0x369E8, symSize: 0x34 }
  - { offsetInCU: 0x3138, offset: 0x191F72, size: 0x8, addend: 0x0, symName: __ZN4absl12lts_2021110212NotificationD1Ev, symObjAddr: 0xC4, symBinAddr: 0x36A1C, symSize: 0x4 }
  - { offsetInCU: 0x3166, offset: 0x191FA0, size: 0x8, addend: 0x0, symName: __ZN4absl12lts_2021110212NotificationD1Ev, symObjAddr: 0xC4, symBinAddr: 0x36A1C, symSize: 0x4 }
  - { offsetInCU: 0x3205, offset: 0x19203F, size: 0x8, addend: 0x0, symName: __ZNK4absl12lts_2021110212Notification19WaitForNotificationEv, symObjAddr: 0xC8, symBinAddr: 0x36A20, symSize: 0x5C }
  - { offsetInCU: 0x32ED, offset: 0x192127, size: 0x8, addend: 0x0, symName: __ZN4absl12lts_2021110212Notification23HasBeenNotifiedInternalEPKNSt3__16atomicIbEE, symObjAddr: 0x124, symBinAddr: 0x36A7C, symSize: 0xC }
  - { offsetInCU: 0x330D, offset: 0x192147, size: 0x8, addend: 0x0, symName: __ZN4absl12lts_2021110212Notification23HasBeenNotifiedInternalEPKNSt3__16atomicIbEE, symObjAddr: 0x124, symBinAddr: 0x36A7C, symSize: 0xC }
  - { offsetInCU: 0x332E, offset: 0x192168, size: 0x8, addend: 0x0, symName: __ZN4absl12lts_2021110212Notification23HasBeenNotifiedInternalEPKNSt3__16atomicIbEE, symObjAddr: 0x124, symBinAddr: 0x36A7C, symSize: 0xC }
  - { offsetInCU: 0x334F, offset: 0x192189, size: 0x8, addend: 0x0, symName: __ZNK4absl12lts_2021110212Notification30WaitForNotificationWithTimeoutENS0_8DurationE, symObjAddr: 0x130, symBinAddr: 0x36A88, symSize: 0x74 }
  - { offsetInCU: 0x3450, offset: 0x19228A, size: 0x8, addend: 0x0, symName: __ZNK4absl12lts_2021110212Notification31WaitForNotificationWithDeadlineENS0_4TimeE, symObjAddr: 0x1A4, symBinAddr: 0x36AFC, symSize: 0x74 }
  - { offsetInCU: 0x26, offset: 0x1923C0, size: 0x8, addend: 0x0, symName: __ZN4absl12lts_2021110210SimpleAtofENS0_11string_viewEPf, symObjAddr: 0x0, symBinAddr: 0x36B7C, symSize: 0x13C }
  - { offsetInCU: 0x62, offset: 0x1923FC, size: 0x8, addend: 0x0, symName: __ZN4absl12lts_2021110216numbers_internal8kHexCharE, symObjAddr: 0x209E, symBinAddr: 0x5BBCE, symSize: 0x0 }
  - { offsetInCU: 0x7D, offset: 0x192417, size: 0x8, addend: 0x0, symName: __ZN4absl12lts_2021110216numbers_internal9kHexTableE, symObjAddr: 0x20AF, symBinAddr: 0x5BBDF, symSize: 0x0 }
  - { offsetInCU: 0x98, offset: 0x192432, size: 0x8, addend: 0x0, symName: __ZN4absl12lts_2021110216numbers_internal16two_ASCII_digitsE, symObjAddr: 0x22B0, symBinAddr: 0x5BDE0, symSize: 0x0 }
  - { offsetInCU: 0xC9, offset: 0x192463, size: 0x8, addend: 0x0, symName: __ZN4absl12lts_2021110216numbers_internal15FastIntToBufferEjPc, symObjAddr: 0x42C, symBinAddr: 0x36FA8, symSize: 0x1CC }
  - { offsetInCU: 0x205, offset: 0x19259F, size: 0x8, addend: 0x0, symName: __ZN4absl12lts_2021110216numbers_internal15FastIntToBufferEiPc, symObjAddr: 0x5F8, symBinAddr: 0x37174, symSize: 0x18 }
  - { offsetInCU: 0x20F, offset: 0x1925A9, size: 0x8, addend: 0x0, symName: __ZN4absl12lts_2021110216numbers_internal15FastIntToBufferEiPc, symObjAddr: 0x5F8, symBinAddr: 0x37174, symSize: 0x18 }
  - { offsetInCU: 0x272, offset: 0x19260C, size: 0x8, addend: 0x0, symName: __ZN4absl12lts_2021110216numbers_internal15FastIntToBufferEyPc, symObjAddr: 0x610, symBinAddr: 0x3718C, symSize: 0x19C }
  - { offsetInCU: 0x3FF, offset: 0x192799, size: 0x8, addend: 0x0, symName: __ZN4absl12lts_2021110216numbers_internal15FastIntToBufferExPc, symObjAddr: 0x7AC, symBinAddr: 0x37328, symSize: 0x18 }
  - { offsetInCU: 0x409, offset: 0x1927A3, size: 0x8, addend: 0x0, symName: __ZN4absl12lts_2021110216numbers_internal15FastIntToBufferExPc, symObjAddr: 0x7AC, symBinAddr: 0x37328, symSize: 0x18 }
  - { offsetInCU: 0x470, offset: 0x19280A, size: 0x8, addend: 0x0, symName: __ZN4absl12lts_2021110216numbers_internal17SixDigitsToBufferEdPc, symObjAddr: 0x7C4, symBinAddr: 0x37340, symSize: 0x764 }
  - { offsetInCU: 0x6AC, offset: 0x192A46, size: 0x8, addend: 0x0, symName: __ZN4absl12lts_2021110216numbers_internal17safe_strto32_baseENS0_11string_viewEPii, symObjAddr: 0xF28, symBinAddr: 0x37AA4, symSize: 0x18C }
  - { offsetInCU: 0x82D, offset: 0x192BC7, size: 0x8, addend: 0x0, symName: __ZN4absl12lts_2021110216numbers_internal17safe_strto64_baseENS0_11string_viewEPxi, symObjAddr: 0x10B4, symBinAddr: 0x37C30, symSize: 0x18C }
  - { offsetInCU: 0x837, offset: 0x192BD1, size: 0x8, addend: 0x0, symName: __ZN4absl12lts_2021110216numbers_internal17safe_strto64_baseENS0_11string_viewEPxi, symObjAddr: 0x10B4, symBinAddr: 0x37C30, symSize: 0x18C }
  - { offsetInCU: 0x9B8, offset: 0x192D52, size: 0x8, addend: 0x0, symName: __ZN4absl12lts_2021110216numbers_internal18safe_strto128_baseENS0_11string_viewEPNS0_6int128Ei, symObjAddr: 0x1240, symBinAddr: 0x37DBC, symSize: 0x278 }
  - { offsetInCU: 0x9C2, offset: 0x192D5C, size: 0x8, addend: 0x0, symName: __ZN4absl12lts_2021110216numbers_internal18safe_strto128_baseENS0_11string_viewEPNS0_6int128Ei, symObjAddr: 0x1240, symBinAddr: 0x37DBC, symSize: 0x278 }
  - { offsetInCU: 0xE56, offset: 0x1931F0, size: 0x8, addend: 0x0, symName: __ZN4absl12lts_2021110216numbers_internal18safe_strtou32_baseENS0_11string_viewEPji, symObjAddr: 0x14B8, symBinAddr: 0x38034, symSize: 0xFC }
  - { offsetInCU: 0xE60, offset: 0x1931FA, size: 0x8, addend: 0x0, symName: __ZN4absl12lts_2021110216numbers_internal18safe_strtou32_baseENS0_11string_viewEPji, symObjAddr: 0x14B8, symBinAddr: 0x38034, symSize: 0xFC }
  - { offsetInCU: 0xF70, offset: 0x19330A, size: 0x8, addend: 0x0, symName: __ZN4absl12lts_2021110216numbers_internal18safe_strtou64_baseENS0_11string_viewEPyi, symObjAddr: 0x15B4, symBinAddr: 0x38130, symSize: 0x100 }
  - { offsetInCU: 0xF7A, offset: 0x193314, size: 0x8, addend: 0x0, symName: __ZN4absl12lts_2021110216numbers_internal18safe_strtou64_baseENS0_11string_viewEPyi, symObjAddr: 0x15B4, symBinAddr: 0x38130, symSize: 0x100 }
  - { offsetInCU: 0x108A, offset: 0x193424, size: 0x8, addend: 0x0, symName: __ZN4absl12lts_2021110216numbers_internal19safe_strtou128_baseENS0_11string_viewEPNS0_7uint128Ei, symObjAddr: 0x16B4, symBinAddr: 0x38230, symSize: 0x170 }
  - { offsetInCU: 0x1094, offset: 0x19342E, size: 0x8, addend: 0x0, symName: __ZN4absl12lts_2021110216numbers_internal19safe_strtou128_baseENS0_11string_viewEPNS0_7uint128Ei, symObjAddr: 0x16B4, symBinAddr: 0x38230, symSize: 0x170 }
  - { offsetInCU: 0x1392, offset: 0x19372C, size: 0x8, addend: 0x0, symName: __ZN4absl12lts_2021110212_GLOBAL__N_122one_ASCII_final_digitsE, symObjAddr: 0x208A, symBinAddr: 0x5BBBA, symSize: 0x0 }
  - { offsetInCU: 0x13AA, offset: 0x193744, size: 0x8, addend: 0x0, symName: __ZN4absl12lts_2021110212_GLOBAL__N_112LookupTablesIiE13kVmaxOverBaseE, symObjAddr: 0x24AC, symBinAddr: 0x5BFDC, symSize: 0x0 }
  - { offsetInCU: 0x13F3, offset: 0x19378D, size: 0x8, addend: 0x0, symName: __ZN4absl12lts_2021110212_GLOBAL__N_111kAsciiToIntE, symObjAddr: 0x23AC, symBinAddr: 0x5BEDC, symSize: 0x0 }
  - { offsetInCU: 0x140B, offset: 0x1937A5, size: 0x8, addend: 0x0, symName: __ZN4absl12lts_2021110212_GLOBAL__N_112LookupTablesIiE13kVminOverBaseE, symObjAddr: 0x2540, symBinAddr: 0x5C070, symSize: 0x0 }
  - { offsetInCU: 0x1423, offset: 0x1937BD, size: 0x8, addend: 0x0, symName: __ZN4absl12lts_2021110212_GLOBAL__N_112LookupTablesIxE13kVmaxOverBaseE, symObjAddr: 0x25D8, symBinAddr: 0x5C108, symSize: 0x0 }
  - { offsetInCU: 0x1469, offset: 0x193803, size: 0x8, addend: 0x0, symName: __ZN4absl12lts_2021110212_GLOBAL__N_112LookupTablesIxE13kVminOverBaseE, symObjAddr: 0x2700, symBinAddr: 0x5C230, symSize: 0x0 }
  - { offsetInCU: 0x1481, offset: 0x19381B, size: 0x8, addend: 0x0, symName: __ZN4absl12lts_2021110212_GLOBAL__N_112LookupTablesINS0_6int128EE13kVmaxOverBaseE, symObjAddr: 0x2830, symBinAddr: 0x5C360, symSize: 0x0 }
  - { offsetInCU: 0x14C7, offset: 0x193861, size: 0x8, addend: 0x0, symName: __ZN4absl12lts_2021110212_GLOBAL__N_112LookupTablesINS0_6int128EE13kVminOverBaseE, symObjAddr: 0x2A80, symBinAddr: 0x5C5B0, symSize: 0x0 }
  - { offsetInCU: 0x14DF, offset: 0x193879, size: 0x8, addend: 0x0, symName: __ZN4absl12lts_2021110212_GLOBAL__N_112LookupTablesIjE13kVmaxOverBaseE, symObjAddr: 0x2CD0, symBinAddr: 0x5C800, symSize: 0x0 }
  - { offsetInCU: 0x1525, offset: 0x1938BF, size: 0x8, addend: 0x0, symName: __ZN4absl12lts_2021110212_GLOBAL__N_112LookupTablesIyE13kVmaxOverBaseE, symObjAddr: 0x2D68, symBinAddr: 0x5C898, symSize: 0x0 }
  - { offsetInCU: 0x156B, offset: 0x193905, size: 0x8, addend: 0x0, symName: __ZN4absl12lts_2021110212_GLOBAL__N_112LookupTablesINS0_7uint128EE13kVmaxOverBaseE, symObjAddr: 0x2E90, symBinAddr: 0x5C9C0, symSize: 0x0 }
  - { offsetInCU: 0x171E, offset: 0x193AB8, size: 0x8, addend: 0x0, symName: __ZN4absl12lts_2021110212_GLOBAL__N_124safe_parse_sign_and_baseEPNS0_11string_viewEPiPb, symObjAddr: 0x195C, symBinAddr: 0x38494, symSize: 0x190 }
  - { offsetInCU: 0x186F, offset: 0x193C09, size: 0x8, addend: 0x0, symName: __ZN4absl12lts_2021110216numbers_internal15FastIntToBufferEjPc.cold.1, symObjAddr: 0x1AEC, symBinAddr: 0x55ADC, symSize: 0x24 }
  - { offsetInCU: 0x1EB6, offset: 0x194250, size: 0x8, addend: 0x0, symName: __ZN4absl12lts_2021110210SimpleAtofENS0_11string_viewEPf, symObjAddr: 0x0, symBinAddr: 0x36B7C, symSize: 0x13C }
  - { offsetInCU: 0x2070, offset: 0x19440A, size: 0x8, addend: 0x0, symName: __ZN4absl12lts_2021110210SimpleAtodENS0_11string_viewEPd, symObjAddr: 0x13C, symBinAddr: 0x36CB8, symSize: 0x13C }
  - { offsetInCU: 0x222A, offset: 0x1945C4, size: 0x8, addend: 0x0, symName: __ZN4absl12lts_2021110210SimpleAtobENS0_11string_viewEPb, symObjAddr: 0x278, symBinAddr: 0x36DF4, symSize: 0x1B4 }
  - { offsetInCU: 0x24D7, offset: 0x194871, size: 0x8, addend: 0x0, symName: __ZN4absl12lts_20211102L7PowFiveEyi, symObjAddr: 0x1868, symBinAddr: 0x383A0, symSize: 0x8C }
  - { offsetInCU: 0x2897, offset: 0x194C31, size: 0x8, addend: 0x0, symName: __ZN4absl12lts_20211102L5Mul32ENSt3__14pairIyyEEj, symObjAddr: 0x18F4, symBinAddr: 0x3842C, symSize: 0x68 }
  - { offsetInCU: 0x56CA, offset: 0x197A64, size: 0x8, addend: 0x0, symName: __ZN4absl12lts_20211102L7PowFiveEyi, symObjAddr: 0x1868, symBinAddr: 0x383A0, symSize: 0x8C }
  - { offsetInCU: 0x56DF, offset: 0x197A79, size: 0x8, addend: 0x0, symName: __ZN4absl12lts_2021110216numbers_internal15FastIntToBufferEjPc.cold.4, symObjAddr: 0x1B58, symBinAddr: 0x55B48, symSize: 0x24 }
  - { offsetInCU: 0x570C, offset: 0x197AA6, size: 0x8, addend: 0x0, symName: __ZN4absl12lts_2021110216numbers_internal15FastIntToBufferEjPc.cold.3, symObjAddr: 0x1B34, symBinAddr: 0x55B24, symSize: 0x24 }
  - { offsetInCU: 0x5739, offset: 0x197AD3, size: 0x8, addend: 0x0, symName: __ZN4absl12lts_2021110216numbers_internal15FastIntToBufferEjPc.cold.1, symObjAddr: 0x1AEC, symBinAddr: 0x55ADC, symSize: 0x24 }
  - { offsetInCU: 0x5766, offset: 0x197B00, size: 0x8, addend: 0x0, symName: __ZN4absl12lts_2021110216numbers_internal15FastIntToBufferEjPc.cold.2, symObjAddr: 0x1B10, symBinAddr: 0x55B00, symSize: 0x24 }
  - { offsetInCU: 0x5793, offset: 0x197B2D, size: 0x8, addend: 0x0, symName: __ZN4absl12lts_2021110216numbers_internal15FastIntToBufferEyPc.cold.1, symObjAddr: 0x1B7C, symBinAddr: 0x55B6C, symSize: 0x24 }
  - { offsetInCU: 0x57C0, offset: 0x197B5A, size: 0x8, addend: 0x0, symName: __ZN4absl12lts_2021110216numbers_internal15FastIntToBufferEyPc.cold.2, symObjAddr: 0x1BA0, symBinAddr: 0x55B90, symSize: 0x24 }
  - { offsetInCU: 0x57EE, offset: 0x197B88, size: 0x8, addend: 0x0, symName: __ZN4absl12lts_2021110216numbers_internal15FastIntToBufferEyPc.cold.3, symObjAddr: 0x1BC4, symBinAddr: 0x55BB4, symSize: 0x24 }
  - { offsetInCU: 0x581C, offset: 0x197BB6, size: 0x8, addend: 0x0, symName: __ZN4absl12lts_2021110216numbers_internal15FastIntToBufferEyPc.cold.4, symObjAddr: 0x1BE8, symBinAddr: 0x55BD8, symSize: 0x24 }
  - { offsetInCU: 0x584A, offset: 0x197BE4, size: 0x8, addend: 0x0, symName: __ZN4absl12lts_2021110216numbers_internal15FastIntToBufferEyPc.cold.5, symObjAddr: 0x1C0C, symBinAddr: 0x55BFC, symSize: 0x24 }
  - { offsetInCU: 0x58BF, offset: 0x197C59, size: 0x8, addend: 0x0, symName: __ZN4absl12lts_2021110216numbers_internal17SixDigitsToBufferEdPc.cold.1, symObjAddr: 0x1C30, symBinAddr: 0x55C20, symSize: 0x24 }
  - { offsetInCU: 0x5903, offset: 0x197C9D, size: 0x8, addend: 0x0, symName: __ZN4absl12lts_2021110216numbers_internal17SixDigitsToBufferEdPc.cold.2, symObjAddr: 0x1C54, symBinAddr: 0x55C44, symSize: 0x24 }
  - { offsetInCU: 0x5947, offset: 0x197CE1, size: 0x8, addend: 0x0, symName: __ZN4absl12lts_2021110216numbers_internal17SixDigitsToBufferEdPc.cold.3, symObjAddr: 0x1C78, symBinAddr: 0x55C68, symSize: 0x24 }
  - { offsetInCU: 0x598B, offset: 0x197D25, size: 0x8, addend: 0x0, symName: __ZN4absl12lts_2021110216numbers_internal17SixDigitsToBufferEdPc.cold.4, symObjAddr: 0x1C9C, symBinAddr: 0x55C8C, symSize: 0x28 }
  - { offsetInCU: 0x59A3, offset: 0x197D3D, size: 0x8, addend: 0x0, symName: __ZN4absl12lts_2021110216numbers_internal17SixDigitsToBufferEdPc.cold.5, symObjAddr: 0x1CC4, symBinAddr: 0x55CB4, symSize: 0x24 }
  - { offsetInCU: 0x59D1, offset: 0x197D6B, size: 0x8, addend: 0x0, symName: __ZN4absl12lts_2021110216numbers_internal17safe_strto32_baseENS0_11string_viewEPii.cold.1, symObjAddr: 0x1CE8, symBinAddr: 0x55CD8, symSize: 0x24 }
  - { offsetInCU: 0x5A15, offset: 0x197DAF, size: 0x8, addend: 0x0, symName: __ZN4absl12lts_2021110216numbers_internal17safe_strto32_baseENS0_11string_viewEPii.cold.3, symObjAddr: 0x1D30, symBinAddr: 0x55D20, symSize: 0x24 }
  - { offsetInCU: 0x5A59, offset: 0x197DF3, size: 0x8, addend: 0x0, symName: __ZN4absl12lts_2021110216numbers_internal17safe_strto32_baseENS0_11string_viewEPii.cold.2, symObjAddr: 0x1D0C, symBinAddr: 0x55CFC, symSize: 0x24 }
  - { offsetInCU: 0x5AA2, offset: 0x197E3C, size: 0x8, addend: 0x0, symName: __ZN4absl12lts_2021110216numbers_internal17safe_strto64_baseENS0_11string_viewEPxi.cold.1, symObjAddr: 0x1D54, symBinAddr: 0x55D44, symSize: 0x24 }
  - { offsetInCU: 0x5AE6, offset: 0x197E80, size: 0x8, addend: 0x0, symName: __ZN4absl12lts_2021110216numbers_internal17safe_strto64_baseENS0_11string_viewEPxi.cold.3, symObjAddr: 0x1D9C, symBinAddr: 0x55D8C, symSize: 0x24 }
  - { offsetInCU: 0x5B2A, offset: 0x197EC4, size: 0x8, addend: 0x0, symName: __ZN4absl12lts_2021110216numbers_internal17safe_strto64_baseENS0_11string_viewEPxi.cold.2, symObjAddr: 0x1D78, symBinAddr: 0x55D68, symSize: 0x24 }
  - { offsetInCU: 0x5C51, offset: 0x197FEB, size: 0x8, addend: 0x0, symName: __ZN4absl12lts_2021110216numbers_internal18safe_strto128_baseENS0_11string_viewEPNS0_6int128Ei.cold.1, symObjAddr: 0x1DC0, symBinAddr: 0x55DB0, symSize: 0x24 }
  - { offsetInCU: 0x5C95, offset: 0x19802F, size: 0x8, addend: 0x0, symName: __ZN4absl12lts_2021110216numbers_internal18safe_strto128_baseENS0_11string_viewEPNS0_6int128Ei.cold.3, symObjAddr: 0x1E08, symBinAddr: 0x55DF8, symSize: 0x24 }
  - { offsetInCU: 0x5CD9, offset: 0x198073, size: 0x8, addend: 0x0, symName: __ZN4absl12lts_2021110216numbers_internal18safe_strto128_baseENS0_11string_viewEPNS0_6int128Ei.cold.2, symObjAddr: 0x1DE4, symBinAddr: 0x55DD4, symSize: 0x24 }
  - { offsetInCU: 0x5D22, offset: 0x1980BC, size: 0x8, addend: 0x0, symName: __ZN4absl12lts_2021110216numbers_internal18safe_strtou32_baseENS0_11string_viewEPji.cold.1, symObjAddr: 0x1E2C, symBinAddr: 0x55E1C, symSize: 0x24 }
  - { offsetInCU: 0x5D66, offset: 0x198100, size: 0x8, addend: 0x0, symName: __ZN4absl12lts_2021110216numbers_internal18safe_strtou32_baseENS0_11string_viewEPji.cold.2, symObjAddr: 0x1E50, symBinAddr: 0x55E40, symSize: 0x24 }
  - { offsetInCU: 0x5DAF, offset: 0x198149, size: 0x8, addend: 0x0, symName: __ZN4absl12lts_2021110216numbers_internal18safe_strtou64_baseENS0_11string_viewEPyi.cold.1, symObjAddr: 0x1E74, symBinAddr: 0x55E64, symSize: 0x24 }
  - { offsetInCU: 0x5DF3, offset: 0x19818D, size: 0x8, addend: 0x0, symName: __ZN4absl12lts_2021110216numbers_internal18safe_strtou64_baseENS0_11string_viewEPyi.cold.2, symObjAddr: 0x1E98, symBinAddr: 0x55E88, symSize: 0x24 }
  - { offsetInCU: 0x5EF8, offset: 0x198292, size: 0x8, addend: 0x0, symName: __ZN4absl12lts_2021110216numbers_internal19safe_strtou128_baseENS0_11string_viewEPNS0_7uint128Ei.cold.1, symObjAddr: 0x1EBC, symBinAddr: 0x55EAC, symSize: 0x24 }
  - { offsetInCU: 0x5F3C, offset: 0x1982D6, size: 0x8, addend: 0x0, symName: __ZN4absl12lts_2021110216numbers_internal19safe_strtou128_baseENS0_11string_viewEPNS0_7uint128Ei.cold.2, symObjAddr: 0x1EE0, symBinAddr: 0x55ED0, symSize: 0x24 }
  - { offsetInCU: 0x60BC, offset: 0x198456, size: 0x8, addend: 0x0, symName: __ZN4absl12lts_2021110212_GLOBAL__N_124safe_parse_sign_and_baseEPNS0_11string_viewEPiPb.cold.1, symObjAddr: 0x1F2C, symBinAddr: 0x55EF4, symSize: 0x28 }
  - { offsetInCU: 0x612A, offset: 0x1984C4, size: 0x8, addend: 0x0, symName: _OUTLINED_FUNCTION_0, symObjAddr: 0x1F54, symBinAddr: 0x38624, symSize: 0x8 }
  - { offsetInCU: 0x6142, offset: 0x1984DC, size: 0x8, addend: 0x0, symName: _OUTLINED_FUNCTION_1, symObjAddr: 0x1F5C, symBinAddr: 0x3862C, symSize: 0x8 }
  - { offsetInCU: 0x615A, offset: 0x1984F4, size: 0x8, addend: 0x0, symName: _OUTLINED_FUNCTION_2, symObjAddr: 0x1F64, symBinAddr: 0x38634, symSize: 0x8 }
  - { offsetInCU: 0x6172, offset: 0x19850C, size: 0x8, addend: 0x0, symName: _OUTLINED_FUNCTION_3, symObjAddr: 0x1F6C, symBinAddr: 0x3863C, symSize: 0x8 }
  - { offsetInCU: 0x26, offset: 0x198582, size: 0x8, addend: 0x0, symName: __ZN4absl12lts_2021110216strings_internal13OStringStream8overflowEi, symObjAddr: 0x0, symBinAddr: 0x38644, symSize: 0x30 }
  - { offsetInCU: 0x4AAC, offset: 0x19D008, size: 0x8, addend: 0x0, symName: __ZN4absl12lts_2021110216strings_internal13OStringStream8overflowEi, symObjAddr: 0x0, symBinAddr: 0x38644, symSize: 0x30 }
  - { offsetInCU: 0x4AE7, offset: 0x19D043, size: 0x8, addend: 0x0, symName: __ZN4absl12lts_2021110216strings_internal13OStringStream6xsputnEPKcl, symObjAddr: 0x30, symBinAddr: 0x38674, symSize: 0x30 }
  - { offsetInCU: 0x4AF1, offset: 0x19D04D, size: 0x8, addend: 0x0, symName: __ZN4absl12lts_2021110216strings_internal13OStringStream8overflowEi.cold.1, symObjAddr: 0x1E0, symBinAddr: 0x55F1C, symSize: 0x28 }
  - { offsetInCU: 0x4B09, offset: 0x19D065, size: 0x8, addend: 0x0, symName: __ZN4absl12lts_2021110216strings_internal13OStringStream6xsputnEPKcl, symObjAddr: 0x30, symBinAddr: 0x38674, symSize: 0x30 }
  - { offsetInCU: 0x4B53, offset: 0x19D0AF, size: 0x8, addend: 0x0, symName: __ZN4absl12lts_2021110216strings_internal13OStringStreamD1Ev, symObjAddr: 0x60, symBinAddr: 0x386A4, symSize: 0x40 }
  - { offsetInCU: 0x4B5D, offset: 0x19D0B9, size: 0x8, addend: 0x0, symName: __ZN4absl12lts_2021110216strings_internal13OStringStream6xsputnEPKcl.cold.1, symObjAddr: 0x208, symBinAddr: 0x55F44, symSize: 0x28 }
  - { offsetInCU: 0x4BA0, offset: 0x19D0FC, size: 0x8, addend: 0x0, symName: __ZN4absl12lts_2021110216strings_internal13OStringStreamD1Ev, symObjAddr: 0x60, symBinAddr: 0x386A4, symSize: 0x40 }
  - { offsetInCU: 0x4BFA, offset: 0x19D156, size: 0x8, addend: 0x0, symName: __ZN4absl12lts_2021110216strings_internal13OStringStreamD0Ev, symObjAddr: 0xA0, symBinAddr: 0x386E4, symSize: 0x40 }
  - { offsetInCU: 0x4C54, offset: 0x19D1B0, size: 0x8, addend: 0x0, symName: __ZThn64_N4absl12lts_2021110216strings_internal13OStringStreamD1Ev, symObjAddr: 0xE0, symBinAddr: 0x38724, symSize: 0x38 }
  - { offsetInCU: 0x4CC1, offset: 0x19D21D, size: 0x8, addend: 0x0, symName: __ZThn64_N4absl12lts_2021110216strings_internal13OStringStreamD0Ev, symObjAddr: 0x118, symBinAddr: 0x3875C, symSize: 0x40 }
  - { offsetInCU: 0x4D2E, offset: 0x19D28A, size: 0x8, addend: 0x0, symName: __ZTv0_n24_N4absl12lts_2021110216strings_internal13OStringStreamD1Ev, symObjAddr: 0x158, symBinAddr: 0x3879C, symSize: 0x40 }
  - { offsetInCU: 0x4D7F, offset: 0x19D2DB, size: 0x8, addend: 0x0, symName: __ZTv0_n24_N4absl12lts_2021110216strings_internal13OStringStreamD0Ev, symObjAddr: 0x198, symBinAddr: 0x387DC, symSize: 0x48 }
  - { offsetInCU: 0x26, offset: 0x19D36E, size: 0x8, addend: 0x0, symName: __ZN4absl12lts_2021110219str_format_internal13BufferRawSink5WriteENS0_11string_viewE, symObjAddr: 0x0, symBinAddr: 0x38824, symSize: 0x58 }
  - { offsetInCU: 0x2B97, offset: 0x19FEDF, size: 0x8, addend: 0x0, symName: __ZN4absl12lts_2021110219str_format_internal13BufferRawSink5WriteENS0_11string_viewE, symObjAddr: 0x0, symBinAddr: 0x38824, symSize: 0x58 }
  - { offsetInCU: 0x2CEF, offset: 0x1A0037, size: 0x8, addend: 0x0, symName: __ZN4absl12lts_2021110219str_format_internal11FILERawSink5WriteENS0_11string_viewE, symObjAddr: 0x58, symBinAddr: 0x3887C, symSize: 0x110 }
  - { offsetInCU: 0x2DF8, offset: 0x1A0140, size: 0x8, addend: 0x0, symName: __ZN4absl12lts_2021110219str_format_internal12_GLOBAL__N_115ClearErrnoGuardD1Ev, symObjAddr: 0x168, symBinAddr: 0x3898C, symSize: 0x3C }
  - { offsetInCU: 0x26, offset: 0x1A01CB, size: 0x8, addend: 0x0, symName: __ZN4absl12lts_2021110219str_format_internal17LengthModToStringENS1_9LengthModE, symObjAddr: 0x0, symBinAddr: 0x389C8, symSize: 0x30 }
  - { offsetInCU: 0x4E, offset: 0x1A01F3, size: 0x8, addend: 0x0, symName: __ZN4absl12lts_2021110219str_format_internal5kTagsE, symObjAddr: 0x1C44, symBinAddr: 0x5CC6F, symSize: 0x0 }
  - { offsetInCU: 0x2EE, offset: 0x1A0493, size: 0x8, addend: 0x0, symName: __ZN4absl12lts_2021110219str_format_internal17LengthModToStringENS1_9LengthModE, symObjAddr: 0x0, symBinAddr: 0x389C8, symSize: 0x30 }
  - { offsetInCU: 0x41B, offset: 0x1A05C0, size: 0x8, addend: 0x0, symName: __ZN4absl12lts_2021110219str_format_internal12_GLOBAL__N_117ConsumeConversionILb1EEEPKcS5_S5_PNS1_17UnboundConversionEPi, symObjAddr: 0x420, symBinAddr: 0x38DE8, symSize: 0x58C }
  - { offsetInCU: 0x9A8, offset: 0x1A0B4D, size: 0x8, addend: 0x0, symName: __ZN4absl12lts_2021110219str_format_internal16ParsedFormatBaseC2ENS0_11string_viewEbSt16initializer_listINS0_23FormatConversionCharSetEE, symObjAddr: 0x9AC, symBinAddr: 0x39374, symSize: 0xD4 }
  - { offsetInCU: 0x9BC, offset: 0x1A0B61, size: 0x8, addend: 0x0, symName: __ZN4absl12lts_2021110219str_format_internal12_GLOBAL__N_120CheckFastPathSettingERKNS1_17UnboundConversionE, symObjAddr: 0x1484, symBinAddr: 0x39D00, symSize: 0x70 }
  - { offsetInCU: 0xA57, offset: 0x1A0BFC, size: 0x8, addend: 0x0, symName: __ZN4absl12lts_2021110219str_format_internal24ConsumeUnboundConversionEPKcS3_PNS1_17UnboundConversionEPi, symObjAddr: 0x30, symBinAddr: 0x389F8, symSize: 0x3F0 }
  - { offsetInCU: 0xEBA, offset: 0x1A105F, size: 0x8, addend: 0x0, symName: __ZN4absl12lts_2021110219str_format_internal12_GLOBAL__N_117ConsumeConversionILb1EEEPKcS5_S5_PNS1_17UnboundConversionEPi, symObjAddr: 0x420, symBinAddr: 0x38DE8, symSize: 0x58C }
  - { offsetInCU: 0xEC4, offset: 0x1A1069, size: 0x8, addend: 0x0, symName: __ZN4absl12lts_2021110219str_format_internal17ParseFormatStringINS1_16ParsedFormatBase20ParsedFormatConsumerEEEbNS0_11string_viewET_, symObjAddr: 0xA80, symBinAddr: 0x39448, symSize: 0x194 }
  - { offsetInCU: 0x12AF, offset: 0x1A1454, size: 0x8, addend: 0x0, symName: __ZNK4absl12lts_2021110219str_format_internal16ParsedFormatBase18MatchesConversionsEbSt16initializer_listINS0_23FormatConversionCharSetEE, symObjAddr: 0xC14, symBinAddr: 0x395DC, symSize: 0x184 }
  - { offsetInCU: 0x1326, offset: 0x1A14CB, size: 0x8, addend: 0x0, symName: __ZN4absl12lts_2021110219str_format_internal29FormatConversionCharToConvIntEc, symObjAddr: 0xD9C, symBinAddr: 0x39764, symSize: 0xE4 }
  - { offsetInCU: 0x812C, offset: 0x1A82D1, size: 0x8, addend: 0x0, symName: __ZNSt3__119__allocate_at_leastB7v160006INS_9allocatorIN4absl12lts_2021110219str_format_internal16ParsedFormatBase14ConversionItemEEEEENS_19__allocation_resultINS_16allocator_traitsIT_E7pointerEEERSA_m, symObjAddr: 0x17B8, symBinAddr: 0x3A034, symSize: 0x34 }
  - { offsetInCU: 0x81CA, offset: 0x1A836F, size: 0x8, addend: 0x0, symName: __ZNSt3__112__hash_tableIiNS_4hashIiEENS_8equal_toIiEENS_9allocatorIiEEED2Ev, symObjAddr: 0x17EC, symBinAddr: 0x3A068, symSize: 0x48 }
  - { offsetInCU: 0xABFD, offset: 0x1AADA2, size: 0x8, addend: 0x0, symName: __ZNK4absl12lts_2021110219str_format_internal7ConvTag8as_flagsEv, symObjAddr: 0x140C, symBinAddr: 0x39C88, symSize: 0x44 }
  - { offsetInCU: 0xAC84, offset: 0x1AAE29, size: 0x8, addend: 0x0, symName: __ZNK4absl12lts_2021110219str_format_internal7ConvTag9as_lengthEv, symObjAddr: 0x1450, symBinAddr: 0x39CCC, symSize: 0x34 }
  - { offsetInCU: 0xAC8F, offset: 0x1AAE34, size: 0x8, addend: 0x0, symName: __ZN4absl12lts_2021110219str_format_internal24ConsumeUnboundConversionEPKcS3_PNS1_17UnboundConversionEPi.cold.7, symObjAddr: 0x1914, symBinAddr: 0x5604C, symSize: 0x28 }
  - { offsetInCU: 0xACBD, offset: 0x1AAE62, size: 0x8, addend: 0x0, symName: __ZNK4absl12lts_2021110219str_format_internal7ConvTag9as_lengthEv, symObjAddr: 0x1450, symBinAddr: 0x39CCC, symSize: 0x34 }
  - { offsetInCU: 0xAD23, offset: 0x1AAEC8, size: 0x8, addend: 0x0, symName: __ZN4absl12lts_2021110219str_format_internal12_GLOBAL__N_120CheckFastPathSettingERKNS1_17UnboundConversionE, symObjAddr: 0x1484, symBinAddr: 0x39D00, symSize: 0x70 }
  - { offsetInCU: 0xAD2E, offset: 0x1AAED3, size: 0x8, addend: 0x0, symName: __ZN4absl12lts_2021110219str_format_internal24ConsumeUnboundConversionEPKcS3_PNS1_17UnboundConversionEPi.cold.2, symObjAddr: 0x185C, symBinAddr: 0x55F94, symSize: 0x28 }
  - { offsetInCU: 0xAD5C, offset: 0x1AAF01, size: 0x8, addend: 0x0, symName: __ZN4absl12lts_2021110219str_format_internal24ConsumeUnboundConversionEPKcS3_PNS1_17UnboundConversionEPi.cold.1, symObjAddr: 0x1834, symBinAddr: 0x55F6C, symSize: 0x28 }
  - { offsetInCU: 0xAD9F, offset: 0x1AAF44, size: 0x8, addend: 0x0, symName: __ZN4absl12lts_2021110219str_format_internal24ConsumeUnboundConversionEPKcS3_PNS1_17UnboundConversionEPi.cold.4, symObjAddr: 0x18A8, symBinAddr: 0x55FE0, symSize: 0x24 }
  - { offsetInCU: 0xADE2, offset: 0x1AAF87, size: 0x8, addend: 0x0, symName: __ZN4absl12lts_2021110219str_format_internal24ConsumeUnboundConversionEPKcS3_PNS1_17UnboundConversionEPi.cold.5, symObjAddr: 0x18CC, symBinAddr: 0x56004, symSize: 0x24 }
  - { offsetInCU: 0xAE25, offset: 0x1AAFCA, size: 0x8, addend: 0x0, symName: __ZN4absl12lts_2021110219str_format_internal24ConsumeUnboundConversionEPKcS3_PNS1_17UnboundConversionEPi.cold.6, symObjAddr: 0x18F0, symBinAddr: 0x56028, symSize: 0x24 }
  - { offsetInCU: 0xAE68, offset: 0x1AB00D, size: 0x8, addend: 0x0, symName: __ZN4absl12lts_2021110219str_format_internal24ConsumeUnboundConversionEPKcS3_PNS1_17UnboundConversionEPi.cold.3, symObjAddr: 0x1884, symBinAddr: 0x55FBC, symSize: 0x24 }
  - { offsetInCU: 0xAEEA, offset: 0x1AB08F, size: 0x8, addend: 0x0, symName: __ZN4absl12lts_2021110219str_format_internal12_GLOBAL__N_117ConsumeConversionILb1EEEPKcS5_S5_PNS1_17UnboundConversionEPi.cold.1, symObjAddr: 0x193C, symBinAddr: 0x56074, symSize: 0x28 }
  - { offsetInCU: 0xAF02, offset: 0x1AB0A7, size: 0x8, addend: 0x0, symName: __ZN4absl12lts_2021110219str_format_internal12_GLOBAL__N_117ConsumeConversionILb1EEEPKcS5_S5_PNS1_17UnboundConversionEPi.cold.8, symObjAddr: 0x1A44, symBinAddr: 0x5617C, symSize: 0x28 }
  - { offsetInCU: 0xAF1A, offset: 0x1AB0BF, size: 0x8, addend: 0x0, symName: __ZN4absl12lts_2021110219str_format_internal12_GLOBAL__N_117ConsumeConversionILb1EEEPKcS5_S5_PNS1_17UnboundConversionEPi.cold.3, symObjAddr: 0x198C, symBinAddr: 0x560C4, symSize: 0x28 }
  - { offsetInCU: 0xAF32, offset: 0x1AB0D7, size: 0x8, addend: 0x0, symName: __ZN4absl12lts_2021110219str_format_internal12_GLOBAL__N_117ConsumeConversionILb1EEEPKcS5_S5_PNS1_17UnboundConversionEPi.cold.2, symObjAddr: 0x1964, symBinAddr: 0x5609C, symSize: 0x28 }
  - { offsetInCU: 0xAF5F, offset: 0x1AB104, size: 0x8, addend: 0x0, symName: __ZN4absl12lts_2021110219str_format_internal12_GLOBAL__N_117ConsumeConversionILb1EEEPKcS5_S5_PNS1_17UnboundConversionEPi.cold.5, symObjAddr: 0x19D8, symBinAddr: 0x56110, symSize: 0x24 }
  - { offsetInCU: 0xAF8C, offset: 0x1AB131, size: 0x8, addend: 0x0, symName: __ZN4absl12lts_2021110219str_format_internal12_GLOBAL__N_117ConsumeConversionILb1EEEPKcS5_S5_PNS1_17UnboundConversionEPi.cold.6, symObjAddr: 0x19FC, symBinAddr: 0x56134, symSize: 0x24 }
  - { offsetInCU: 0xAFB9, offset: 0x1AB15E, size: 0x8, addend: 0x0, symName: __ZN4absl12lts_2021110219str_format_internal12_GLOBAL__N_117ConsumeConversionILb1EEEPKcS5_S5_PNS1_17UnboundConversionEPi.cold.7, symObjAddr: 0x1A20, symBinAddr: 0x56158, symSize: 0x24 }
  - { offsetInCU: 0xAFE6, offset: 0x1AB18B, size: 0x8, addend: 0x0, symName: __ZN4absl12lts_2021110219str_format_internal12_GLOBAL__N_117ConsumeConversionILb1EEEPKcS5_S5_PNS1_17UnboundConversionEPi.cold.4, symObjAddr: 0x19B4, symBinAddr: 0x560EC, symSize: 0x24 }
  - { offsetInCU: 0xB28F, offset: 0x1AB434, size: 0x8, addend: 0x0, symName: __ZN4absl12lts_2021110219str_format_internal16ParsedFormatBaseC2ENS0_11string_viewEbSt16initializer_listINS0_23FormatConversionCharSetEE, symObjAddr: 0x9AC, symBinAddr: 0x39374, symSize: 0xD4 }
  - { offsetInCU: 0xB564, offset: 0x1AB709, size: 0x8, addend: 0x0, symName: __ZNK4absl12lts_2021110219str_format_internal16ParsedFormatBase18MatchesConversionsEbSt16initializer_listINS0_23FormatConversionCharSetEE, symObjAddr: 0xC14, symBinAddr: 0x395DC, symSize: 0x184 }
  - { offsetInCU: 0xBB95, offset: 0x1ABD3A, size: 0x8, addend: 0x0, symName: __ZN4absl12lts_2021110219str_format_internal16ParsedFormatBaseC2ENS0_11string_viewEbSt16initializer_listINS0_23FormatConversionCharSetEE.cold.1, symObjAddr: 0x1A6C, symBinAddr: 0x561A4, symSize: 0x18 }
  - { offsetInCU: 0xBD76, offset: 0x1ABF1B, size: 0x8, addend: 0x0, symName: __ZN4absl12lts_2021110219str_format_internal16ParsedFormatBase20ParsedFormatConsumer6AppendENS0_11string_viewE, symObjAddr: 0x14F4, symBinAddr: 0x39D70, symSize: 0x15C }
  - { offsetInCU: 0xC210, offset: 0x1AC3B5, size: 0x8, addend: 0x0, symName: __ZN4absl12lts_2021110219str_format_internal16ParsedFormatBase20ParsedFormatConsumer10ConvertOneERKNS1_17UnboundConversionENS0_11string_viewE, symObjAddr: 0x1650, symBinAddr: 0x39ECC, symSize: 0x154 }
  - { offsetInCU: 0xC222, offset: 0x1AC3C7, size: 0x8, addend: 0x0, symName: __ZN4absl12lts_2021110219str_format_internal16ParsedFormatBase20ParsedFormatConsumer10ConvertOneERKNS1_17UnboundConversionENS0_11string_viewE, symObjAddr: 0x1650, symBinAddr: 0x39ECC, symSize: 0x154 }
  - { offsetInCU: 0xC6B3, offset: 0x1AC858, size: 0x8, addend: 0x0, symName: __ZNKSt3__16vectorIN4absl12lts_2021110219str_format_internal16ParsedFormatBase14ConversionItemENS_9allocatorIS5_EEE20__throw_length_errorB7v160006Ev, symObjAddr: 0x17A4, symBinAddr: 0x3A020, symSize: 0x14 }
  - { offsetInCU: 0xC6C5, offset: 0x1AC86A, size: 0x8, addend: 0x0, symName: __ZN4absl12lts_2021110219str_format_internal17ParseFormatStringINS1_16ParsedFormatBase20ParsedFormatConsumerEEEbNS0_11string_viewET_.cold.3, symObjAddr: 0x1ACC, symBinAddr: 0x56204, symSize: 0x24 }
  - { offsetInCU: 0xC732, offset: 0x1AC8D7, size: 0x8, addend: 0x0, symName: __ZN4absl12lts_2021110219str_format_internal17ParseFormatStringINS1_16ParsedFormatBase20ParsedFormatConsumerEEEbNS0_11string_viewET_.cold.2, symObjAddr: 0x1AA8, symBinAddr: 0x561E0, symSize: 0x24 }
  - { offsetInCU: 0xC79F, offset: 0x1AC944, size: 0x8, addend: 0x0, symName: __ZN4absl12lts_2021110219str_format_internal17ParseFormatStringINS1_16ParsedFormatBase20ParsedFormatConsumerEEEbNS0_11string_viewET_.cold.1, symObjAddr: 0x1A84, symBinAddr: 0x561BC, symSize: 0x24 }
  - { offsetInCU: 0xCBDD, offset: 0x1ACD82, size: 0x8, addend: 0x0, symName: __ZNSt3__112__hash_tableIiNS_4hashIiEENS_8equal_toIiEENS_9allocatorIiEEE25__emplace_unique_key_argsIiJRKiEEENS_4pairINS_15__hash_iteratorIPNS_11__hash_nodeIiPvEEEEbEERKT_DpOT0_, symObjAddr: 0xE80, symBinAddr: 0x39848, symSize: 0x20C }
  - { offsetInCU: 0xD12F, offset: 0x1AD2D4, size: 0x8, addend: 0x0, symName: __ZNSt3__112__hash_tableIiNS_4hashIiEENS_8equal_toIiEENS_9allocatorIiEEED2Ev, symObjAddr: 0x17EC, symBinAddr: 0x3A068, symSize: 0x48 }
  - { offsetInCU: 0xD3B1, offset: 0x1AD556, size: 0x8, addend: 0x0, symName: __ZN4absl12lts_2021110219str_format_internal16ParsedFormatBaseC1ENS0_11string_viewEbSt16initializer_listINS0_23FormatConversionCharSetEE, symObjAddr: 0xD98, symBinAddr: 0x39760, symSize: 0x4 }
  - { offsetInCU: 0xD40B, offset: 0x1AD5B0, size: 0x8, addend: 0x0, symName: __ZN4absl12lts_2021110219str_format_internal16ParsedFormatBaseC1ENS0_11string_viewEbSt16initializer_listINS0_23FormatConversionCharSetEE, symObjAddr: 0xD98, symBinAddr: 0x39760, symSize: 0x4 }
  - { offsetInCU: 0xD712, offset: 0x1AD8B7, size: 0x8, addend: 0x0, symName: __ZNSt3__112__hash_tableIiNS_4hashIiEENS_8equal_toIiEENS_9allocatorIiEEE8__rehashILb1EEEvm, symObjAddr: 0x10B4, symBinAddr: 0x39A54, symSize: 0xDC }
  - { offsetInCU: 0xD7F7, offset: 0x1AD99C, size: 0x8, addend: 0x0, symName: __ZNSt3__112__hash_tableIiNS_4hashIiEENS_8equal_toIiEENS_9allocatorIiEEE11__do_rehashILb1EEEvm, symObjAddr: 0x1190, symBinAddr: 0x39B30, symSize: 0x158 }
  - { offsetInCU: 0xDFC4, offset: 0x1AE169, size: 0x8, addend: 0x0, symName: __ZNK4absl12lts_2021110219str_format_internal7ConvTag8as_flagsEv.cold.1, symObjAddr: 0x1AF0, symBinAddr: 0x56228, symSize: 0x28 }
  - { offsetInCU: 0xDFDC, offset: 0x1AE181, size: 0x8, addend: 0x0, symName: __ZNK4absl12lts_2021110219str_format_internal7ConvTag8as_flagsEv.cold.2, symObjAddr: 0x1B18, symBinAddr: 0x56250, symSize: 0x28 }
  - { offsetInCU: 0xDFF4, offset: 0x1AE199, size: 0x8, addend: 0x0, symName: __ZNK4absl12lts_2021110219str_format_internal7ConvTag8as_flagsEv.cold.3, symObjAddr: 0x1B40, symBinAddr: 0x56278, symSize: 0x28 }
  - { offsetInCU: 0xE00C, offset: 0x1AE1B1, size: 0x8, addend: 0x0, symName: __ZNK4absl12lts_2021110219str_format_internal7ConvTag9as_lengthEv.cold.1, symObjAddr: 0x1B68, symBinAddr: 0x562A0, symSize: 0x28 }
  - { offsetInCU: 0xE024, offset: 0x1AE1C9, size: 0x8, addend: 0x0, symName: __ZNK4absl12lts_2021110219str_format_internal7ConvTag9as_lengthEv.cold.2, symObjAddr: 0x1B90, symBinAddr: 0x562C8, symSize: 0x28 }
  - { offsetInCU: 0xE440, offset: 0x1AE5E5, size: 0x8, addend: 0x0, symName: __ZNKSt3__16vectorIN4absl12lts_2021110219str_format_internal16ParsedFormatBase14ConversionItemENS_9allocatorIS5_EEE20__throw_length_errorB7v160006Ev, symObjAddr: 0x17A4, symBinAddr: 0x3A020, symSize: 0x14 }
  - { offsetInCU: 0xE469, offset: 0x1AE60E, size: 0x8, addend: 0x0, symName: __ZNSt3__119__allocate_at_leastB7v160006INS_9allocatorIN4absl12lts_2021110219str_format_internal16ParsedFormatBase14ConversionItemEEEEENS_19__allocation_resultINS_16allocator_traitsIT_E7pointerEEERSA_m, symObjAddr: 0x17B8, symBinAddr: 0x3A034, symSize: 0x34 }
  - { offsetInCU: 0xE5B8, offset: 0x1AE75D, size: 0x8, addend: 0x0, symName: _OUTLINED_FUNCTION_0, symObjAddr: 0x1BB8, symBinAddr: 0x3A0B0, symSize: 0x8 }
  - { offsetInCU: 0xE5D0, offset: 0x1AE775, size: 0x8, addend: 0x0, symName: _OUTLINED_FUNCTION_1, symObjAddr: 0x1BC0, symBinAddr: 0x3A0B8, symSize: 0x8 }
  - { offsetInCU: 0xE5E8, offset: 0x1AE78D, size: 0x8, addend: 0x0, symName: _OUTLINED_FUNCTION_2, symObjAddr: 0x1BC8, symBinAddr: 0x3A0C0, symSize: 0x8 }
  - { offsetInCU: 0x26, offset: 0x1AE7D9, size: 0x8, addend: 0x0, symName: __ZN4absl12lts_2021110224synchronization_internal12PerThreadSem23SetThreadBlockedCounterEPNSt3__16atomicIiEE, symObjAddr: 0x0, symBinAddr: 0x3A0C8, symSize: 0x30 }
  - { offsetInCU: 0x2DDC, offset: 0x1B158F, size: 0x8, addend: 0x0, symName: __ZN4absl12lts_2021110224synchronization_internal12PerThreadSem23SetThreadBlockedCounterEPNSt3__16atomicIiEE, symObjAddr: 0x0, symBinAddr: 0x3A0C8, symSize: 0x30 }
  - { offsetInCU: 0x2E41, offset: 0x1B15F4, size: 0x8, addend: 0x0, symName: __ZN4absl12lts_2021110224synchronization_internal12PerThreadSem23GetThreadBlockedCounterEv, symObjAddr: 0x30, symBinAddr: 0x3A0F8, symSize: 0x24 }
  - { offsetInCU: 0x2F1A, offset: 0x1B16CD, size: 0x8, addend: 0x0, symName: __ZN4absl12lts_2021110224synchronization_internal12PerThreadSem4InitEPNS0_13base_internal14ThreadIdentityE, symObjAddr: 0x54, symBinAddr: 0x3A11C, symSize: 0x30 }
  - { offsetInCU: 0x3063, offset: 0x1B1816, size: 0x8, addend: 0x0, symName: __ZN4absl12lts_2021110224synchronization_internal12PerThreadSem7DestroyEPNS0_13base_internal14ThreadIdentityE, symObjAddr: 0x84, symBinAddr: 0x3A14C, symSize: 0x8 }
  - { offsetInCU: 0x308C, offset: 0x1B183F, size: 0x8, addend: 0x0, symName: __ZN4absl12lts_2021110224synchronization_internal12PerThreadSem7DestroyEPNS0_13base_internal14ThreadIdentityE, symObjAddr: 0x84, symBinAddr: 0x3A14C, symSize: 0x8 }
  - { offsetInCU: 0x313A, offset: 0x1B18ED, size: 0x8, addend: 0x0, symName: __ZN4absl12lts_2021110224synchronization_internal12PerThreadSem4TickEPNS0_13base_internal14ThreadIdentityE, symObjAddr: 0x8C, symBinAddr: 0x3A154, symSize: 0x44 }
  - { offsetInCU: 0x327C, offset: 0x1B1A2F, size: 0x8, addend: 0x0, symName: _AbslInternalPerThreadSemPost_lts_20211102, symObjAddr: 0xD0, symBinAddr: 0x3A198, symSize: 0x8 }
  - { offsetInCU: 0x32A5, offset: 0x1B1A58, size: 0x8, addend: 0x0, symName: _AbslInternalPerThreadSemPost_lts_20211102, symObjAddr: 0xD0, symBinAddr: 0x3A198, symSize: 0x8 }
  - { offsetInCU: 0x32EC, offset: 0x1B1A9F, size: 0x8, addend: 0x0, symName: _AbslInternalPerThreadSemWait_lts_20211102, symObjAddr: 0xD8, symBinAddr: 0x3A1A0, symSize: 0x8C }
  - { offsetInCU: 0x25F, offset: 0x1B1F7A, size: 0x8, addend: 0x0, symName: __ZN4absl12lts_2021110215random_internal12_GLOBAL__N_19pool_onceE, symObjAddr: 0x186C0, symBinAddr: 0x72F40, symSize: 0x0 }
  - { offsetInCU: 0x26D, offset: 0x1B1F88, size: 0x8, addend: 0x0, symName: __ZN4absl12lts_2021110215random_internal12_GLOBAL__N_112InitPoolURBGEv, symObjAddr: 0x6F8, symBinAddr: 0x3A8D0, symSize: 0x16C }
  - { offsetInCU: 0x7EF, offset: 0x1B250A, size: 0x8, addend: 0x0, symName: __ZN4absl12lts_2021110215random_internal12_GLOBAL__N_112shared_poolsE, symObjAddr: 0x18680, symBinAddr: 0x72F00, symSize: 0x0 }
  - { offsetInCU: 0x926, offset: 0x1B2641, size: 0x8, addend: 0x0, symName: __ZN4absl12lts_2021110215random_internal12_GLOBAL__N_123GetPoolForCurrentThreadEv, symObjAddr: 0x13C, symBinAddr: 0x3A368, symSize: 0x94 }
  - { offsetInCU: 0x49FB, offset: 0x1B6716, size: 0x8, addend: 0x0, symName: __ZN4absl12lts_2021110215random_internal10RandenPoolIhE3minEv, symObjAddr: 0x0, symBinAddr: 0x3A22C, symSize: 0x8 }
  - { offsetInCU: 0x4A0F, offset: 0x1B672A, size: 0x8, addend: 0x0, symName: __ZN4absl12lts_2021110215random_internal10RandenPoolIhE3maxEv, symObjAddr: 0x8, symBinAddr: 0x3A234, symSize: 0x8 }
  - { offsetInCU: 0x4A23, offset: 0x1B673E, size: 0x8, addend: 0x0, symName: __ZN4absl12lts_2021110215random_internal10RandenPoolIhEC2Ev, symObjAddr: 0x10, symBinAddr: 0x3A23C, symSize: 0x4 }
  - { offsetInCU: 0x4A4C, offset: 0x1B6767, size: 0x8, addend: 0x0, symName: __ZN4absl12lts_2021110215random_internal10RandenPoolIhEC1Ev, symObjAddr: 0x14, symBinAddr: 0x3A240, symSize: 0x4 }
  - { offsetInCU: 0x4A75, offset: 0x1B6790, size: 0x8, addend: 0x0, symName: __ZN4absl12lts_2021110215random_internal10RandenPoolIhEclEv, symObjAddr: 0x18, symBinAddr: 0x3A244, symSize: 0x4 }
  - { offsetInCU: 0x4A9D, offset: 0x1B67B8, size: 0x8, addend: 0x0, symName: __ZN4absl12lts_2021110215random_internal10RandenPoolIhEclEv, symObjAddr: 0x18, symBinAddr: 0x3A244, symSize: 0x4 }
  - { offsetInCU: 0x4AA8, offset: 0x1B67C3, size: 0x8, addend: 0x0, symName: __ZN4absl12lts_2021110215random_internal10RandenPoolIhE8GenerateEv, symObjAddr: 0x1C, symBinAddr: 0x3A248, symSize: 0xF4 }
  - { offsetInCU: 0x507B, offset: 0x1B6D96, size: 0x8, addend: 0x0, symName: __ZN4absl12lts_2021110215random_internal10RandenPoolIhE4FillENS0_4SpanIhEE, symObjAddr: 0x110, symBinAddr: 0x3A33C, symSize: 0x2C }
  - { offsetInCU: 0x50D7, offset: 0x1B6DF2, size: 0x8, addend: 0x0, symName: __ZN4absl12lts_2021110215random_internal12_GLOBAL__N_115RandenPoolEntry4FillEPhm, symObjAddr: 0x1D0, symBinAddr: 0x3A3FC, symSize: 0x11C }
  - { offsetInCU: 0x549E, offset: 0x1B71B9, size: 0x8, addend: 0x0, symName: __ZN4absl12lts_2021110215random_internal10RandenPoolItE3minEv, symObjAddr: 0x2EC, symBinAddr: 0x3A518, symSize: 0x8 }
  - { offsetInCU: 0x54B2, offset: 0x1B71CD, size: 0x8, addend: 0x0, symName: __ZN4absl12lts_2021110215random_internal10RandenPoolItE3maxEv, symObjAddr: 0x2F4, symBinAddr: 0x3A520, symSize: 0x8 }
  - { offsetInCU: 0x54C6, offset: 0x1B71E1, size: 0x8, addend: 0x0, symName: __ZN4absl12lts_2021110215random_internal10RandenPoolItEC2Ev, symObjAddr: 0x2FC, symBinAddr: 0x3A528, symSize: 0x4 }
  - { offsetInCU: 0x54EF, offset: 0x1B720A, size: 0x8, addend: 0x0, symName: __ZN4absl12lts_2021110215random_internal10RandenPoolItEC1Ev, symObjAddr: 0x300, symBinAddr: 0x3A52C, symSize: 0x4 }
  - { offsetInCU: 0x5518, offset: 0x1B7233, size: 0x8, addend: 0x0, symName: __ZN4absl12lts_2021110215random_internal10RandenPoolItEclEv, symObjAddr: 0x304, symBinAddr: 0x3A530, symSize: 0x4 }
  - { offsetInCU: 0x5540, offset: 0x1B725B, size: 0x8, addend: 0x0, symName: __ZN4absl12lts_2021110215random_internal10RandenPoolItEclEv, symObjAddr: 0x304, symBinAddr: 0x3A530, symSize: 0x4 }
  - { offsetInCU: 0x554B, offset: 0x1B7266, size: 0x8, addend: 0x0, symName: __ZN4absl12lts_2021110215random_internal10RandenPoolItE8GenerateEv, symObjAddr: 0x308, symBinAddr: 0x3A534, symSize: 0xF4 }
  - { offsetInCU: 0x58F7, offset: 0x1B7612, size: 0x8, addend: 0x0, symName: __ZN4absl12lts_2021110215random_internal10RandenPoolItE4FillENS0_4SpanItEE, symObjAddr: 0x3FC, symBinAddr: 0x3A628, symSize: 0x2C }
  - { offsetInCU: 0x594C, offset: 0x1B7667, size: 0x8, addend: 0x0, symName: __ZN4absl12lts_2021110215random_internal10RandenPoolIjE3minEv, symObjAddr: 0x428, symBinAddr: 0x3A654, symSize: 0x8 }
  - { offsetInCU: 0x5960, offset: 0x1B767B, size: 0x8, addend: 0x0, symName: __ZN4absl12lts_2021110215random_internal10RandenPoolIjE3maxEv, symObjAddr: 0x430, symBinAddr: 0x3A65C, symSize: 0x8 }
  - { offsetInCU: 0x5974, offset: 0x1B768F, size: 0x8, addend: 0x0, symName: __ZN4absl12lts_2021110215random_internal10RandenPoolIjEC2Ev, symObjAddr: 0x438, symBinAddr: 0x3A664, symSize: 0x4 }
  - { offsetInCU: 0x599D, offset: 0x1B76B8, size: 0x8, addend: 0x0, symName: __ZN4absl12lts_2021110215random_internal10RandenPoolIjEC1Ev, symObjAddr: 0x43C, symBinAddr: 0x3A668, symSize: 0x4 }
  - { offsetInCU: 0x59C6, offset: 0x1B76E1, size: 0x8, addend: 0x0, symName: __ZN4absl12lts_2021110215random_internal10RandenPoolIjEclEv, symObjAddr: 0x440, symBinAddr: 0x3A66C, symSize: 0x4 }
  - { offsetInCU: 0x59EE, offset: 0x1B7709, size: 0x8, addend: 0x0, symName: __ZN4absl12lts_2021110215random_internal10RandenPoolIjEclEv, symObjAddr: 0x440, symBinAddr: 0x3A66C, symSize: 0x4 }
  - { offsetInCU: 0x59F9, offset: 0x1B7714, size: 0x8, addend: 0x0, symName: __ZN4absl12lts_2021110215random_internal10RandenPoolIjE8GenerateEv, symObjAddr: 0x444, symBinAddr: 0x3A670, symSize: 0xF4 }
  - { offsetInCU: 0x5DA5, offset: 0x1B7AC0, size: 0x8, addend: 0x0, symName: __ZN4absl12lts_2021110215random_internal10RandenPoolIjE4FillENS0_4SpanIjEE, symObjAddr: 0x538, symBinAddr: 0x3A764, symSize: 0x2C }
  - { offsetInCU: 0x5DFA, offset: 0x1B7B15, size: 0x8, addend: 0x0, symName: __ZN4absl12lts_2021110215random_internal10RandenPoolIyE3minEv, symObjAddr: 0x564, symBinAddr: 0x3A790, symSize: 0x8 }
  - { offsetInCU: 0x5E0E, offset: 0x1B7B29, size: 0x8, addend: 0x0, symName: __ZN4absl12lts_2021110215random_internal10RandenPoolIyE3maxEv, symObjAddr: 0x56C, symBinAddr: 0x3A798, symSize: 0x8 }
  - { offsetInCU: 0x5E22, offset: 0x1B7B3D, size: 0x8, addend: 0x0, symName: __ZN4absl12lts_2021110215random_internal10RandenPoolIyEC2Ev, symObjAddr: 0x574, symBinAddr: 0x3A7A0, symSize: 0x4 }
  - { offsetInCU: 0x5E4B, offset: 0x1B7B66, size: 0x8, addend: 0x0, symName: __ZN4absl12lts_2021110215random_internal10RandenPoolIyEC1Ev, symObjAddr: 0x578, symBinAddr: 0x3A7A4, symSize: 0x4 }
  - { offsetInCU: 0x5E74, offset: 0x1B7B8F, size: 0x8, addend: 0x0, symName: __ZN4absl12lts_2021110215random_internal10RandenPoolIyEclEv, symObjAddr: 0x57C, symBinAddr: 0x3A7A8, symSize: 0x4 }
  - { offsetInCU: 0x5E9C, offset: 0x1B7BB7, size: 0x8, addend: 0x0, symName: __ZN4absl12lts_2021110215random_internal10RandenPoolIyEclEv, symObjAddr: 0x57C, symBinAddr: 0x3A7A8, symSize: 0x4 }
  - { offsetInCU: 0x5EA7, offset: 0x1B7BC2, size: 0x8, addend: 0x0, symName: __ZN4absl12lts_2021110215random_internal10RandenPoolIyE8GenerateEv, symObjAddr: 0x580, symBinAddr: 0x3A7AC, symSize: 0xF8 }
  - { offsetInCU: 0x626F, offset: 0x1B7F8A, size: 0x8, addend: 0x0, symName: __ZN4absl12lts_2021110215random_internal10RandenPoolIyE4FillENS0_4SpanIyEE, symObjAddr: 0x678, symBinAddr: 0x3A8A4, symSize: 0x2C }
  - { offsetInCU: 0x26, offset: 0x1B82A4, size: 0x8, addend: 0x0, symName: __ZN4absl12lts_2021110215random_internal6RandenC2Ev, symObjAddr: 0x0, symBinAddr: 0x3AA3C, symSize: 0x88 }
  - { offsetInCU: 0x51, offset: 0x1B82CF, size: 0x8, addend: 0x0, symName: __ZZN4absl12lts_2021110215random_internal12_GLOBAL__N_114GetRandenStateEvE5state, symObjAddr: 0x5AE8, symBinAddr: 0x72F50, symSize: 0x0 }
  - { offsetInCU: 0x2A81, offset: 0x1BACFF, size: 0x8, addend: 0x0, symName: __ZN4absl12lts_2021110215random_internal6RandenC2Ev, symObjAddr: 0x0, symBinAddr: 0x3AA3C, symSize: 0x88 }
  - { offsetInCU: 0x2AF2, offset: 0x1BAD70, size: 0x8, addend: 0x0, symName: __ZN4absl12lts_2021110215random_internal6RandenC1Ev, symObjAddr: 0x88, symBinAddr: 0x3AAC4, symSize: 0x4 }
  - { offsetInCU: 0x2B20, offset: 0x1BAD9E, size: 0x8, addend: 0x0, symName: __ZN4absl12lts_2021110215random_internal6RandenC1Ev, symObjAddr: 0x88, symBinAddr: 0x3AAC4, symSize: 0x4 }
  - { offsetInCU: 0x26, offset: 0x1BADDB, size: 0x8, addend: 0x0, symName: __ZN4absl12lts_2021110215random_internal22CPUSupportsRandenHwAesEv, symObjAddr: 0x0, symBinAddr: 0x3AAC8, symSize: 0x8 }
  - { offsetInCU: 0x468, offset: 0x1BB21D, size: 0x8, addend: 0x0, symName: __ZN4absl12lts_2021110215random_internal22CPUSupportsRandenHwAesEv, symObjAddr: 0x0, symBinAddr: 0x3AAC8, symSize: 0x8 }
  - { offsetInCU: 0x26, offset: 0x1BB26B, size: 0x8, addend: 0x0, symName: __ZN4absl12lts_2021110215random_internal28HasRandenHwAesImplementationEv, symObjAddr: 0x0, symBinAddr: 0x3AAD0, symSize: 0x8 }
  - { offsetInCU: 0x9C, offset: 0x1BB2E1, size: 0x8, addend: 0x0, symName: __ZN4absl12lts_2021110215random_internal28HasRandenHwAesImplementationEv, symObjAddr: 0x0, symBinAddr: 0x3AAD0, symSize: 0x8 }
  - { offsetInCU: 0x19C8, offset: 0x1BCC0D, size: 0x8, addend: 0x0, symName: __ZN4absl12lts_2021110215random_internal11RandenHwAes7GetKeysEv, symObjAddr: 0x8, symBinAddr: 0x3AAD8, symSize: 0xC }
  - { offsetInCU: 0x19F4, offset: 0x1BCC39, size: 0x8, addend: 0x0, symName: __ZN4absl12lts_2021110215random_internal11RandenHwAes6AbsorbEPKvPv, symObjAddr: 0x14, symBinAddr: 0x3AAE4, symSize: 0xD8 }
  - { offsetInCU: 0x1B39, offset: 0x1BCD7E, size: 0x8, addend: 0x0, symName: __ZN4absl12lts_2021110215random_internal11RandenHwAes6AbsorbEPKvPv, symObjAddr: 0x14, symBinAddr: 0x3AAE4, symSize: 0xD8 }
  - { offsetInCU: 0x20F2, offset: 0x1BD337, size: 0x8, addend: 0x0, symName: __ZN4absl12lts_2021110215random_internal11RandenHwAes8GenerateEPKvPv, symObjAddr: 0xEC, symBinAddr: 0x3ABBC, symSize: 0x264 }
  - { offsetInCU: 0x43, offset: 0x1BD6DB, size: 0x8, addend: 0x0, symName: __ZN4absl12lts_2021110215random_internal18kRandenRoundKeysBEE, symObjAddr: 0x0, symBinAddr: 0x5CD90, symSize: 0x0 }
  - { offsetInCU: 0x5F, offset: 0x1BD6F7, size: 0x8, addend: 0x0, symName: __ZN4absl12lts_2021110215random_internal16kRandenRoundKeysE, symObjAddr: 0x880, symBinAddr: 0x5D610, symSize: 0x0 }
  - { offsetInCU: 0x26, offset: 0x1BD78C, size: 0x8, addend: 0x0, symName: __ZN4absl12lts_2021110215random_internal10RandenSlow7GetKeysEv, symObjAddr: 0x0, symBinAddr: 0x3AE20, symSize: 0xC }
  - { offsetInCU: 0x40, offset: 0x1BD7A6, size: 0x8, addend: 0x0, symName: __ZN12_GLOBAL__N_13te0E, symObjAddr: 0x534, symBinAddr: 0x5DE90, symSize: 0x0 }
  - { offsetInCU: 0x5A, offset: 0x1BD7C0, size: 0x8, addend: 0x0, symName: __ZN12_GLOBAL__N_13te1E, symObjAddr: 0x934, symBinAddr: 0x5E290, symSize: 0x0 }
